
parser:     file format elf32-i386


Disassembly of section .init:

08048674 <_init>:
 8048674:	53                   	push   %ebx
 8048675:	83 ec 08             	sub    $0x8,%esp
 8048678:	e8 13 02 00 00       	call   8048890 <__x86.get_pc_thunk.bx>
 804867d:	81 c3 83 c9 00 00    	add    $0xc983,%ebx
 8048683:	8b 83 fc ff ff ff    	mov    -0x4(%ebx),%eax
 8048689:	85 c0                	test   %eax,%eax
 804868b:	74 05                	je     8048692 <_init+0x1e>
 804868d:	e8 be 01 00 00       	call   8048850 <isatty@plt+0x10>
 8048692:	83 c4 08             	add    $0x8,%esp
 8048695:	5b                   	pop    %ebx
 8048696:	c3                   	ret    

Disassembly of section .plt:

080486a0 <strcmp@plt-0x10>:
 80486a0:	ff 35 04 50 05 08    	pushl  0x8055004
 80486a6:	ff 25 08 50 05 08    	jmp    *0x8055008
 80486ac:	00 00                	add    %al,(%eax)
	...

080486b0 <strcmp@plt>:
 80486b0:	ff 25 0c 50 05 08    	jmp    *0x805500c
 80486b6:	68 00 00 00 00       	push   $0x0
 80486bb:	e9 e0 ff ff ff       	jmp    80486a0 <_init+0x2c>

080486c0 <printf@plt>:
 80486c0:	ff 25 10 50 05 08    	jmp    *0x8055010
 80486c6:	68 08 00 00 00       	push   $0x8
 80486cb:	e9 d0 ff ff ff       	jmp    80486a0 <_init+0x2c>

080486d0 <free@plt>:
 80486d0:	ff 25 14 50 05 08    	jmp    *0x8055014
 80486d6:	68 10 00 00 00       	push   $0x10
 80486db:	e9 c0 ff ff ff       	jmp    80486a0 <_init+0x2c>

080486e0 <memcpy@plt>:
 80486e0:	ff 25 18 50 05 08    	jmp    *0x8055018
 80486e6:	68 18 00 00 00       	push   $0x18
 80486eb:	e9 b0 ff ff ff       	jmp    80486a0 <_init+0x2c>

080486f0 <ferror@plt>:
 80486f0:	ff 25 1c 50 05 08    	jmp    *0x805501c
 80486f6:	68 20 00 00 00       	push   $0x20
 80486fb:	e9 a0 ff ff ff       	jmp    80486a0 <_init+0x2c>

08048700 <__stack_chk_fail@plt>:
 8048700:	ff 25 20 50 05 08    	jmp    *0x8055020
 8048706:	68 28 00 00 00       	push   $0x28
 804870b:	e9 90 ff ff ff       	jmp    80486a0 <_init+0x2c>

08048710 <_IO_getc@plt>:
 8048710:	ff 25 24 50 05 08    	jmp    *0x8055024
 8048716:	68 30 00 00 00       	push   $0x30
 804871b:	e9 80 ff ff ff       	jmp    80486a0 <_init+0x2c>

08048720 <perror@plt>:
 8048720:	ff 25 28 50 05 08    	jmp    *0x8055028
 8048726:	68 38 00 00 00       	push   $0x38
 804872b:	e9 70 ff ff ff       	jmp    80486a0 <_init+0x2c>

08048730 <fwrite@plt>:
 8048730:	ff 25 2c 50 05 08    	jmp    *0x805502c
 8048736:	68 40 00 00 00       	push   $0x40
 804873b:	e9 60 ff ff ff       	jmp    80486a0 <_init+0x2c>

08048740 <fread@plt>:
 8048740:	ff 25 30 50 05 08    	jmp    *0x8055030
 8048746:	68 48 00 00 00       	push   $0x48
 804874b:	e9 50 ff ff ff       	jmp    80486a0 <_init+0x2c>

08048750 <strcpy@plt>:
 8048750:	ff 25 34 50 05 08    	jmp    *0x8055034
 8048756:	68 50 00 00 00       	push   $0x50
 804875b:	e9 40 ff ff ff       	jmp    80486a0 <_init+0x2c>

08048760 <realloc@plt>:
 8048760:	ff 25 38 50 05 08    	jmp    *0x8055038
 8048766:	68 58 00 00 00       	push   $0x58
 804876b:	e9 30 ff ff ff       	jmp    80486a0 <_init+0x2c>

08048770 <malloc@plt>:
 8048770:	ff 25 3c 50 05 08    	jmp    *0x805503c
 8048776:	68 60 00 00 00       	push   $0x60
 804877b:	e9 20 ff ff ff       	jmp    80486a0 <_init+0x2c>

08048780 <puts@plt>:
 8048780:	ff 25 40 50 05 08    	jmp    *0x8055040
 8048786:	68 68 00 00 00       	push   $0x68
 804878b:	e9 10 ff ff ff       	jmp    80486a0 <_init+0x2c>

08048790 <exit@plt>:
 8048790:	ff 25 44 50 05 08    	jmp    *0x8055044
 8048796:	68 70 00 00 00       	push   $0x70
 804879b:	e9 00 ff ff ff       	jmp    80486a0 <_init+0x2c>

080487a0 <strlen@plt>:
 80487a0:	ff 25 48 50 05 08    	jmp    *0x8055048
 80487a6:	68 78 00 00 00       	push   $0x78
 80487ab:	e9 f0 fe ff ff       	jmp    80486a0 <_init+0x2c>

080487b0 <__libc_start_main@plt>:
 80487b0:	ff 25 4c 50 05 08    	jmp    *0x805504c
 80487b6:	68 80 00 00 00       	push   $0x80
 80487bb:	e9 e0 fe ff ff       	jmp    80486a0 <_init+0x2c>

080487c0 <fprintf@plt>:
 80487c0:	ff 25 50 50 05 08    	jmp    *0x8055050
 80487c6:	68 88 00 00 00       	push   $0x88
 80487cb:	e9 d0 fe ff ff       	jmp    80486a0 <_init+0x2c>

080487d0 <fopen@plt>:
 80487d0:	ff 25 54 50 05 08    	jmp    *0x8055054
 80487d6:	68 90 00 00 00       	push   $0x90
 80487db:	e9 c0 fe ff ff       	jmp    80486a0 <_init+0x2c>

080487e0 <memset@plt>:
 80487e0:	ff 25 58 50 05 08    	jmp    *0x8055058
 80487e6:	68 98 00 00 00       	push   $0x98
 80487eb:	e9 b0 fe ff ff       	jmp    80486a0 <_init+0x2c>

080487f0 <putchar@plt>:
 80487f0:	ff 25 5c 50 05 08    	jmp    *0x805505c
 80487f6:	68 a0 00 00 00       	push   $0xa0
 80487fb:	e9 a0 fe ff ff       	jmp    80486a0 <_init+0x2c>

08048800 <__errno_location@plt>:
 8048800:	ff 25 60 50 05 08    	jmp    *0x8055060
 8048806:	68 a8 00 00 00       	push   $0xa8
 804880b:	e9 90 fe ff ff       	jmp    80486a0 <_init+0x2c>

08048810 <fileno@plt>:
 8048810:	ff 25 64 50 05 08    	jmp    *0x8055064
 8048816:	68 b0 00 00 00       	push   $0xb0
 804881b:	e9 80 fe ff ff       	jmp    80486a0 <_init+0x2c>

08048820 <clearerr@plt>:
 8048820:	ff 25 68 50 05 08    	jmp    *0x8055068
 8048826:	68 b8 00 00 00       	push   $0xb8
 804882b:	e9 70 fe ff ff       	jmp    80486a0 <_init+0x2c>

08048830 <atoi@plt>:
 8048830:	ff 25 6c 50 05 08    	jmp    *0x805506c
 8048836:	68 c0 00 00 00       	push   $0xc0
 804883b:	e9 60 fe ff ff       	jmp    80486a0 <_init+0x2c>

08048840 <isatty@plt>:
 8048840:	ff 25 70 50 05 08    	jmp    *0x8055070
 8048846:	68 c8 00 00 00       	push   $0xc8
 804884b:	e9 50 fe ff ff       	jmp    80486a0 <_init+0x2c>

Disassembly of section .plt.got:

08048850 <.plt.got>:
 8048850:	ff 25 fc 4f 05 08    	jmp    *0x8054ffc
 8048856:	66 90                	xchg   %ax,%ax

Disassembly of section .text:

08048860 <_start>:
 8048860:	31 ed                	xor    %ebp,%ebp
 8048862:	5e                   	pop    %esi
 8048863:	89 e1                	mov    %esp,%ecx
 8048865:	83 e4 f0             	and    $0xfffffff0,%esp
 8048868:	50                   	push   %eax
 8048869:	54                   	push   %esp
 804886a:	52                   	push   %edx
 804886b:	68 d0 05 05 08       	push   $0x80505d0
 8048870:	68 70 05 05 08       	push   $0x8050570
 8048875:	51                   	push   %ecx
 8048876:	56                   	push   %esi
 8048877:	68 13 e6 04 08       	push   $0x804e613
 804887c:	e8 2f ff ff ff       	call   80487b0 <__libc_start_main@plt>
 8048881:	f4                   	hlt    
 8048882:	66 90                	xchg   %ax,%ax
 8048884:	66 90                	xchg   %ax,%ax
 8048886:	66 90                	xchg   %ax,%ax
 8048888:	66 90                	xchg   %ax,%ax
 804888a:	66 90                	xchg   %ax,%ax
 804888c:	66 90                	xchg   %ax,%ax
 804888e:	66 90                	xchg   %ax,%ax

08048890 <__x86.get_pc_thunk.bx>:
 8048890:	8b 1c 24             	mov    (%esp),%ebx
 8048893:	c3                   	ret    
 8048894:	66 90                	xchg   %ax,%ax
 8048896:	66 90                	xchg   %ax,%ax
 8048898:	66 90                	xchg   %ax,%ax
 804889a:	66 90                	xchg   %ax,%ax
 804889c:	66 90                	xchg   %ax,%ax
 804889e:	66 90                	xchg   %ax,%ax

080488a0 <deregister_tm_clones>:
 80488a0:	b8 af 50 05 08       	mov    $0x80550af,%eax
 80488a5:	2d ac 50 05 08       	sub    $0x80550ac,%eax
 80488aa:	83 f8 06             	cmp    $0x6,%eax
 80488ad:	76 1a                	jbe    80488c9 <deregister_tm_clones+0x29>
 80488af:	b8 00 00 00 00       	mov    $0x0,%eax
 80488b4:	85 c0                	test   %eax,%eax
 80488b6:	74 11                	je     80488c9 <deregister_tm_clones+0x29>
 80488b8:	55                   	push   %ebp
 80488b9:	89 e5                	mov    %esp,%ebp
 80488bb:	83 ec 14             	sub    $0x14,%esp
 80488be:	68 ac 50 05 08       	push   $0x80550ac
 80488c3:	ff d0                	call   *%eax
 80488c5:	83 c4 10             	add    $0x10,%esp
 80488c8:	c9                   	leave  
 80488c9:	f3 c3                	repz ret 
 80488cb:	90                   	nop
 80488cc:	8d 74 26 00          	lea    0x0(%esi,%eiz,1),%esi

080488d0 <register_tm_clones>:
 80488d0:	b8 ac 50 05 08       	mov    $0x80550ac,%eax
 80488d5:	2d ac 50 05 08       	sub    $0x80550ac,%eax
 80488da:	c1 f8 02             	sar    $0x2,%eax
 80488dd:	89 c2                	mov    %eax,%edx
 80488df:	c1 ea 1f             	shr    $0x1f,%edx
 80488e2:	01 d0                	add    %edx,%eax
 80488e4:	d1 f8                	sar    %eax
 80488e6:	74 1b                	je     8048903 <register_tm_clones+0x33>
 80488e8:	ba 00 00 00 00       	mov    $0x0,%edx
 80488ed:	85 d2                	test   %edx,%edx
 80488ef:	74 12                	je     8048903 <register_tm_clones+0x33>
 80488f1:	55                   	push   %ebp
 80488f2:	89 e5                	mov    %esp,%ebp
 80488f4:	83 ec 10             	sub    $0x10,%esp
 80488f7:	50                   	push   %eax
 80488f8:	68 ac 50 05 08       	push   $0x80550ac
 80488fd:	ff d2                	call   *%edx
 80488ff:	83 c4 10             	add    $0x10,%esp
 8048902:	c9                   	leave  
 8048903:	f3 c3                	repz ret 
 8048905:	8d 74 26 00          	lea    0x0(%esi,%eiz,1),%esi
 8048909:	8d bc 27 00 00 00 00 	lea    0x0(%edi,%eiz,1),%edi

08048910 <__do_global_dtors_aux>:
 8048910:	80 3d e8 50 05 08 00 	cmpb   $0x0,0x80550e8
 8048917:	75 13                	jne    804892c <__do_global_dtors_aux+0x1c>
 8048919:	55                   	push   %ebp
 804891a:	89 e5                	mov    %esp,%ebp
 804891c:	83 ec 08             	sub    $0x8,%esp
 804891f:	e8 7c ff ff ff       	call   80488a0 <deregister_tm_clones>
 8048924:	c6 05 e8 50 05 08 01 	movb   $0x1,0x80550e8
 804892b:	c9                   	leave  
 804892c:	f3 c3                	repz ret 
 804892e:	66 90                	xchg   %ax,%ax

08048930 <frame_dummy>:
 8048930:	b8 10 4f 05 08       	mov    $0x8054f10,%eax
 8048935:	8b 10                	mov    (%eax),%edx
 8048937:	85 d2                	test   %edx,%edx
 8048939:	75 05                	jne    8048940 <frame_dummy+0x10>
 804893b:	eb 93                	jmp    80488d0 <register_tm_clones>
 804893d:	8d 76 00             	lea    0x0(%esi),%esi
 8048940:	ba 00 00 00 00       	mov    $0x0,%edx
 8048945:	85 d2                	test   %edx,%edx
 8048947:	74 f2                	je     804893b <frame_dummy+0xb>
 8048949:	55                   	push   %ebp
 804894a:	89 e5                	mov    %esp,%ebp
 804894c:	83 ec 14             	sub    $0x14,%esp
 804894f:	50                   	push   %eax
 8048950:	ff d2                	call   *%edx
 8048952:	83 c4 10             	add    $0x10,%esp
 8048955:	c9                   	leave  
 8048956:	e9 75 ff ff ff       	jmp    80488d0 <register_tm_clones>

0804895b <yylex>:
 804895b:	55                   	push   %ebp
 804895c:	89 e5                	mov    %esp,%ebp
 804895e:	57                   	push   %edi
 804895f:	56                   	push   %esi
 8048960:	53                   	push   %ebx
 8048961:	81 ec ac 00 00 00    	sub    $0xac,%esp
 8048967:	a1 10 51 05 08       	mov    0x8055110,%eax
 804896c:	85 c0                	test   %eax,%eax
 804896e:	0f 85 95 00 00 00    	jne    8048a09 <yylex+0xae>
 8048974:	c7 05 10 51 05 08 01 	movl   $0x1,0x8055110
 804897b:	00 00 00 
 804897e:	a1 14 51 05 08       	mov    0x8055114,%eax
 8048983:	85 c0                	test   %eax,%eax
 8048985:	75 0a                	jne    8048991 <yylex+0x36>
 8048987:	c7 05 14 51 05 08 01 	movl   $0x1,0x8055114
 804898e:	00 00 00 
 8048991:	a1 ec 50 05 08       	mov    0x80550ec,%eax
 8048996:	85 c0                	test   %eax,%eax
 8048998:	75 0a                	jne    80489a4 <yylex+0x49>
 804899a:	a1 e0 50 05 08       	mov    0x80550e0,%eax
 804899f:	a3 ec 50 05 08       	mov    %eax,0x80550ec
 80489a4:	a1 f0 50 05 08       	mov    0x80550f0,%eax
 80489a9:	85 c0                	test   %eax,%eax
 80489ab:	75 0a                	jne    80489b7 <yylex+0x5c>
 80489ad:	a1 e4 50 05 08       	mov    0x80550e4,%eax
 80489b2:	a3 f0 50 05 08       	mov    %eax,0x80550f0
 80489b7:	a1 00 51 05 08       	mov    0x8055100,%eax
 80489bc:	85 c0                	test   %eax,%eax
 80489be:	74 16                	je     80489d6 <yylex+0x7b>
 80489c0:	a1 00 51 05 08       	mov    0x8055100,%eax
 80489c5:	8b 15 f8 50 05 08    	mov    0x80550f8,%edx
 80489cb:	c1 e2 02             	shl    $0x2,%edx
 80489ce:	01 d0                	add    %edx,%eax
 80489d0:	8b 00                	mov    (%eax),%eax
 80489d2:	85 c0                	test   %eax,%eax
 80489d4:	75 2e                	jne    8048a04 <yylex+0xa9>
 80489d6:	e8 db 22 00 00       	call   804acb6 <yyensure_buffer_stack>
 80489db:	a1 00 51 05 08       	mov    0x8055100,%eax
 80489e0:	8b 15 f8 50 05 08    	mov    0x80550f8,%edx
 80489e6:	c1 e2 02             	shl    $0x2,%edx
 80489e9:	8d 1c 10             	lea    (%eax,%edx,1),%ebx
 80489ec:	a1 ec 50 05 08       	mov    0x80550ec,%eax
 80489f1:	83 ec 08             	sub    $0x8,%esp
 80489f4:	68 00 40 00 00       	push   $0x4000
 80489f9:	50                   	push   %eax
 80489fa:	e8 09 1f 00 00       	call   804a908 <yy_create_buffer>
 80489ff:	83 c4 10             	add    $0x10,%esp
 8048a02:	89 03                	mov    %eax,(%ebx)
 8048a04:	e8 95 1e 00 00       	call   804a89e <yy_load_buffer_state>
 8048a09:	a1 0c 51 05 08       	mov    0x805510c,%eax
 8048a0e:	89 85 64 ff ff ff    	mov    %eax,-0x9c(%ebp)
 8048a14:	0f b6 15 04 51 05 08 	movzbl 0x8055104,%edx
 8048a1b:	8b 85 64 ff ff ff    	mov    -0x9c(%ebp),%eax
 8048a21:	88 10                	mov    %dl,(%eax)
 8048a23:	8b 85 64 ff ff ff    	mov    -0x9c(%ebp),%eax
 8048a29:	89 85 68 ff ff ff    	mov    %eax,-0x98(%ebp)
 8048a2f:	a1 14 51 05 08       	mov    0x8055114,%eax
 8048a34:	89 85 60 ff ff ff    	mov    %eax,-0xa0(%ebp)
 8048a3a:	8b 85 64 ff ff ff    	mov    -0x9c(%ebp),%eax
 8048a40:	0f b6 00             	movzbl (%eax),%eax
 8048a43:	0f b6 c0             	movzbl %al,%eax
 8048a46:	0f b6 80 c0 06 05 08 	movzbl 0x80506c0(%eax),%eax
 8048a4d:	88 85 5e ff ff ff    	mov    %al,-0xa2(%ebp)
 8048a53:	8b 85 60 ff ff ff    	mov    -0xa0(%ebp),%eax
 8048a59:	0f b7 84 00 20 06 05 	movzwl 0x8050620(%eax,%eax,1),%eax
 8048a60:	08 
 8048a61:	66 85 c0             	test   %ax,%ax
 8048a64:	74 4a                	je     8048ab0 <yylex+0x155>
 8048a66:	8b 85 60 ff ff ff    	mov    -0xa0(%ebp),%eax
 8048a6c:	a3 1c 51 05 08       	mov    %eax,0x805511c
 8048a71:	8b 85 64 ff ff ff    	mov    -0x9c(%ebp),%eax
 8048a77:	a3 20 51 05 08       	mov    %eax,0x8055120
 8048a7c:	eb 32                	jmp    8048ab0 <yylex+0x155>
 8048a7e:	8b 85 60 ff ff ff    	mov    -0xa0(%ebp),%eax
 8048a84:	0f b7 84 00 a0 08 05 	movzwl 0x80508a0(%eax,%eax,1),%eax
 8048a8b:	08 
 8048a8c:	98                   	cwtl   
 8048a8d:	89 85 60 ff ff ff    	mov    %eax,-0xa0(%ebp)
 8048a93:	83 bd 60 ff ff ff 4b 	cmpl   $0x4b,-0xa0(%ebp)
 8048a9a:	7e 14                	jle    8048ab0 <yylex+0x155>
 8048a9c:	0f b6 85 5e ff ff ff 	movzbl -0xa2(%ebp),%eax
 8048aa3:	0f b6 80 c0 07 05 08 	movzbl 0x80507c0(%eax),%eax
 8048aaa:	88 85 5e ff ff ff    	mov    %al,-0xa2(%ebp)
 8048ab0:	8b 85 60 ff ff ff    	mov    -0xa0(%ebp),%eax
 8048ab6:	0f b7 84 00 00 08 05 	movzwl 0x8050800(%eax,%eax,1),%eax
 8048abd:	08 
 8048abe:	0f b7 d0             	movzwl %ax,%edx
 8048ac1:	0f b6 85 5e ff ff ff 	movzbl -0xa2(%ebp),%eax
 8048ac8:	01 d0                	add    %edx,%eax
 8048aca:	0f b7 84 00 80 0a 05 	movzwl 0x8050a80(%eax,%eax,1),%eax
 8048ad1:	08 
 8048ad2:	98                   	cwtl   
 8048ad3:	3b 85 60 ff ff ff    	cmp    -0xa0(%ebp),%eax
 8048ad9:	75 a3                	jne    8048a7e <yylex+0x123>
 8048adb:	8b 85 60 ff ff ff    	mov    -0xa0(%ebp),%eax
 8048ae1:	0f b7 84 00 00 08 05 	movzwl 0x8050800(%eax,%eax,1),%eax
 8048ae8:	08 
 8048ae9:	0f b7 d0             	movzwl %ax,%edx
 8048aec:	0f b6 85 5e ff ff ff 	movzbl -0xa2(%ebp),%eax
 8048af3:	01 d0                	add    %edx,%eax
 8048af5:	0f b7 84 00 40 09 05 	movzwl 0x8050940(%eax,%eax,1),%eax
 8048afc:	08 
 8048afd:	0f b7 c0             	movzwl %ax,%eax
 8048b00:	89 85 60 ff ff ff    	mov    %eax,-0xa0(%ebp)
 8048b06:	83 85 64 ff ff ff 01 	addl   $0x1,-0x9c(%ebp)
 8048b0d:	8b 85 60 ff ff ff    	mov    -0xa0(%ebp),%eax
 8048b13:	0f b7 84 00 00 08 05 	movzwl 0x8050800(%eax,%eax,1),%eax
 8048b1a:	08 
 8048b1b:	66 83 f8 6d          	cmp    $0x6d,%ax
 8048b1f:	0f 85 15 ff ff ff    	jne    8048a3a <yylex+0xdf>
 8048b25:	8b 85 60 ff ff ff    	mov    -0xa0(%ebp),%eax
 8048b2b:	0f b7 84 00 20 06 05 	movzwl 0x8050620(%eax,%eax,1),%eax
 8048b32:	08 
 8048b33:	98                   	cwtl   
 8048b34:	89 85 6c ff ff ff    	mov    %eax,-0x94(%ebp)
 8048b3a:	83 bd 6c ff ff ff 00 	cmpl   $0x0,-0x94(%ebp)
 8048b41:	75 2b                	jne    8048b6e <yylex+0x213>
 8048b43:	a1 20 51 05 08       	mov    0x8055120,%eax
 8048b48:	89 85 64 ff ff ff    	mov    %eax,-0x9c(%ebp)
 8048b4e:	a1 1c 51 05 08       	mov    0x805511c,%eax
 8048b53:	89 85 60 ff ff ff    	mov    %eax,-0xa0(%ebp)
 8048b59:	8b 85 60 ff ff ff    	mov    -0xa0(%ebp),%eax
 8048b5f:	0f b7 84 00 20 06 05 	movzwl 0x8050620(%eax,%eax,1),%eax
 8048b66:	08 
 8048b67:	98                   	cwtl   
 8048b68:	89 85 6c ff ff ff    	mov    %eax,-0x94(%ebp)
 8048b6e:	8b 85 68 ff ff ff    	mov    -0x98(%ebp),%eax
 8048b74:	a3 3c 51 05 08       	mov    %eax,0x805513c
 8048b79:	8b 95 64 ff ff ff    	mov    -0x9c(%ebp),%edx
 8048b7f:	8b 85 68 ff ff ff    	mov    -0x98(%ebp),%eax
 8048b85:	29 c2                	sub    %eax,%edx
 8048b87:	89 d0                	mov    %edx,%eax
 8048b89:	a3 44 51 05 08       	mov    %eax,0x8055144
 8048b8e:	8b 85 64 ff ff ff    	mov    -0x9c(%ebp),%eax
 8048b94:	0f b6 00             	movzbl (%eax),%eax
 8048b97:	a2 04 51 05 08       	mov    %al,0x8055104
 8048b9c:	8b 85 64 ff ff ff    	mov    -0x9c(%ebp),%eax
 8048ba2:	c6 00 00             	movb   $0x0,(%eax)
 8048ba5:	8b 85 64 ff ff ff    	mov    -0x9c(%ebp),%eax
 8048bab:	a3 0c 51 05 08       	mov    %eax,0x805510c
 8048bb0:	83 bd 6c ff ff ff 22 	cmpl   $0x22,-0x94(%ebp)
 8048bb7:	74 53                	je     8048c0c <yylex+0x2b1>
 8048bb9:	8b 85 6c ff ff ff    	mov    -0x94(%ebp),%eax
 8048bbf:	8b 04 85 c0 0b 05 08 	mov    0x8050bc0(,%eax,4),%eax
 8048bc6:	85 c0                	test   %eax,%eax
 8048bc8:	74 42                	je     8048c0c <yylex+0x2b1>
 8048bca:	c7 85 70 ff ff ff 00 	movl   $0x0,-0x90(%ebp)
 8048bd1:	00 00 00 
 8048bd4:	eb 29                	jmp    8048bff <yylex+0x2a4>
 8048bd6:	8b 15 3c 51 05 08    	mov    0x805513c,%edx
 8048bdc:	8b 85 70 ff ff ff    	mov    -0x90(%ebp),%eax
 8048be2:	01 d0                	add    %edx,%eax
 8048be4:	0f b6 00             	movzbl (%eax),%eax
 8048be7:	3c 0a                	cmp    $0xa,%al
 8048be9:	75 0d                	jne    8048bf8 <yylex+0x29d>
 8048beb:	a1 7c 50 05 08       	mov    0x805507c,%eax
 8048bf0:	83 c0 01             	add    $0x1,%eax
 8048bf3:	a3 7c 50 05 08       	mov    %eax,0x805507c
 8048bf8:	83 85 70 ff ff ff 01 	addl   $0x1,-0x90(%ebp)
 8048bff:	a1 44 51 05 08       	mov    0x8055144,%eax
 8048c04:	39 85 70 ff ff ff    	cmp    %eax,-0x90(%ebp)
 8048c0a:	72 ca                	jb     8048bd6 <yylex+0x27b>
 8048c0c:	83 bd 6c ff ff ff 23 	cmpl   $0x23,-0x94(%ebp)
 8048c13:	0f 87 9d 11 00 00    	ja     8049db6 <yylex+0x145b>
 8048c19:	8b 85 6c ff ff ff    	mov    -0x94(%ebp),%eax
 8048c1f:	c1 e0 02             	shl    $0x2,%eax
 8048c22:	05 58 0d 05 08       	add    $0x8050d58,%eax
 8048c27:	8b 00                	mov    (%eax),%eax
 8048c29:	ff e0                	jmp    *%eax
 8048c2b:	0f b6 15 04 51 05 08 	movzbl 0x8055104,%edx
 8048c32:	8b 85 64 ff ff ff    	mov    -0x9c(%ebp),%eax
 8048c38:	88 10                	mov    %dl,(%eax)
 8048c3a:	a1 20 51 05 08       	mov    0x8055120,%eax
 8048c3f:	89 85 64 ff ff ff    	mov    %eax,-0x9c(%ebp)
 8048c45:	a1 1c 51 05 08       	mov    0x805511c,%eax
 8048c4a:	89 85 60 ff ff ff    	mov    %eax,-0xa0(%ebp)
 8048c50:	e9 d0 fe ff ff       	jmp    8048b25 <yylex+0x1ca>
 8048c55:	a1 7c 50 05 08       	mov    0x805507c,%eax
 8048c5a:	a3 8c 50 05 08       	mov    %eax,0x805508c
 8048c5f:	a1 8c 50 05 08       	mov    0x805508c,%eax
 8048c64:	a3 84 50 05 08       	mov    %eax,0x8055084
 8048c69:	a1 80 50 05 08       	mov    0x8055080,%eax
 8048c6e:	a3 88 50 05 08       	mov    %eax,0x8055088
 8048c73:	a1 80 50 05 08       	mov    0x8055080,%eax
 8048c78:	89 c2                	mov    %eax,%edx
 8048c7a:	a1 44 51 05 08       	mov    0x8055144,%eax
 8048c7f:	01 d0                	add    %edx,%eax
 8048c81:	83 e8 01             	sub    $0x1,%eax
 8048c84:	a3 90 50 05 08       	mov    %eax,0x8055090
 8048c89:	a1 80 50 05 08       	mov    0x8055080,%eax
 8048c8e:	89 c2                	mov    %eax,%edx
 8048c90:	a1 44 51 05 08       	mov    0x8055144,%eax
 8048c95:	01 d0                	add    %edx,%eax
 8048c97:	a3 80 50 05 08       	mov    %eax,0x8055080
 8048c9c:	e8 84 19 00 00       	call   804a625 <input>
 8048ca1:	88 85 5f ff ff ff    	mov    %al,-0xa1(%ebp)
 8048ca7:	eb 0b                	jmp    8048cb4 <yylex+0x359>
 8048ca9:	e8 77 19 00 00       	call   804a625 <input>
 8048cae:	88 85 5f ff ff ff    	mov    %al,-0xa1(%ebp)
 8048cb4:	80 bd 5f ff ff ff 0a 	cmpb   $0xa,-0xa1(%ebp)
 8048cbb:	75 ec                	jne    8048ca9 <yylex+0x34e>
 8048cbd:	e9 01 11 00 00       	jmp    8049dc3 <yylex+0x1468>
 8048cc2:	a1 7c 50 05 08       	mov    0x805507c,%eax
 8048cc7:	a3 8c 50 05 08       	mov    %eax,0x805508c
 8048ccc:	a1 8c 50 05 08       	mov    0x805508c,%eax
 8048cd1:	a3 84 50 05 08       	mov    %eax,0x8055084
 8048cd6:	a1 80 50 05 08       	mov    0x8055080,%eax
 8048cdb:	a3 88 50 05 08       	mov    %eax,0x8055088
 8048ce0:	a1 80 50 05 08       	mov    0x8055080,%eax
 8048ce5:	89 c2                	mov    %eax,%edx
 8048ce7:	a1 44 51 05 08       	mov    0x8055144,%eax
 8048cec:	01 d0                	add    %edx,%eax
 8048cee:	83 e8 01             	sub    $0x1,%eax
 8048cf1:	a3 90 50 05 08       	mov    %eax,0x8055090
 8048cf6:	a1 80 50 05 08       	mov    0x8055080,%eax
 8048cfb:	89 c2                	mov    %eax,%edx
 8048cfd:	a1 44 51 05 08       	mov    0x8055144,%eax
 8048d02:	01 d0                	add    %edx,%eax
 8048d04:	a3 80 50 05 08       	mov    %eax,0x8055080
 8048d09:	e9 b5 10 00 00       	jmp    8049dc3 <yylex+0x1468>
 8048d0e:	a1 7c 50 05 08       	mov    0x805507c,%eax
 8048d13:	a3 8c 50 05 08       	mov    %eax,0x805508c
 8048d18:	a1 8c 50 05 08       	mov    0x805508c,%eax
 8048d1d:	a3 84 50 05 08       	mov    %eax,0x8055084
 8048d22:	a1 80 50 05 08       	mov    0x8055080,%eax
 8048d27:	a3 88 50 05 08       	mov    %eax,0x8055088
 8048d2c:	a1 80 50 05 08       	mov    0x8055080,%eax
 8048d31:	89 c2                	mov    %eax,%edx
 8048d33:	a1 44 51 05 08       	mov    0x8055144,%eax
 8048d38:	01 d0                	add    %edx,%eax
 8048d3a:	83 e8 01             	sub    $0x1,%eax
 8048d3d:	a3 90 50 05 08       	mov    %eax,0x8055090
 8048d42:	a1 80 50 05 08       	mov    0x8055080,%eax
 8048d47:	89 c2                	mov    %eax,%edx
 8048d49:	a1 44 51 05 08       	mov    0x8055144,%eax
 8048d4e:	01 d0                	add    %edx,%eax
 8048d50:	a3 80 50 05 08       	mov    %eax,0x8055080
 8048d55:	a1 7c 50 05 08       	mov    0x805507c,%eax
 8048d5a:	83 ec 04             	sub    $0x4,%esp
 8048d5d:	6a 01                	push   $0x1
 8048d5f:	50                   	push   %eax
 8048d60:	68 48 0c 05 08       	push   $0x8050c48
 8048d65:	e8 f0 56 00 00       	call   804e45a <Syntax_Leaf_New>
 8048d6a:	83 c4 10             	add    $0x10,%esp
 8048d6d:	89 85 7c ff ff ff    	mov    %eax,-0x84(%ebp)
 8048d73:	8b 85 7c ff ff ff    	mov    -0x84(%ebp),%eax
 8048d79:	a3 4c 51 05 08       	mov    %eax,0x805514c
 8048d7e:	b8 02 01 00 00       	mov    $0x102,%eax
 8048d83:	e9 40 10 00 00       	jmp    8049dc8 <yylex+0x146d>
 8048d88:	a1 7c 50 05 08       	mov    0x805507c,%eax
 8048d8d:	a3 8c 50 05 08       	mov    %eax,0x805508c
 8048d92:	a1 8c 50 05 08       	mov    0x805508c,%eax
 8048d97:	a3 84 50 05 08       	mov    %eax,0x8055084
 8048d9c:	a1 80 50 05 08       	mov    0x8055080,%eax
 8048da1:	a3 88 50 05 08       	mov    %eax,0x8055088
 8048da6:	a1 80 50 05 08       	mov    0x8055080,%eax
 8048dab:	89 c2                	mov    %eax,%edx
 8048dad:	a1 44 51 05 08       	mov    0x8055144,%eax
 8048db2:	01 d0                	add    %edx,%eax
 8048db4:	83 e8 01             	sub    $0x1,%eax
 8048db7:	a3 90 50 05 08       	mov    %eax,0x8055090
 8048dbc:	a1 80 50 05 08       	mov    0x8055080,%eax
 8048dc1:	89 c2                	mov    %eax,%edx
 8048dc3:	a1 44 51 05 08       	mov    0x8055144,%eax
 8048dc8:	01 d0                	add    %edx,%eax
 8048dca:	a3 80 50 05 08       	mov    %eax,0x8055080
 8048dcf:	a1 7c 50 05 08       	mov    0x805507c,%eax
 8048dd4:	83 ec 04             	sub    $0x4,%esp
 8048dd7:	6a 06                	push   $0x6
 8048dd9:	50                   	push   %eax
 8048dda:	68 4d 0c 05 08       	push   $0x8050c4d
 8048ddf:	e8 76 56 00 00       	call   804e45a <Syntax_Leaf_New>
 8048de4:	83 c4 10             	add    $0x10,%esp
 8048de7:	89 45 80             	mov    %eax,-0x80(%ebp)
 8048dea:	8b 45 80             	mov    -0x80(%ebp),%eax
 8048ded:	a3 4c 51 05 08       	mov    %eax,0x805514c
 8048df2:	b8 05 01 00 00       	mov    $0x105,%eax
 8048df7:	e9 cc 0f 00 00       	jmp    8049dc8 <yylex+0x146d>
 8048dfc:	a1 7c 50 05 08       	mov    0x805507c,%eax
 8048e01:	a3 8c 50 05 08       	mov    %eax,0x805508c
 8048e06:	a1 8c 50 05 08       	mov    0x805508c,%eax
 8048e0b:	a3 84 50 05 08       	mov    %eax,0x8055084
 8048e10:	a1 80 50 05 08       	mov    0x8055080,%eax
 8048e15:	a3 88 50 05 08       	mov    %eax,0x8055088
 8048e1a:	a1 80 50 05 08       	mov    0x8055080,%eax
 8048e1f:	89 c2                	mov    %eax,%edx
 8048e21:	a1 44 51 05 08       	mov    0x8055144,%eax
 8048e26:	01 d0                	add    %edx,%eax
 8048e28:	83 e8 01             	sub    $0x1,%eax
 8048e2b:	a3 90 50 05 08       	mov    %eax,0x8055090
 8048e30:	a1 80 50 05 08       	mov    0x8055080,%eax
 8048e35:	89 c2                	mov    %eax,%edx
 8048e37:	a1 44 51 05 08       	mov    0x8055144,%eax
 8048e3c:	01 d0                	add    %edx,%eax
 8048e3e:	a3 80 50 05 08       	mov    %eax,0x8055080
 8048e43:	a1 7c 50 05 08       	mov    0x805507c,%eax
 8048e48:	83 ec 04             	sub    $0x4,%esp
 8048e4b:	6a 01                	push   $0x1
 8048e4d:	50                   	push   %eax
 8048e4e:	68 53 0c 05 08       	push   $0x8050c53
 8048e53:	e8 02 56 00 00       	call   804e45a <Syntax_Leaf_New>
 8048e58:	83 c4 10             	add    $0x10,%esp
 8048e5b:	89 45 84             	mov    %eax,-0x7c(%ebp)
 8048e5e:	8b 45 84             	mov    -0x7c(%ebp),%eax
 8048e61:	a3 4c 51 05 08       	mov    %eax,0x805514c
 8048e66:	b8 03 01 00 00       	mov    $0x103,%eax
 8048e6b:	e9 58 0f 00 00       	jmp    8049dc8 <yylex+0x146d>
 8048e70:	a1 7c 50 05 08       	mov    0x805507c,%eax
 8048e75:	a3 8c 50 05 08       	mov    %eax,0x805508c
 8048e7a:	a1 8c 50 05 08       	mov    0x805508c,%eax
 8048e7f:	a3 84 50 05 08       	mov    %eax,0x8055084
 8048e84:	a1 80 50 05 08       	mov    0x8055080,%eax
 8048e89:	a3 88 50 05 08       	mov    %eax,0x8055088
 8048e8e:	a1 80 50 05 08       	mov    0x8055080,%eax
 8048e93:	89 c2                	mov    %eax,%edx
 8048e95:	a1 44 51 05 08       	mov    0x8055144,%eax
 8048e9a:	01 d0                	add    %edx,%eax
 8048e9c:	83 e8 01             	sub    $0x1,%eax
 8048e9f:	a3 90 50 05 08       	mov    %eax,0x8055090
 8048ea4:	a1 80 50 05 08       	mov    0x8055080,%eax
 8048ea9:	89 c2                	mov    %eax,%edx
 8048eab:	a1 44 51 05 08       	mov    0x8055144,%eax
 8048eb0:	01 d0                	add    %edx,%eax
 8048eb2:	a3 80 50 05 08       	mov    %eax,0x8055080
 8048eb7:	a1 7c 50 05 08       	mov    0x805507c,%eax
 8048ebc:	83 ec 04             	sub    $0x4,%esp
 8048ebf:	6a 07                	push   $0x7
 8048ec1:	50                   	push   %eax
 8048ec2:	68 59 0c 05 08       	push   $0x8050c59
 8048ec7:	e8 8e 55 00 00       	call   804e45a <Syntax_Leaf_New>
 8048ecc:	83 c4 10             	add    $0x10,%esp
 8048ecf:	89 45 88             	mov    %eax,-0x78(%ebp)
 8048ed2:	8b 45 88             	mov    -0x78(%ebp),%eax
 8048ed5:	a3 4c 51 05 08       	mov    %eax,0x805514c
 8048eda:	b8 04 01 00 00       	mov    $0x104,%eax
 8048edf:	e9 e4 0e 00 00       	jmp    8049dc8 <yylex+0x146d>
 8048ee4:	a1 7c 50 05 08       	mov    0x805507c,%eax
 8048ee9:	a3 8c 50 05 08       	mov    %eax,0x805508c
 8048eee:	a1 8c 50 05 08       	mov    0x805508c,%eax
 8048ef3:	a3 84 50 05 08       	mov    %eax,0x8055084
 8048ef8:	a1 80 50 05 08       	mov    0x8055080,%eax
 8048efd:	a3 88 50 05 08       	mov    %eax,0x8055088
 8048f02:	a1 80 50 05 08       	mov    0x8055080,%eax
 8048f07:	89 c2                	mov    %eax,%edx
 8048f09:	a1 44 51 05 08       	mov    0x8055144,%eax
 8048f0e:	01 d0                	add    %edx,%eax
 8048f10:	83 e8 01             	sub    $0x1,%eax
 8048f13:	a3 90 50 05 08       	mov    %eax,0x8055090
 8048f18:	a1 80 50 05 08       	mov    0x8055080,%eax
 8048f1d:	89 c2                	mov    %eax,%edx
 8048f1f:	a1 44 51 05 08       	mov    0x8055144,%eax
 8048f24:	01 d0                	add    %edx,%eax
 8048f26:	a3 80 50 05 08       	mov    %eax,0x8055080
 8048f2b:	a1 7c 50 05 08       	mov    0x805507c,%eax
 8048f30:	83 ec 04             	sub    $0x4,%esp
 8048f33:	6a 08                	push   $0x8
 8048f35:	50                   	push   %eax
 8048f36:	68 62 0c 05 08       	push   $0x8050c62
 8048f3b:	e8 1a 55 00 00       	call   804e45a <Syntax_Leaf_New>
 8048f40:	83 c4 10             	add    $0x10,%esp
 8048f43:	89 45 8c             	mov    %eax,-0x74(%ebp)
 8048f46:	8b 45 8c             	mov    -0x74(%ebp),%eax
 8048f49:	a3 4c 51 05 08       	mov    %eax,0x805514c
 8048f4e:	b8 06 01 00 00       	mov    $0x106,%eax
 8048f53:	e9 70 0e 00 00       	jmp    8049dc8 <yylex+0x146d>
 8048f58:	a1 7c 50 05 08       	mov    0x805507c,%eax
 8048f5d:	a3 8c 50 05 08       	mov    %eax,0x805508c
 8048f62:	a1 8c 50 05 08       	mov    0x805508c,%eax
 8048f67:	a3 84 50 05 08       	mov    %eax,0x8055084
 8048f6c:	a1 80 50 05 08       	mov    0x8055080,%eax
 8048f71:	a3 88 50 05 08       	mov    %eax,0x8055088
 8048f76:	a1 80 50 05 08       	mov    0x8055080,%eax
 8048f7b:	89 c2                	mov    %eax,%edx
 8048f7d:	a1 44 51 05 08       	mov    0x8055144,%eax
 8048f82:	01 d0                	add    %edx,%eax
 8048f84:	83 e8 01             	sub    $0x1,%eax
 8048f87:	a3 90 50 05 08       	mov    %eax,0x8055090
 8048f8c:	a1 80 50 05 08       	mov    0x8055080,%eax
 8048f91:	89 c2                	mov    %eax,%edx
 8048f93:	a1 44 51 05 08       	mov    0x8055144,%eax
 8048f98:	01 d0                	add    %edx,%eax
 8048f9a:	a3 80 50 05 08       	mov    %eax,0x8055080
 8048f9f:	a1 7c 50 05 08       	mov    0x805507c,%eax
 8048fa4:	83 ec 04             	sub    $0x4,%esp
 8048fa7:	6a 08                	push   $0x8
 8048fa9:	50                   	push   %eax
 8048faa:	68 67 0c 05 08       	push   $0x8050c67
 8048faf:	e8 a6 54 00 00       	call   804e45a <Syntax_Leaf_New>
 8048fb4:	83 c4 10             	add    $0x10,%esp
 8048fb7:	89 45 90             	mov    %eax,-0x70(%ebp)
 8048fba:	8b 45 90             	mov    -0x70(%ebp),%eax
 8048fbd:	a3 4c 51 05 08       	mov    %eax,0x805514c
 8048fc2:	b8 07 01 00 00       	mov    $0x107,%eax
 8048fc7:	e9 fc 0d 00 00       	jmp    8049dc8 <yylex+0x146d>
 8048fcc:	a1 7c 50 05 08       	mov    0x805507c,%eax
 8048fd1:	a3 8c 50 05 08       	mov    %eax,0x805508c
 8048fd6:	a1 8c 50 05 08       	mov    0x805508c,%eax
 8048fdb:	a3 84 50 05 08       	mov    %eax,0x8055084
 8048fe0:	a1 80 50 05 08       	mov    0x8055080,%eax
 8048fe5:	a3 88 50 05 08       	mov    %eax,0x8055088
 8048fea:	a1 80 50 05 08       	mov    0x8055080,%eax
 8048fef:	89 c2                	mov    %eax,%edx
 8048ff1:	a1 44 51 05 08       	mov    0x8055144,%eax
 8048ff6:	01 d0                	add    %edx,%eax
 8048ff8:	83 e8 01             	sub    $0x1,%eax
 8048ffb:	a3 90 50 05 08       	mov    %eax,0x8055090
 8049000:	a1 80 50 05 08       	mov    0x8055080,%eax
 8049005:	89 c2                	mov    %eax,%edx
 8049007:	a1 44 51 05 08       	mov    0x8055144,%eax
 804900c:	01 d0                	add    %edx,%eax
 804900e:	a3 80 50 05 08       	mov    %eax,0x8055080
 8049013:	a1 7c 50 05 08       	mov    0x805507c,%eax
 8049018:	83 ec 04             	sub    $0x4,%esp
 804901b:	6a 08                	push   $0x8
 804901d:	50                   	push   %eax
 804901e:	68 6d 0c 05 08       	push   $0x8050c6d
 8049023:	e8 32 54 00 00       	call   804e45a <Syntax_Leaf_New>
 8049028:	83 c4 10             	add    $0x10,%esp
 804902b:	89 45 94             	mov    %eax,-0x6c(%ebp)
 804902e:	8b 45 94             	mov    -0x6c(%ebp),%eax
 8049031:	a3 4c 51 05 08       	mov    %eax,0x805514c
 8049036:	b8 08 01 00 00       	mov    $0x108,%eax
 804903b:	e9 88 0d 00 00       	jmp    8049dc8 <yylex+0x146d>
 8049040:	a1 7c 50 05 08       	mov    0x805507c,%eax
 8049045:	a3 8c 50 05 08       	mov    %eax,0x805508c
 804904a:	a1 8c 50 05 08       	mov    0x805508c,%eax
 804904f:	a3 84 50 05 08       	mov    %eax,0x8055084
 8049054:	a1 80 50 05 08       	mov    0x8055080,%eax
 8049059:	a3 88 50 05 08       	mov    %eax,0x8055088
 804905e:	a1 80 50 05 08       	mov    0x8055080,%eax
 8049063:	89 c2                	mov    %eax,%edx
 8049065:	a1 44 51 05 08       	mov    0x8055144,%eax
 804906a:	01 d0                	add    %edx,%eax
 804906c:	83 e8 01             	sub    $0x1,%eax
 804906f:	a3 90 50 05 08       	mov    %eax,0x8055090
 8049074:	a1 80 50 05 08       	mov    0x8055080,%eax
 8049079:	89 c2                	mov    %eax,%edx
 804907b:	a1 44 51 05 08       	mov    0x8055144,%eax
 8049080:	01 d0                	add    %edx,%eax
 8049082:	a3 80 50 05 08       	mov    %eax,0x8055080
 8049087:	a1 7c 50 05 08       	mov    0x805507c,%eax
 804908c:	83 ec 04             	sub    $0x4,%esp
 804908f:	6a 08                	push   $0x8
 8049091:	50                   	push   %eax
 8049092:	68 72 0c 05 08       	push   $0x8050c72
 8049097:	e8 be 53 00 00       	call   804e45a <Syntax_Leaf_New>
 804909c:	83 c4 10             	add    $0x10,%esp
 804909f:	89 45 98             	mov    %eax,-0x68(%ebp)
 80490a2:	8b 45 98             	mov    -0x68(%ebp),%eax
 80490a5:	a3 4c 51 05 08       	mov    %eax,0x805514c
 80490aa:	b8 09 01 00 00       	mov    $0x109,%eax
 80490af:	e9 14 0d 00 00       	jmp    8049dc8 <yylex+0x146d>
 80490b4:	a1 7c 50 05 08       	mov    0x805507c,%eax
 80490b9:	a3 8c 50 05 08       	mov    %eax,0x805508c
 80490be:	a1 8c 50 05 08       	mov    0x805508c,%eax
 80490c3:	a3 84 50 05 08       	mov    %eax,0x8055084
 80490c8:	a1 80 50 05 08       	mov    0x8055080,%eax
 80490cd:	a3 88 50 05 08       	mov    %eax,0x8055088
 80490d2:	a1 80 50 05 08       	mov    0x8055080,%eax
 80490d7:	89 c2                	mov    %eax,%edx
 80490d9:	a1 44 51 05 08       	mov    0x8055144,%eax
 80490de:	01 d0                	add    %edx,%eax
 80490e0:	83 e8 01             	sub    $0x1,%eax
 80490e3:	a3 90 50 05 08       	mov    %eax,0x8055090
 80490e8:	a1 80 50 05 08       	mov    0x8055080,%eax
 80490ed:	89 c2                	mov    %eax,%edx
 80490ef:	a1 44 51 05 08       	mov    0x8055144,%eax
 80490f4:	01 d0                	add    %edx,%eax
 80490f6:	a3 80 50 05 08       	mov    %eax,0x8055080
 80490fb:	a1 7c 50 05 08       	mov    0x805507c,%eax
 8049100:	83 ec 04             	sub    $0x4,%esp
 8049103:	6a 06                	push   $0x6
 8049105:	50                   	push   %eax
 8049106:	68 76 0c 05 08       	push   $0x8050c76
 804910b:	e8 4a 53 00 00       	call   804e45a <Syntax_Leaf_New>
 8049110:	83 c4 10             	add    $0x10,%esp
 8049113:	89 45 9c             	mov    %eax,-0x64(%ebp)
 8049116:	8b 45 9c             	mov    -0x64(%ebp),%eax
 8049119:	a3 4c 51 05 08       	mov    %eax,0x805514c
 804911e:	b8 0a 01 00 00       	mov    $0x10a,%eax
 8049123:	e9 a0 0c 00 00       	jmp    8049dc8 <yylex+0x146d>
 8049128:	a1 7c 50 05 08       	mov    0x805507c,%eax
 804912d:	a3 8c 50 05 08       	mov    %eax,0x805508c
 8049132:	a1 8c 50 05 08       	mov    0x805508c,%eax
 8049137:	a3 84 50 05 08       	mov    %eax,0x8055084
 804913c:	a1 80 50 05 08       	mov    0x8055080,%eax
 8049141:	a3 88 50 05 08       	mov    %eax,0x8055088
 8049146:	a1 80 50 05 08       	mov    0x8055080,%eax
 804914b:	89 c2                	mov    %eax,%edx
 804914d:	a1 44 51 05 08       	mov    0x8055144,%eax
 8049152:	01 d0                	add    %edx,%eax
 8049154:	83 e8 01             	sub    $0x1,%eax
 8049157:	a3 90 50 05 08       	mov    %eax,0x8055090
 804915c:	a1 80 50 05 08       	mov    0x8055080,%eax
 8049161:	89 c2                	mov    %eax,%edx
 8049163:	a1 44 51 05 08       	mov    0x8055144,%eax
 8049168:	01 d0                	add    %edx,%eax
 804916a:	a3 80 50 05 08       	mov    %eax,0x8055080
 804916f:	a1 7c 50 05 08       	mov    0x805507c,%eax
 8049174:	83 ec 04             	sub    $0x4,%esp
 8049177:	6a 06                	push   $0x6
 8049179:	50                   	push   %eax
 804917a:	68 7a 0c 05 08       	push   $0x8050c7a
 804917f:	e8 d6 52 00 00       	call   804e45a <Syntax_Leaf_New>
 8049184:	83 c4 10             	add    $0x10,%esp
 8049187:	89 45 a0             	mov    %eax,-0x60(%ebp)
 804918a:	8b 45 a0             	mov    -0x60(%ebp),%eax
 804918d:	a3 4c 51 05 08       	mov    %eax,0x805514c
 8049192:	b8 0b 01 00 00       	mov    $0x10b,%eax
 8049197:	e9 2c 0c 00 00       	jmp    8049dc8 <yylex+0x146d>
 804919c:	a1 7c 50 05 08       	mov    0x805507c,%eax
 80491a1:	a3 8c 50 05 08       	mov    %eax,0x805508c
 80491a6:	a1 8c 50 05 08       	mov    0x805508c,%eax
 80491ab:	a3 84 50 05 08       	mov    %eax,0x8055084
 80491b0:	a1 80 50 05 08       	mov    0x8055080,%eax
 80491b5:	a3 88 50 05 08       	mov    %eax,0x8055088
 80491ba:	a1 80 50 05 08       	mov    0x8055080,%eax
 80491bf:	89 c2                	mov    %eax,%edx
 80491c1:	a1 44 51 05 08       	mov    0x8055144,%eax
 80491c6:	01 d0                	add    %edx,%eax
 80491c8:	83 e8 01             	sub    $0x1,%eax
 80491cb:	a3 90 50 05 08       	mov    %eax,0x8055090
 80491d0:	a1 80 50 05 08       	mov    0x8055080,%eax
 80491d5:	89 c2                	mov    %eax,%edx
 80491d7:	a1 44 51 05 08       	mov    0x8055144,%eax
 80491dc:	01 d0                	add    %edx,%eax
 80491de:	a3 80 50 05 08       	mov    %eax,0x8055080
 80491e3:	a1 7c 50 05 08       	mov    0x805507c,%eax
 80491e8:	83 ec 04             	sub    $0x4,%esp
 80491eb:	6a 01                	push   $0x1
 80491ed:	50                   	push   %eax
 80491ee:	68 7d 0c 05 08       	push   $0x8050c7d
 80491f3:	e8 62 52 00 00       	call   804e45a <Syntax_Leaf_New>
 80491f8:	83 c4 10             	add    $0x10,%esp
 80491fb:	89 45 a4             	mov    %eax,-0x5c(%ebp)
 80491fe:	8b 45 a4             	mov    -0x5c(%ebp),%eax
 8049201:	a3 4c 51 05 08       	mov    %eax,0x805514c
 8049206:	b8 0c 01 00 00       	mov    $0x10c,%eax
 804920b:	e9 b8 0b 00 00       	jmp    8049dc8 <yylex+0x146d>
 8049210:	a1 7c 50 05 08       	mov    0x805507c,%eax
 8049215:	a3 8c 50 05 08       	mov    %eax,0x805508c
 804921a:	a1 8c 50 05 08       	mov    0x805508c,%eax
 804921f:	a3 84 50 05 08       	mov    %eax,0x8055084
 8049224:	a1 80 50 05 08       	mov    0x8055080,%eax
 8049229:	a3 88 50 05 08       	mov    %eax,0x8055088
 804922e:	a1 80 50 05 08       	mov    0x8055080,%eax
 8049233:	89 c2                	mov    %eax,%edx
 8049235:	a1 44 51 05 08       	mov    0x8055144,%eax
 804923a:	01 d0                	add    %edx,%eax
 804923c:	83 e8 01             	sub    $0x1,%eax
 804923f:	a3 90 50 05 08       	mov    %eax,0x8055090
 8049244:	a1 80 50 05 08       	mov    0x8055080,%eax
 8049249:	89 c2                	mov    %eax,%edx
 804924b:	a1 44 51 05 08       	mov    0x8055144,%eax
 8049250:	01 d0                	add    %edx,%eax
 8049252:	a3 80 50 05 08       	mov    %eax,0x8055080
 8049257:	a1 7c 50 05 08       	mov    0x805507c,%eax
 804925c:	83 ec 04             	sub    $0x4,%esp
 804925f:	6a 06                	push   $0x6
 8049261:	50                   	push   %eax
 8049262:	68 81 0c 05 08       	push   $0x8050c81
 8049267:	e8 ee 51 00 00       	call   804e45a <Syntax_Leaf_New>
 804926c:	83 c4 10             	add    $0x10,%esp
 804926f:	89 45 a8             	mov    %eax,-0x58(%ebp)
 8049272:	8b 45 a8             	mov    -0x58(%ebp),%eax
 8049275:	a3 4c 51 05 08       	mov    %eax,0x805514c
 804927a:	b8 0d 01 00 00       	mov    $0x10d,%eax
 804927f:	e9 44 0b 00 00       	jmp    8049dc8 <yylex+0x146d>
 8049284:	a1 7c 50 05 08       	mov    0x805507c,%eax
 8049289:	a3 8c 50 05 08       	mov    %eax,0x805508c
 804928e:	a1 8c 50 05 08       	mov    0x805508c,%eax
 8049293:	a3 84 50 05 08       	mov    %eax,0x8055084
 8049298:	a1 80 50 05 08       	mov    0x8055080,%eax
 804929d:	a3 88 50 05 08       	mov    %eax,0x8055088
 80492a2:	a1 80 50 05 08       	mov    0x8055080,%eax
 80492a7:	89 c2                	mov    %eax,%edx
 80492a9:	a1 44 51 05 08       	mov    0x8055144,%eax
 80492ae:	01 d0                	add    %edx,%eax
 80492b0:	83 e8 01             	sub    $0x1,%eax
 80492b3:	a3 90 50 05 08       	mov    %eax,0x8055090
 80492b8:	a1 80 50 05 08       	mov    0x8055080,%eax
 80492bd:	89 c2                	mov    %eax,%edx
 80492bf:	a1 44 51 05 08       	mov    0x8055144,%eax
 80492c4:	01 d0                	add    %edx,%eax
 80492c6:	a3 80 50 05 08       	mov    %eax,0x8055080
 80492cb:	a1 7c 50 05 08       	mov    0x805507c,%eax
 80492d0:	83 ec 04             	sub    $0x4,%esp
 80492d3:	6a 03                	push   $0x3
 80492d5:	50                   	push   %eax
 80492d6:	68 85 0c 05 08       	push   $0x8050c85
 80492db:	e8 7a 51 00 00       	call   804e45a <Syntax_Leaf_New>
 80492e0:	83 c4 10             	add    $0x10,%esp
 80492e3:	89 45 ac             	mov    %eax,-0x54(%ebp)
 80492e6:	a1 3c 51 05 08       	mov    0x805513c,%eax
 80492eb:	8b 55 ac             	mov    -0x54(%ebp),%edx
 80492ee:	83 c2 30             	add    $0x30,%edx
 80492f1:	83 ec 08             	sub    $0x8,%esp
 80492f4:	50                   	push   %eax
 80492f5:	52                   	push   %edx
 80492f6:	e8 55 f4 ff ff       	call   8048750 <strcpy@plt>
 80492fb:	83 c4 10             	add    $0x10,%esp
 80492fe:	8b 45 ac             	mov    -0x54(%ebp),%eax
 8049301:	a3 4c 51 05 08       	mov    %eax,0x805514c
 8049306:	b8 0e 01 00 00       	mov    $0x10e,%eax
 804930b:	e9 b8 0a 00 00       	jmp    8049dc8 <yylex+0x146d>
 8049310:	a1 7c 50 05 08       	mov    0x805507c,%eax
 8049315:	a3 8c 50 05 08       	mov    %eax,0x805508c
 804931a:	a1 8c 50 05 08       	mov    0x805508c,%eax
 804931f:	a3 84 50 05 08       	mov    %eax,0x8055084
 8049324:	a1 80 50 05 08       	mov    0x8055080,%eax
 8049329:	a3 88 50 05 08       	mov    %eax,0x8055088
 804932e:	a1 80 50 05 08       	mov    0x8055080,%eax
 8049333:	89 c2                	mov    %eax,%edx
 8049335:	a1 44 51 05 08       	mov    0x8055144,%eax
 804933a:	01 d0                	add    %edx,%eax
 804933c:	83 e8 01             	sub    $0x1,%eax
 804933f:	a3 90 50 05 08       	mov    %eax,0x8055090
 8049344:	a1 80 50 05 08       	mov    0x8055080,%eax
 8049349:	89 c2                	mov    %eax,%edx
 804934b:	a1 44 51 05 08       	mov    0x8055144,%eax
 8049350:	01 d0                	add    %edx,%eax
 8049352:	a3 80 50 05 08       	mov    %eax,0x8055080
 8049357:	a1 7c 50 05 08       	mov    0x805507c,%eax
 804935c:	83 ec 04             	sub    $0x4,%esp
 804935f:	6a 01                	push   $0x1
 8049361:	50                   	push   %eax
 8049362:	68 8a 0c 05 08       	push   $0x8050c8a
 8049367:	e8 ee 50 00 00       	call   804e45a <Syntax_Leaf_New>
 804936c:	83 c4 10             	add    $0x10,%esp
 804936f:	89 45 b0             	mov    %eax,-0x50(%ebp)
 8049372:	8b 45 b0             	mov    -0x50(%ebp),%eax
 8049375:	a3 4c 51 05 08       	mov    %eax,0x805514c
 804937a:	b8 0f 01 00 00       	mov    $0x10f,%eax
 804937f:	e9 44 0a 00 00       	jmp    8049dc8 <yylex+0x146d>
 8049384:	a1 7c 50 05 08       	mov    0x805507c,%eax
 8049389:	a3 8c 50 05 08       	mov    %eax,0x805508c
 804938e:	a1 8c 50 05 08       	mov    0x805508c,%eax
 8049393:	a3 84 50 05 08       	mov    %eax,0x8055084
 8049398:	a1 80 50 05 08       	mov    0x8055080,%eax
 804939d:	a3 88 50 05 08       	mov    %eax,0x8055088
 80493a2:	a1 80 50 05 08       	mov    0x8055080,%eax
 80493a7:	89 c2                	mov    %eax,%edx
 80493a9:	a1 44 51 05 08       	mov    0x8055144,%eax
 80493ae:	01 d0                	add    %edx,%eax
 80493b0:	83 e8 01             	sub    $0x1,%eax
 80493b3:	a3 90 50 05 08       	mov    %eax,0x8055090
 80493b8:	a1 80 50 05 08       	mov    0x8055080,%eax
 80493bd:	89 c2                	mov    %eax,%edx
 80493bf:	a1 44 51 05 08       	mov    0x8055144,%eax
 80493c4:	01 d0                	add    %edx,%eax
 80493c6:	a3 80 50 05 08       	mov    %eax,0x8055080
 80493cb:	a1 7c 50 05 08       	mov    0x805507c,%eax
 80493d0:	83 ec 04             	sub    $0x4,%esp
 80493d3:	6a 01                	push   $0x1
 80493d5:	50                   	push   %eax
 80493d6:	68 8d 0c 05 08       	push   $0x8050c8d
 80493db:	e8 7a 50 00 00       	call   804e45a <Syntax_Leaf_New>
 80493e0:	83 c4 10             	add    $0x10,%esp
 80493e3:	89 45 b4             	mov    %eax,-0x4c(%ebp)
 80493e6:	8b 45 b4             	mov    -0x4c(%ebp),%eax
 80493e9:	a3 4c 51 05 08       	mov    %eax,0x805514c
 80493ee:	b8 10 01 00 00       	mov    $0x110,%eax
 80493f3:	e9 d0 09 00 00       	jmp    8049dc8 <yylex+0x146d>
 80493f8:	a1 7c 50 05 08       	mov    0x805507c,%eax
 80493fd:	a3 8c 50 05 08       	mov    %eax,0x805508c
 8049402:	a1 8c 50 05 08       	mov    0x805508c,%eax
 8049407:	a3 84 50 05 08       	mov    %eax,0x8055084
 804940c:	a1 80 50 05 08       	mov    0x8055080,%eax
 8049411:	a3 88 50 05 08       	mov    %eax,0x8055088
 8049416:	a1 80 50 05 08       	mov    0x8055080,%eax
 804941b:	89 c2                	mov    %eax,%edx
 804941d:	a1 44 51 05 08       	mov    0x8055144,%eax
 8049422:	01 d0                	add    %edx,%eax
 8049424:	83 e8 01             	sub    $0x1,%eax
 8049427:	a3 90 50 05 08       	mov    %eax,0x8055090
 804942c:	a1 80 50 05 08       	mov    0x8055080,%eax
 8049431:	89 c2                	mov    %eax,%edx
 8049433:	a1 44 51 05 08       	mov    0x8055144,%eax
 8049438:	01 d0                	add    %edx,%eax
 804943a:	a3 80 50 05 08       	mov    %eax,0x8055080
 804943f:	a1 7c 50 05 08       	mov    0x805507c,%eax
 8049444:	83 ec 04             	sub    $0x4,%esp
 8049447:	6a 01                	push   $0x1
 8049449:	50                   	push   %eax
 804944a:	68 90 0c 05 08       	push   $0x8050c90
 804944f:	e8 06 50 00 00       	call   804e45a <Syntax_Leaf_New>
 8049454:	83 c4 10             	add    $0x10,%esp
 8049457:	89 45 b8             	mov    %eax,-0x48(%ebp)
 804945a:	8b 45 b8             	mov    -0x48(%ebp),%eax
 804945d:	a3 4c 51 05 08       	mov    %eax,0x805514c
 8049462:	b8 11 01 00 00       	mov    $0x111,%eax
 8049467:	e9 5c 09 00 00       	jmp    8049dc8 <yylex+0x146d>
 804946c:	a1 7c 50 05 08       	mov    0x805507c,%eax
 8049471:	a3 8c 50 05 08       	mov    %eax,0x805508c
 8049476:	a1 8c 50 05 08       	mov    0x805508c,%eax
 804947b:	a3 84 50 05 08       	mov    %eax,0x8055084
 8049480:	a1 80 50 05 08       	mov    0x8055080,%eax
 8049485:	a3 88 50 05 08       	mov    %eax,0x8055088
 804948a:	a1 80 50 05 08       	mov    0x8055080,%eax
 804948f:	89 c2                	mov    %eax,%edx
 8049491:	a1 44 51 05 08       	mov    0x8055144,%eax
 8049496:	01 d0                	add    %edx,%eax
 8049498:	83 e8 01             	sub    $0x1,%eax
 804949b:	a3 90 50 05 08       	mov    %eax,0x8055090
 80494a0:	a1 80 50 05 08       	mov    0x8055080,%eax
 80494a5:	89 c2                	mov    %eax,%edx
 80494a7:	a1 44 51 05 08       	mov    0x8055144,%eax
 80494ac:	01 d0                	add    %edx,%eax
 80494ae:	a3 80 50 05 08       	mov    %eax,0x8055080
 80494b3:	a1 7c 50 05 08       	mov    0x805507c,%eax
 80494b8:	83 ec 04             	sub    $0x4,%esp
 80494bb:	6a 01                	push   $0x1
 80494bd:	50                   	push   %eax
 80494be:	68 93 0c 05 08       	push   $0x8050c93
 80494c3:	e8 92 4f 00 00       	call   804e45a <Syntax_Leaf_New>
 80494c8:	83 c4 10             	add    $0x10,%esp
 80494cb:	89 45 bc             	mov    %eax,-0x44(%ebp)
 80494ce:	8b 45 bc             	mov    -0x44(%ebp),%eax
 80494d1:	a3 4c 51 05 08       	mov    %eax,0x805514c
 80494d6:	b8 12 01 00 00       	mov    $0x112,%eax
 80494db:	e9 e8 08 00 00       	jmp    8049dc8 <yylex+0x146d>
 80494e0:	a1 7c 50 05 08       	mov    0x805507c,%eax
 80494e5:	a3 8c 50 05 08       	mov    %eax,0x805508c
 80494ea:	a1 8c 50 05 08       	mov    0x805508c,%eax
 80494ef:	a3 84 50 05 08       	mov    %eax,0x8055084
 80494f4:	a1 80 50 05 08       	mov    0x8055080,%eax
 80494f9:	a3 88 50 05 08       	mov    %eax,0x8055088
 80494fe:	a1 80 50 05 08       	mov    0x8055080,%eax
 8049503:	89 c2                	mov    %eax,%edx
 8049505:	a1 44 51 05 08       	mov    0x8055144,%eax
 804950a:	01 d0                	add    %edx,%eax
 804950c:	83 e8 01             	sub    $0x1,%eax
 804950f:	a3 90 50 05 08       	mov    %eax,0x8055090
 8049514:	a1 80 50 05 08       	mov    0x8055080,%eax
 8049519:	89 c2                	mov    %eax,%edx
 804951b:	a1 44 51 05 08       	mov    0x8055144,%eax
 8049520:	01 d0                	add    %edx,%eax
 8049522:	a3 80 50 05 08       	mov    %eax,0x8055080
 8049527:	a1 7c 50 05 08       	mov    0x805507c,%eax
 804952c:	83 ec 04             	sub    $0x4,%esp
 804952f:	6a 01                	push   $0x1
 8049531:	50                   	push   %eax
 8049532:	68 96 0c 05 08       	push   $0x8050c96
 8049537:	e8 1e 4f 00 00       	call   804e45a <Syntax_Leaf_New>
 804953c:	83 c4 10             	add    $0x10,%esp
 804953f:	89 45 c0             	mov    %eax,-0x40(%ebp)
 8049542:	8b 45 c0             	mov    -0x40(%ebp),%eax
 8049545:	a3 4c 51 05 08       	mov    %eax,0x805514c
 804954a:	b8 13 01 00 00       	mov    $0x113,%eax
 804954f:	e9 74 08 00 00       	jmp    8049dc8 <yylex+0x146d>
 8049554:	a1 7c 50 05 08       	mov    0x805507c,%eax
 8049559:	a3 8c 50 05 08       	mov    %eax,0x805508c
 804955e:	a1 8c 50 05 08       	mov    0x805508c,%eax
 8049563:	a3 84 50 05 08       	mov    %eax,0x8055084
 8049568:	a1 80 50 05 08       	mov    0x8055080,%eax
 804956d:	a3 88 50 05 08       	mov    %eax,0x8055088
 8049572:	a1 80 50 05 08       	mov    0x8055080,%eax
 8049577:	89 c2                	mov    %eax,%edx
 8049579:	a1 44 51 05 08       	mov    0x8055144,%eax
 804957e:	01 d0                	add    %edx,%eax
 8049580:	83 e8 01             	sub    $0x1,%eax
 8049583:	a3 90 50 05 08       	mov    %eax,0x8055090
 8049588:	a1 80 50 05 08       	mov    0x8055080,%eax
 804958d:	89 c2                	mov    %eax,%edx
 804958f:	a1 44 51 05 08       	mov    0x8055144,%eax
 8049594:	01 d0                	add    %edx,%eax
 8049596:	a3 80 50 05 08       	mov    %eax,0x8055080
 804959b:	a1 7c 50 05 08       	mov    0x805507c,%eax
 80495a0:	83 ec 04             	sub    $0x4,%esp
 80495a3:	6a 01                	push   $0x1
 80495a5:	50                   	push   %eax
 80495a6:	68 99 0c 05 08       	push   $0x8050c99
 80495ab:	e8 aa 4e 00 00       	call   804e45a <Syntax_Leaf_New>
 80495b0:	83 c4 10             	add    $0x10,%esp
 80495b3:	89 45 c4             	mov    %eax,-0x3c(%ebp)
 80495b6:	8b 45 c4             	mov    -0x3c(%ebp),%eax
 80495b9:	a3 4c 51 05 08       	mov    %eax,0x805514c
 80495be:	b8 14 01 00 00       	mov    $0x114,%eax
 80495c3:	e9 00 08 00 00       	jmp    8049dc8 <yylex+0x146d>
 80495c8:	a1 7c 50 05 08       	mov    0x805507c,%eax
 80495cd:	a3 8c 50 05 08       	mov    %eax,0x805508c
 80495d2:	a1 8c 50 05 08       	mov    0x805508c,%eax
 80495d7:	a3 84 50 05 08       	mov    %eax,0x8055084
 80495dc:	a1 80 50 05 08       	mov    0x8055080,%eax
 80495e1:	a3 88 50 05 08       	mov    %eax,0x8055088
 80495e6:	a1 80 50 05 08       	mov    0x8055080,%eax
 80495eb:	89 c2                	mov    %eax,%edx
 80495ed:	a1 44 51 05 08       	mov    0x8055144,%eax
 80495f2:	01 d0                	add    %edx,%eax
 80495f4:	83 e8 01             	sub    $0x1,%eax
 80495f7:	a3 90 50 05 08       	mov    %eax,0x8055090
 80495fc:	a1 80 50 05 08       	mov    0x8055080,%eax
 8049601:	89 c2                	mov    %eax,%edx
 8049603:	a1 44 51 05 08       	mov    0x8055144,%eax
 8049608:	01 d0                	add    %edx,%eax
 804960a:	a3 80 50 05 08       	mov    %eax,0x8055080
 804960f:	a1 7c 50 05 08       	mov    0x805507c,%eax
 8049614:	83 ec 04             	sub    $0x4,%esp
 8049617:	6a 01                	push   $0x1
 8049619:	50                   	push   %eax
 804961a:	68 9c 0c 05 08       	push   $0x8050c9c
 804961f:	e8 36 4e 00 00       	call   804e45a <Syntax_Leaf_New>
 8049624:	83 c4 10             	add    $0x10,%esp
 8049627:	89 45 c8             	mov    %eax,-0x38(%ebp)
 804962a:	8b 45 c8             	mov    -0x38(%ebp),%eax
 804962d:	a3 4c 51 05 08       	mov    %eax,0x805514c
 8049632:	b8 15 01 00 00       	mov    $0x115,%eax
 8049637:	e9 8c 07 00 00       	jmp    8049dc8 <yylex+0x146d>
 804963c:	a1 7c 50 05 08       	mov    0x805507c,%eax
 8049641:	a3 8c 50 05 08       	mov    %eax,0x805508c
 8049646:	a1 8c 50 05 08       	mov    0x805508c,%eax
 804964b:	a3 84 50 05 08       	mov    %eax,0x8055084
 8049650:	a1 80 50 05 08       	mov    0x8055080,%eax
 8049655:	a3 88 50 05 08       	mov    %eax,0x8055088
 804965a:	a1 80 50 05 08       	mov    0x8055080,%eax
 804965f:	89 c2                	mov    %eax,%edx
 8049661:	a1 44 51 05 08       	mov    0x8055144,%eax
 8049666:	01 d0                	add    %edx,%eax
 8049668:	83 e8 01             	sub    $0x1,%eax
 804966b:	a3 90 50 05 08       	mov    %eax,0x8055090
 8049670:	a1 80 50 05 08       	mov    0x8055080,%eax
 8049675:	89 c2                	mov    %eax,%edx
 8049677:	a1 44 51 05 08       	mov    0x8055144,%eax
 804967c:	01 d0                	add    %edx,%eax
 804967e:	a3 80 50 05 08       	mov    %eax,0x8055080
 8049683:	a1 7c 50 05 08       	mov    0x805507c,%eax
 8049688:	83 ec 04             	sub    $0x4,%esp
 804968b:	6a 01                	push   $0x1
 804968d:	50                   	push   %eax
 804968e:	68 a3 0c 05 08       	push   $0x8050ca3
 8049693:	e8 c2 4d 00 00       	call   804e45a <Syntax_Leaf_New>
 8049698:	83 c4 10             	add    $0x10,%esp
 804969b:	89 45 cc             	mov    %eax,-0x34(%ebp)
 804969e:	8b 45 cc             	mov    -0x34(%ebp),%eax
 80496a1:	a3 4c 51 05 08       	mov    %eax,0x805514c
 80496a6:	b8 16 01 00 00       	mov    $0x116,%eax
 80496ab:	e9 18 07 00 00       	jmp    8049dc8 <yylex+0x146d>
 80496b0:	a1 7c 50 05 08       	mov    0x805507c,%eax
 80496b5:	a3 8c 50 05 08       	mov    %eax,0x805508c
 80496ba:	a1 8c 50 05 08       	mov    0x805508c,%eax
 80496bf:	a3 84 50 05 08       	mov    %eax,0x8055084
 80496c4:	a1 80 50 05 08       	mov    0x8055080,%eax
 80496c9:	a3 88 50 05 08       	mov    %eax,0x8055088
 80496ce:	a1 80 50 05 08       	mov    0x8055080,%eax
 80496d3:	89 c2                	mov    %eax,%edx
 80496d5:	a1 44 51 05 08       	mov    0x8055144,%eax
 80496da:	01 d0                	add    %edx,%eax
 80496dc:	83 e8 01             	sub    $0x1,%eax
 80496df:	a3 90 50 05 08       	mov    %eax,0x8055090
 80496e4:	a1 80 50 05 08       	mov    0x8055080,%eax
 80496e9:	89 c2                	mov    %eax,%edx
 80496eb:	a1 44 51 05 08       	mov    0x8055144,%eax
 80496f0:	01 d0                	add    %edx,%eax
 80496f2:	a3 80 50 05 08       	mov    %eax,0x8055080
 80496f7:	a1 7c 50 05 08       	mov    0x805507c,%eax
 80496fc:	83 ec 04             	sub    $0x4,%esp
 80496ff:	6a 01                	push   $0x1
 8049701:	50                   	push   %eax
 8049702:	68 aa 0c 05 08       	push   $0x8050caa
 8049707:	e8 4e 4d 00 00       	call   804e45a <Syntax_Leaf_New>
 804970c:	83 c4 10             	add    $0x10,%esp
 804970f:	89 45 d0             	mov    %eax,-0x30(%ebp)
 8049712:	8b 45 d0             	mov    -0x30(%ebp),%eax
 8049715:	a3 4c 51 05 08       	mov    %eax,0x805514c
 804971a:	b8 17 01 00 00       	mov    $0x117,%eax
 804971f:	e9 a4 06 00 00       	jmp    8049dc8 <yylex+0x146d>
 8049724:	a1 7c 50 05 08       	mov    0x805507c,%eax
 8049729:	a3 8c 50 05 08       	mov    %eax,0x805508c
 804972e:	a1 8c 50 05 08       	mov    0x805508c,%eax
 8049733:	a3 84 50 05 08       	mov    %eax,0x8055084
 8049738:	a1 80 50 05 08       	mov    0x8055080,%eax
 804973d:	a3 88 50 05 08       	mov    %eax,0x8055088
 8049742:	a1 80 50 05 08       	mov    0x8055080,%eax
 8049747:	89 c2                	mov    %eax,%edx
 8049749:	a1 44 51 05 08       	mov    0x8055144,%eax
 804974e:	01 d0                	add    %edx,%eax
 8049750:	83 e8 01             	sub    $0x1,%eax
 8049753:	a3 90 50 05 08       	mov    %eax,0x8055090
 8049758:	a1 80 50 05 08       	mov    0x8055080,%eax
 804975d:	89 c2                	mov    %eax,%edx
 804975f:	a1 44 51 05 08       	mov    0x8055144,%eax
 8049764:	01 d0                	add    %edx,%eax
 8049766:	a3 80 50 05 08       	mov    %eax,0x8055080
 804976b:	a1 7c 50 05 08       	mov    0x805507c,%eax
 8049770:	83 ec 04             	sub    $0x4,%esp
 8049773:	6a 01                	push   $0x1
 8049775:	50                   	push   %eax
 8049776:	68 ad 0c 05 08       	push   $0x8050cad
 804977b:	e8 da 4c 00 00       	call   804e45a <Syntax_Leaf_New>
 8049780:	83 c4 10             	add    $0x10,%esp
 8049783:	89 45 d4             	mov    %eax,-0x2c(%ebp)
 8049786:	8b 45 d4             	mov    -0x2c(%ebp),%eax
 8049789:	a3 4c 51 05 08       	mov    %eax,0x805514c
 804978e:	b8 18 01 00 00       	mov    $0x118,%eax
 8049793:	e9 30 06 00 00       	jmp    8049dc8 <yylex+0x146d>
 8049798:	a1 7c 50 05 08       	mov    0x805507c,%eax
 804979d:	a3 8c 50 05 08       	mov    %eax,0x805508c
 80497a2:	a1 8c 50 05 08       	mov    0x805508c,%eax
 80497a7:	a3 84 50 05 08       	mov    %eax,0x8055084
 80497ac:	a1 80 50 05 08       	mov    0x8055080,%eax
 80497b1:	a3 88 50 05 08       	mov    %eax,0x8055088
 80497b6:	a1 80 50 05 08       	mov    0x8055080,%eax
 80497bb:	89 c2                	mov    %eax,%edx
 80497bd:	a1 44 51 05 08       	mov    0x8055144,%eax
 80497c2:	01 d0                	add    %edx,%eax
 80497c4:	83 e8 01             	sub    $0x1,%eax
 80497c7:	a3 90 50 05 08       	mov    %eax,0x8055090
 80497cc:	a1 80 50 05 08       	mov    0x8055080,%eax
 80497d1:	89 c2                	mov    %eax,%edx
 80497d3:	a1 44 51 05 08       	mov    0x8055144,%eax
 80497d8:	01 d0                	add    %edx,%eax
 80497da:	a3 80 50 05 08       	mov    %eax,0x8055080
 80497df:	a1 7c 50 05 08       	mov    0x805507c,%eax
 80497e4:	83 ec 04             	sub    $0x4,%esp
 80497e7:	6a 01                	push   $0x1
 80497e9:	50                   	push   %eax
 80497ea:	68 b2 0c 05 08       	push   $0x8050cb2
 80497ef:	e8 66 4c 00 00       	call   804e45a <Syntax_Leaf_New>
 80497f4:	83 c4 10             	add    $0x10,%esp
 80497f7:	89 45 d8             	mov    %eax,-0x28(%ebp)
 80497fa:	8b 45 d8             	mov    -0x28(%ebp),%eax
 80497fd:	a3 4c 51 05 08       	mov    %eax,0x805514c
 8049802:	b8 19 01 00 00       	mov    $0x119,%eax
 8049807:	e9 bc 05 00 00       	jmp    8049dc8 <yylex+0x146d>
 804980c:	a1 7c 50 05 08       	mov    0x805507c,%eax
 8049811:	a3 8c 50 05 08       	mov    %eax,0x805508c
 8049816:	a1 8c 50 05 08       	mov    0x805508c,%eax
 804981b:	a3 84 50 05 08       	mov    %eax,0x8055084
 8049820:	a1 80 50 05 08       	mov    0x8055080,%eax
 8049825:	a3 88 50 05 08       	mov    %eax,0x8055088
 804982a:	a1 80 50 05 08       	mov    0x8055080,%eax
 804982f:	89 c2                	mov    %eax,%edx
 8049831:	a1 44 51 05 08       	mov    0x8055144,%eax
 8049836:	01 d0                	add    %edx,%eax
 8049838:	83 e8 01             	sub    $0x1,%eax
 804983b:	a3 90 50 05 08       	mov    %eax,0x8055090
 8049840:	a1 80 50 05 08       	mov    0x8055080,%eax
 8049845:	89 c2                	mov    %eax,%edx
 8049847:	a1 44 51 05 08       	mov    0x8055144,%eax
 804984c:	01 d0                	add    %edx,%eax
 804984e:	a3 80 50 05 08       	mov    %eax,0x8055080
 8049853:	a1 7c 50 05 08       	mov    0x805507c,%eax
 8049858:	83 ec 04             	sub    $0x4,%esp
 804985b:	6a 04                	push   $0x4
 804985d:	50                   	push   %eax
 804985e:	68 b8 0c 05 08       	push   $0x8050cb8
 8049863:	e8 f2 4b 00 00       	call   804e45a <Syntax_Leaf_New>
 8049868:	83 c4 10             	add    $0x10,%esp
 804986b:	89 45 dc             	mov    %eax,-0x24(%ebp)
 804986e:	a1 3c 51 05 08       	mov    0x805513c,%eax
 8049873:	8b 55 dc             	mov    -0x24(%ebp),%edx
 8049876:	83 c2 30             	add    $0x30,%edx
 8049879:	83 ec 08             	sub    $0x8,%esp
 804987c:	50                   	push   %eax
 804987d:	52                   	push   %edx
 804987e:	e8 cd ee ff ff       	call   8048750 <strcpy@plt>
 8049883:	83 c4 10             	add    $0x10,%esp
 8049886:	8b 45 dc             	mov    -0x24(%ebp),%eax
 8049889:	a3 4c 51 05 08       	mov    %eax,0x805514c
 804988e:	b8 1b 01 00 00       	mov    $0x11b,%eax
 8049893:	e9 30 05 00 00       	jmp    8049dc8 <yylex+0x146d>
 8049898:	a1 7c 50 05 08       	mov    0x805507c,%eax
 804989d:	a3 8c 50 05 08       	mov    %eax,0x805508c
 80498a2:	a1 8c 50 05 08       	mov    0x805508c,%eax
 80498a7:	a3 84 50 05 08       	mov    %eax,0x8055084
 80498ac:	a1 80 50 05 08       	mov    0x8055080,%eax
 80498b1:	a3 88 50 05 08       	mov    %eax,0x8055088
 80498b6:	a1 80 50 05 08       	mov    0x8055080,%eax
 80498bb:	89 c2                	mov    %eax,%edx
 80498bd:	a1 44 51 05 08       	mov    0x8055144,%eax
 80498c2:	01 d0                	add    %edx,%eax
 80498c4:	83 e8 01             	sub    $0x1,%eax
 80498c7:	a3 90 50 05 08       	mov    %eax,0x8055090
 80498cc:	a1 80 50 05 08       	mov    0x8055080,%eax
 80498d1:	89 c2                	mov    %eax,%edx
 80498d3:	a1 44 51 05 08       	mov    0x8055144,%eax
 80498d8:	01 d0                	add    %edx,%eax
 80498da:	a3 80 50 05 08       	mov    %eax,0x8055080
 80498df:	a1 7c 50 05 08       	mov    0x805507c,%eax
 80498e4:	83 ec 04             	sub    $0x4,%esp
 80498e7:	6a 05                	push   $0x5
 80498e9:	50                   	push   %eax
 80498ea:	68 bc 0c 05 08       	push   $0x8050cbc
 80498ef:	e8 66 4b 00 00       	call   804e45a <Syntax_Leaf_New>
 80498f4:	83 c4 10             	add    $0x10,%esp
 80498f7:	89 45 e0             	mov    %eax,-0x20(%ebp)
 80498fa:	a1 3c 51 05 08       	mov    0x805513c,%eax
 80498ff:	8b 55 e0             	mov    -0x20(%ebp),%edx
 8049902:	83 c2 30             	add    $0x30,%edx
 8049905:	83 ec 08             	sub    $0x8,%esp
 8049908:	50                   	push   %eax
 8049909:	52                   	push   %edx
 804990a:	e8 41 ee ff ff       	call   8048750 <strcpy@plt>
 804990f:	83 c4 10             	add    $0x10,%esp
 8049912:	8b 45 e0             	mov    -0x20(%ebp),%eax
 8049915:	a3 4c 51 05 08       	mov    %eax,0x805514c
 804991a:	b8 1c 01 00 00       	mov    $0x11c,%eax
 804991f:	e9 a4 04 00 00       	jmp    8049dc8 <yylex+0x146d>
 8049924:	a1 7c 50 05 08       	mov    0x805507c,%eax
 8049929:	a3 8c 50 05 08       	mov    %eax,0x805508c
 804992e:	a1 8c 50 05 08       	mov    0x805508c,%eax
 8049933:	a3 84 50 05 08       	mov    %eax,0x8055084
 8049938:	a1 80 50 05 08       	mov    0x8055080,%eax
 804993d:	a3 88 50 05 08       	mov    %eax,0x8055088
 8049942:	a1 80 50 05 08       	mov    0x8055080,%eax
 8049947:	89 c2                	mov    %eax,%edx
 8049949:	a1 44 51 05 08       	mov    0x8055144,%eax
 804994e:	01 d0                	add    %edx,%eax
 8049950:	83 e8 01             	sub    $0x1,%eax
 8049953:	a3 90 50 05 08       	mov    %eax,0x8055090
 8049958:	a1 80 50 05 08       	mov    0x8055080,%eax
 804995d:	89 c2                	mov    %eax,%edx
 804995f:	a1 44 51 05 08       	mov    0x8055144,%eax
 8049964:	01 d0                	add    %edx,%eax
 8049966:	a3 80 50 05 08       	mov    %eax,0x8055080
 804996b:	a1 7c 50 05 08       	mov    0x805507c,%eax
 8049970:	83 ec 04             	sub    $0x4,%esp
 8049973:	6a 02                	push   $0x2
 8049975:	50                   	push   %eax
 8049976:	68 c2 0c 05 08       	push   $0x8050cc2
 804997b:	e8 da 4a 00 00       	call   804e45a <Syntax_Leaf_New>
 8049980:	83 c4 10             	add    $0x10,%esp
 8049983:	89 45 e4             	mov    %eax,-0x1c(%ebp)
 8049986:	a1 3c 51 05 08       	mov    0x805513c,%eax
 804998b:	8b 55 e4             	mov    -0x1c(%ebp),%edx
 804998e:	83 c2 30             	add    $0x30,%edx
 8049991:	83 ec 08             	sub    $0x8,%esp
 8049994:	50                   	push   %eax
 8049995:	52                   	push   %edx
 8049996:	e8 b5 ed ff ff       	call   8048750 <strcpy@plt>
 804999b:	83 c4 10             	add    $0x10,%esp
 804999e:	8b 45 e4             	mov    -0x1c(%ebp),%eax
 80499a1:	a3 4c 51 05 08       	mov    %eax,0x805514c
 80499a6:	b8 1a 01 00 00       	mov    $0x11a,%eax
 80499ab:	e9 18 04 00 00       	jmp    8049dc8 <yylex+0x146d>
 80499b0:	a1 7c 50 05 08       	mov    0x805507c,%eax
 80499b5:	a3 8c 50 05 08       	mov    %eax,0x805508c
 80499ba:	a1 8c 50 05 08       	mov    0x805508c,%eax
 80499bf:	a3 84 50 05 08       	mov    %eax,0x8055084
 80499c4:	a1 80 50 05 08       	mov    0x8055080,%eax
 80499c9:	a3 88 50 05 08       	mov    %eax,0x8055088
 80499ce:	a1 80 50 05 08       	mov    0x8055080,%eax
 80499d3:	89 c2                	mov    %eax,%edx
 80499d5:	a1 44 51 05 08       	mov    0x8055144,%eax
 80499da:	01 d0                	add    %edx,%eax
 80499dc:	83 e8 01             	sub    $0x1,%eax
 80499df:	a3 90 50 05 08       	mov    %eax,0x8055090
 80499e4:	a1 80 50 05 08       	mov    0x8055080,%eax
 80499e9:	89 c2                	mov    %eax,%edx
 80499eb:	a1 44 51 05 08       	mov    0x8055144,%eax
 80499f0:	01 d0                	add    %edx,%eax
 80499f2:	a3 80 50 05 08       	mov    %eax,0x8055080
 80499f7:	e9 c7 03 00 00       	jmp    8049dc3 <yylex+0x1468>
 80499fc:	a1 7c 50 05 08       	mov    0x805507c,%eax
 8049a01:	a3 8c 50 05 08       	mov    %eax,0x805508c
 8049a06:	a1 8c 50 05 08       	mov    0x805508c,%eax
 8049a0b:	a3 84 50 05 08       	mov    %eax,0x8055084
 8049a10:	a1 80 50 05 08       	mov    0x8055080,%eax
 8049a15:	a3 88 50 05 08       	mov    %eax,0x8055088
 8049a1a:	a1 80 50 05 08       	mov    0x8055080,%eax
 8049a1f:	89 c2                	mov    %eax,%edx
 8049a21:	a1 44 51 05 08       	mov    0x8055144,%eax
 8049a26:	01 d0                	add    %edx,%eax
 8049a28:	83 e8 01             	sub    $0x1,%eax
 8049a2b:	a3 90 50 05 08       	mov    %eax,0x8055090
 8049a30:	a1 80 50 05 08       	mov    0x8055080,%eax
 8049a35:	89 c2                	mov    %eax,%edx
 8049a37:	a1 44 51 05 08       	mov    0x8055144,%eax
 8049a3c:	01 d0                	add    %edx,%eax
 8049a3e:	a3 80 50 05 08       	mov    %eax,0x8055080
 8049a43:	c7 05 80 50 05 08 01 	movl   $0x1,0x8055080
 8049a4a:	00 00 00 
 8049a4d:	e9 71 03 00 00       	jmp    8049dc3 <yylex+0x1468>
 8049a52:	a1 7c 50 05 08       	mov    0x805507c,%eax
 8049a57:	a3 8c 50 05 08       	mov    %eax,0x805508c
 8049a5c:	a1 8c 50 05 08       	mov    0x805508c,%eax
 8049a61:	a3 84 50 05 08       	mov    %eax,0x8055084
 8049a66:	a1 80 50 05 08       	mov    0x8055080,%eax
 8049a6b:	a3 88 50 05 08       	mov    %eax,0x8055088
 8049a70:	a1 80 50 05 08       	mov    0x8055080,%eax
 8049a75:	89 c2                	mov    %eax,%edx
 8049a77:	a1 44 51 05 08       	mov    0x8055144,%eax
 8049a7c:	01 d0                	add    %edx,%eax
 8049a7e:	83 e8 01             	sub    $0x1,%eax
 8049a81:	a3 90 50 05 08       	mov    %eax,0x8055090
 8049a86:	a1 80 50 05 08       	mov    0x8055080,%eax
 8049a8b:	89 c2                	mov    %eax,%edx
 8049a8d:	a1 44 51 05 08       	mov    0x8055144,%eax
 8049a92:	01 d0                	add    %edx,%eax
 8049a94:	a3 80 50 05 08       	mov    %eax,0x8055080
 8049a99:	a1 3c 51 05 08       	mov    0x805513c,%eax
 8049a9e:	83 c0 04             	add    $0x4,%eax
 8049aa1:	0f b6 00             	movzbl (%eax),%eax
 8049aa4:	0f be c0             	movsbl %al,%eax
 8049aa7:	89 85 54 ff ff ff    	mov    %eax,-0xac(%ebp)
 8049aad:	a1 3c 51 05 08       	mov    0x805513c,%eax
 8049ab2:	83 c0 03             	add    $0x3,%eax
 8049ab5:	0f b6 00             	movzbl (%eax),%eax
 8049ab8:	0f be f8             	movsbl %al,%edi
 8049abb:	a1 3c 51 05 08       	mov    0x805513c,%eax
 8049ac0:	83 c0 02             	add    $0x2,%eax
 8049ac3:	0f b6 00             	movzbl (%eax),%eax
 8049ac6:	0f be f0             	movsbl %al,%esi
 8049ac9:	a1 3c 51 05 08       	mov    0x805513c,%eax
 8049ace:	83 c0 01             	add    $0x1,%eax
 8049ad1:	0f b6 00             	movzbl (%eax),%eax
 8049ad4:	0f be d8             	movsbl %al,%ebx
 8049ad7:	a1 3c 51 05 08       	mov    0x805513c,%eax
 8049adc:	0f b6 00             	movzbl (%eax),%eax
 8049adf:	0f be c8             	movsbl %al,%ecx
 8049ae2:	8b 15 3c 51 05 08    	mov    0x805513c,%edx
 8049ae8:	a1 7c 50 05 08       	mov    0x805507c,%eax
 8049aed:	ff b5 54 ff ff ff    	pushl  -0xac(%ebp)
 8049af3:	57                   	push   %edi
 8049af4:	56                   	push   %esi
 8049af5:	53                   	push   %ebx
 8049af6:	51                   	push   %ecx
 8049af7:	52                   	push   %edx
 8049af8:	50                   	push   %eax
 8049af9:	68 c8 0c 05 08       	push   $0x8050cc8
 8049afe:	e8 bd eb ff ff       	call   80486c0 <printf@plt>
 8049b03:	83 c4 20             	add    $0x20,%esp
 8049b06:	e9 b8 02 00 00       	jmp    8049dc3 <yylex+0x1468>
 8049b0b:	a1 7c 50 05 08       	mov    0x805507c,%eax
 8049b10:	a3 8c 50 05 08       	mov    %eax,0x805508c
 8049b15:	a1 8c 50 05 08       	mov    0x805508c,%eax
 8049b1a:	a3 84 50 05 08       	mov    %eax,0x8055084
 8049b1f:	a1 80 50 05 08       	mov    0x8055080,%eax
 8049b24:	a3 88 50 05 08       	mov    %eax,0x8055088
 8049b29:	a1 80 50 05 08       	mov    0x8055080,%eax
 8049b2e:	89 c2                	mov    %eax,%edx
 8049b30:	a1 44 51 05 08       	mov    0x8055144,%eax
 8049b35:	01 d0                	add    %edx,%eax
 8049b37:	83 e8 01             	sub    $0x1,%eax
 8049b3a:	a3 90 50 05 08       	mov    %eax,0x8055090
 8049b3f:	a1 80 50 05 08       	mov    0x8055080,%eax
 8049b44:	89 c2                	mov    %eax,%edx
 8049b46:	a1 44 51 05 08       	mov    0x8055144,%eax
 8049b4b:	01 d0                	add    %edx,%eax
 8049b4d:	a3 80 50 05 08       	mov    %eax,0x8055080
 8049b52:	8b 0d f0 50 05 08    	mov    0x80550f0,%ecx
 8049b58:	8b 15 44 51 05 08    	mov    0x8055144,%edx
 8049b5e:	a1 3c 51 05 08       	mov    0x805513c,%eax
 8049b63:	51                   	push   %ecx
 8049b64:	6a 01                	push   $0x1
 8049b66:	52                   	push   %edx
 8049b67:	50                   	push   %eax
 8049b68:	e8 c3 eb ff ff       	call   8048730 <fwrite@plt>
 8049b6d:	83 c4 10             	add    $0x10,%esp
 8049b70:	e9 4e 02 00 00       	jmp    8049dc3 <yylex+0x1468>
 8049b75:	b8 00 00 00 00       	mov    $0x0,%eax
 8049b7a:	e9 49 02 00 00       	jmp    8049dc8 <yylex+0x146d>
 8049b7f:	8b 85 64 ff ff ff    	mov    -0x9c(%ebp),%eax
 8049b85:	8b 15 3c 51 05 08    	mov    0x805513c,%edx
 8049b8b:	29 d0                	sub    %edx,%eax
 8049b8d:	83 e8 01             	sub    $0x1,%eax
 8049b90:	89 85 74 ff ff ff    	mov    %eax,-0x8c(%ebp)
 8049b96:	0f b6 15 04 51 05 08 	movzbl 0x8055104,%edx
 8049b9d:	8b 85 64 ff ff ff    	mov    -0x9c(%ebp),%eax
 8049ba3:	88 10                	mov    %dl,(%eax)
 8049ba5:	a1 00 51 05 08       	mov    0x8055100,%eax
 8049baa:	8b 15 f8 50 05 08    	mov    0x80550f8,%edx
 8049bb0:	c1 e2 02             	shl    $0x2,%edx
 8049bb3:	01 d0                	add    %edx,%eax
 8049bb5:	8b 00                	mov    (%eax),%eax
 8049bb7:	8b 40 2c             	mov    0x2c(%eax),%eax
 8049bba:	85 c0                	test   %eax,%eax
 8049bbc:	75 4d                	jne    8049c0b <yylex+0x12b0>
 8049bbe:	a1 00 51 05 08       	mov    0x8055100,%eax
 8049bc3:	8b 15 f8 50 05 08    	mov    0x80550f8,%edx
 8049bc9:	c1 e2 02             	shl    $0x2,%edx
 8049bcc:	01 d0                	add    %edx,%eax
 8049bce:	8b 00                	mov    (%eax),%eax
 8049bd0:	8b 40 10             	mov    0x10(%eax),%eax
 8049bd3:	a3 08 51 05 08       	mov    %eax,0x8055108
 8049bd8:	a1 00 51 05 08       	mov    0x8055100,%eax
 8049bdd:	8b 15 f8 50 05 08    	mov    0x80550f8,%edx
 8049be3:	c1 e2 02             	shl    $0x2,%edx
 8049be6:	01 d0                	add    %edx,%eax
 8049be8:	8b 00                	mov    (%eax),%eax
 8049bea:	8b 15 ec 50 05 08    	mov    0x80550ec,%edx
 8049bf0:	89 10                	mov    %edx,(%eax)
 8049bf2:	a1 00 51 05 08       	mov    0x8055100,%eax
 8049bf7:	8b 15 f8 50 05 08    	mov    0x80550f8,%edx
 8049bfd:	c1 e2 02             	shl    $0x2,%edx
 8049c00:	01 d0                	add    %edx,%eax
 8049c02:	8b 00                	mov    (%eax),%eax
 8049c04:	c7 40 2c 01 00 00 00 	movl   $0x1,0x2c(%eax)
 8049c0b:	a1 00 51 05 08       	mov    0x8055100,%eax
 8049c10:	8b 15 f8 50 05 08    	mov    0x80550f8,%edx
 8049c16:	c1 e2 02             	shl    $0x2,%edx
 8049c19:	01 d0                	add    %edx,%eax
 8049c1b:	8b 00                	mov    (%eax),%eax
 8049c1d:	8b 40 04             	mov    0x4(%eax),%eax
 8049c20:	8b 15 08 51 05 08    	mov    0x8055108,%edx
 8049c26:	01 c2                	add    %eax,%edx
 8049c28:	a1 0c 51 05 08       	mov    0x805510c,%eax
 8049c2d:	39 c2                	cmp    %eax,%edx
 8049c2f:	0f 82 82 00 00 00    	jb     8049cb7 <yylex+0x135c>
 8049c35:	8b 15 3c 51 05 08    	mov    0x805513c,%edx
 8049c3b:	8b 85 74 ff ff ff    	mov    -0x8c(%ebp),%eax
 8049c41:	01 d0                	add    %edx,%eax
 8049c43:	a3 0c 51 05 08       	mov    %eax,0x805510c
 8049c48:	e8 c1 06 00 00       	call   804a30e <yy_get_previous_state>
 8049c4d:	89 85 60 ff ff ff    	mov    %eax,-0xa0(%ebp)
 8049c53:	83 ec 0c             	sub    $0xc,%esp
 8049c56:	ff b5 60 ff ff ff    	pushl  -0xa0(%ebp)
 8049c5c:	e8 8c 07 00 00       	call   804a3ed <yy_try_NUL_trans>
 8049c61:	83 c4 10             	add    $0x10,%esp
 8049c64:	89 85 78 ff ff ff    	mov    %eax,-0x88(%ebp)
 8049c6a:	a1 3c 51 05 08       	mov    0x805513c,%eax
 8049c6f:	89 85 68 ff ff ff    	mov    %eax,-0x98(%ebp)
 8049c75:	83 bd 78 ff ff ff 00 	cmpl   $0x0,-0x88(%ebp)
 8049c7c:	74 29                	je     8049ca7 <yylex+0x134c>
 8049c7e:	a1 0c 51 05 08       	mov    0x805510c,%eax
 8049c83:	83 c0 01             	add    $0x1,%eax
 8049c86:	a3 0c 51 05 08       	mov    %eax,0x805510c
 8049c8b:	a1 0c 51 05 08       	mov    0x805510c,%eax
 8049c90:	89 85 64 ff ff ff    	mov    %eax,-0x9c(%ebp)
 8049c96:	8b 85 78 ff ff ff    	mov    -0x88(%ebp),%eax
 8049c9c:	89 85 60 ff ff ff    	mov    %eax,-0xa0(%ebp)
 8049ca2:	e9 93 ed ff ff       	jmp    8048a3a <yylex+0xdf>
 8049ca7:	a1 0c 51 05 08       	mov    0x805510c,%eax
 8049cac:	89 85 64 ff ff ff    	mov    %eax,-0x9c(%ebp)
 8049cb2:	e9 6e ee ff ff       	jmp    8048b25 <yylex+0x1ca>
 8049cb7:	e8 14 01 00 00       	call   8049dd0 <yy_get_next_buffer>
 8049cbc:	83 f8 01             	cmp    $0x1,%eax
 8049cbf:	74 12                	je     8049cd3 <yylex+0x1378>
 8049cc1:	83 f8 02             	cmp    $0x2,%eax
 8049cc4:	0f 84 a1 00 00 00    	je     8049d6b <yylex+0x1410>
 8049cca:	85 c0                	test   %eax,%eax
 8049ccc:	74 64                	je     8049d32 <yylex+0x13d7>
 8049cce:	e9 f0 00 00 00       	jmp    8049dc3 <yylex+0x1468>
 8049cd3:	c7 05 18 51 05 08 00 	movl   $0x0,0x8055118
 8049cda:	00 00 00 
 8049cdd:	e8 7e 68 00 00       	call   8050560 <yywrap>
 8049ce2:	85 c0                	test   %eax,%eax
 8049ce4:	74 29                	je     8049d0f <yylex+0x13b4>
 8049ce6:	a1 3c 51 05 08       	mov    0x805513c,%eax
 8049ceb:	a3 0c 51 05 08       	mov    %eax,0x805510c
 8049cf0:	a1 14 51 05 08       	mov    0x8055114,%eax
 8049cf5:	83 e8 01             	sub    $0x1,%eax
 8049cf8:	89 c2                	mov    %eax,%edx
 8049cfa:	c1 ea 1f             	shr    $0x1f,%edx
 8049cfd:	01 d0                	add    %edx,%eax
 8049cff:	d1 f8                	sar    %eax
 8049d01:	83 c0 23             	add    $0x23,%eax
 8049d04:	89 85 6c ff ff ff    	mov    %eax,-0x94(%ebp)
 8049d0a:	e9 fd ee ff ff       	jmp    8048c0c <yylex+0x2b1>
 8049d0f:	a1 18 51 05 08       	mov    0x8055118,%eax
 8049d14:	85 c0                	test   %eax,%eax
 8049d16:	0f 85 97 00 00 00    	jne    8049db3 <yylex+0x1458>
 8049d1c:	a1 ec 50 05 08       	mov    0x80550ec,%eax
 8049d21:	83 ec 0c             	sub    $0xc,%esp
 8049d24:	50                   	push   %eax
 8049d25:	e8 22 0a 00 00       	call   804a74c <yyrestart>
 8049d2a:	83 c4 10             	add    $0x10,%esp
 8049d2d:	e9 81 00 00 00       	jmp    8049db3 <yylex+0x1458>
 8049d32:	8b 15 3c 51 05 08    	mov    0x805513c,%edx
 8049d38:	8b 85 74 ff ff ff    	mov    -0x8c(%ebp),%eax
 8049d3e:	01 d0                	add    %edx,%eax
 8049d40:	a3 0c 51 05 08       	mov    %eax,0x805510c
 8049d45:	e8 c4 05 00 00       	call   804a30e <yy_get_previous_state>
 8049d4a:	89 85 60 ff ff ff    	mov    %eax,-0xa0(%ebp)
 8049d50:	a1 0c 51 05 08       	mov    0x805510c,%eax
 8049d55:	89 85 64 ff ff ff    	mov    %eax,-0x9c(%ebp)
 8049d5b:	a1 3c 51 05 08       	mov    0x805513c,%eax
 8049d60:	89 85 68 ff ff ff    	mov    %eax,-0x98(%ebp)
 8049d66:	e9 cf ec ff ff       	jmp    8048a3a <yylex+0xdf>
 8049d6b:	a1 00 51 05 08       	mov    0x8055100,%eax
 8049d70:	8b 15 f8 50 05 08    	mov    0x80550f8,%edx
 8049d76:	c1 e2 02             	shl    $0x2,%edx
 8049d79:	01 d0                	add    %edx,%eax
 8049d7b:	8b 00                	mov    (%eax),%eax
 8049d7d:	8b 40 04             	mov    0x4(%eax),%eax
 8049d80:	8b 15 08 51 05 08    	mov    0x8055108,%edx
 8049d86:	01 d0                	add    %edx,%eax
 8049d88:	a3 0c 51 05 08       	mov    %eax,0x805510c
 8049d8d:	e8 7c 05 00 00       	call   804a30e <yy_get_previous_state>
 8049d92:	89 85 60 ff ff ff    	mov    %eax,-0xa0(%ebp)
 8049d98:	a1 0c 51 05 08       	mov    0x805510c,%eax
 8049d9d:	89 85 64 ff ff ff    	mov    %eax,-0x9c(%ebp)
 8049da3:	a1 3c 51 05 08       	mov    0x805513c,%eax
 8049da8:	89 85 68 ff ff ff    	mov    %eax,-0x98(%ebp)
 8049dae:	e9 72 ed ff ff       	jmp    8048b25 <yylex+0x1ca>
 8049db3:	90                   	nop
 8049db4:	eb 0d                	jmp    8049dc3 <yylex+0x1468>
 8049db6:	83 ec 0c             	sub    $0xc,%esp
 8049db9:	68 24 0d 05 08       	push   $0x8050d24
 8049dbe:	e8 a8 11 00 00       	call   804af6b <yy_fatal_error>
 8049dc3:	e9 41 ec ff ff       	jmp    8048a09 <yylex+0xae>
 8049dc8:	8d 65 f4             	lea    -0xc(%ebp),%esp
 8049dcb:	5b                   	pop    %ebx
 8049dcc:	5e                   	pop    %esi
 8049dcd:	5f                   	pop    %edi
 8049dce:	5d                   	pop    %ebp
 8049dcf:	c3                   	ret    

08049dd0 <yy_get_next_buffer>:
 8049dd0:	55                   	push   %ebp
 8049dd1:	89 e5                	mov    %esp,%ebp
 8049dd3:	53                   	push   %ebx
 8049dd4:	83 ec 34             	sub    $0x34,%esp
 8049dd7:	a1 00 51 05 08       	mov    0x8055100,%eax
 8049ddc:	8b 15 f8 50 05 08    	mov    0x80550f8,%edx
 8049de2:	c1 e2 02             	shl    $0x2,%edx
 8049de5:	01 d0                	add    %edx,%eax
 8049de7:	8b 00                	mov    (%eax),%eax
 8049de9:	8b 40 04             	mov    0x4(%eax),%eax
 8049dec:	89 45 c8             	mov    %eax,-0x38(%ebp)
 8049def:	a1 3c 51 05 08       	mov    0x805513c,%eax
 8049df4:	89 45 cc             	mov    %eax,-0x34(%ebp)
 8049df7:	a1 00 51 05 08       	mov    0x8055100,%eax
 8049dfc:	8b 15 f8 50 05 08    	mov    0x80550f8,%edx
 8049e02:	c1 e2 02             	shl    $0x2,%edx
 8049e05:	01 d0                	add    %edx,%eax
 8049e07:	8b 00                	mov    (%eax),%eax
 8049e09:	8b 40 04             	mov    0x4(%eax),%eax
 8049e0c:	8b 15 08 51 05 08    	mov    0x8055108,%edx
 8049e12:	83 c2 01             	add    $0x1,%edx
 8049e15:	01 c2                	add    %eax,%edx
 8049e17:	a1 0c 51 05 08       	mov    0x805510c,%eax
 8049e1c:	39 c2                	cmp    %eax,%edx
 8049e1e:	73 0d                	jae    8049e2d <yy_get_next_buffer+0x5d>
 8049e20:	83 ec 0c             	sub    $0xc,%esp
 8049e23:	68 e8 0d 05 08       	push   $0x8050de8
 8049e28:	e8 3e 11 00 00       	call   804af6b <yy_fatal_error>
 8049e2d:	a1 00 51 05 08       	mov    0x8055100,%eax
 8049e32:	8b 15 f8 50 05 08    	mov    0x80550f8,%edx
 8049e38:	c1 e2 02             	shl    $0x2,%edx
 8049e3b:	01 d0                	add    %edx,%eax
 8049e3d:	8b 00                	mov    (%eax),%eax
 8049e3f:	8b 40 28             	mov    0x28(%eax),%eax
 8049e42:	85 c0                	test   %eax,%eax
 8049e44:	75 29                	jne    8049e6f <yy_get_next_buffer+0x9f>
 8049e46:	a1 0c 51 05 08       	mov    0x805510c,%eax
 8049e4b:	89 c2                	mov    %eax,%edx
 8049e4d:	a1 3c 51 05 08       	mov    0x805513c,%eax
 8049e52:	29 c2                	sub    %eax,%edx
 8049e54:	89 d0                	mov    %edx,%eax
 8049e56:	83 f8 01             	cmp    $0x1,%eax
 8049e59:	75 0a                	jne    8049e65 <yy_get_next_buffer+0x95>
 8049e5b:	b8 01 00 00 00       	mov    $0x1,%eax
 8049e60:	e9 a4 04 00 00       	jmp    804a309 <yy_get_next_buffer+0x539>
 8049e65:	b8 02 00 00 00       	mov    $0x2,%eax
 8049e6a:	e9 9a 04 00 00       	jmp    804a309 <yy_get_next_buffer+0x539>
 8049e6f:	a1 0c 51 05 08       	mov    0x805510c,%eax
 8049e74:	89 c2                	mov    %eax,%edx
 8049e76:	a1 3c 51 05 08       	mov    0x805513c,%eax
 8049e7b:	29 c2                	sub    %eax,%edx
 8049e7d:	89 d0                	mov    %edx,%eax
 8049e7f:	83 e8 01             	sub    $0x1,%eax
 8049e82:	89 45 e4             	mov    %eax,-0x1c(%ebp)
 8049e85:	c7 45 d0 00 00 00 00 	movl   $0x0,-0x30(%ebp)
 8049e8c:	eb 1b                	jmp    8049ea9 <yy_get_next_buffer+0xd9>
 8049e8e:	8b 45 c8             	mov    -0x38(%ebp),%eax
 8049e91:	8d 50 01             	lea    0x1(%eax),%edx
 8049e94:	89 55 c8             	mov    %edx,-0x38(%ebp)
 8049e97:	8b 55 cc             	mov    -0x34(%ebp),%edx
 8049e9a:	8d 4a 01             	lea    0x1(%edx),%ecx
 8049e9d:	89 4d cc             	mov    %ecx,-0x34(%ebp)
 8049ea0:	0f b6 12             	movzbl (%edx),%edx
 8049ea3:	88 10                	mov    %dl,(%eax)
 8049ea5:	83 45 d0 01          	addl   $0x1,-0x30(%ebp)
 8049ea9:	8b 45 d0             	mov    -0x30(%ebp),%eax
 8049eac:	3b 45 e4             	cmp    -0x1c(%ebp),%eax
 8049eaf:	72 dd                	jb     8049e8e <yy_get_next_buffer+0xbe>
 8049eb1:	a1 00 51 05 08       	mov    0x8055100,%eax
 8049eb6:	8b 15 f8 50 05 08    	mov    0x80550f8,%edx
 8049ebc:	c1 e2 02             	shl    $0x2,%edx
 8049ebf:	01 d0                	add    %edx,%eax
 8049ec1:	8b 00                	mov    (%eax),%eax
 8049ec3:	8b 40 2c             	mov    0x2c(%eax),%eax
 8049ec6:	83 f8 02             	cmp    $0x2,%eax
 8049ec9:	75 2a                	jne    8049ef5 <yy_get_next_buffer+0x125>
 8049ecb:	a1 00 51 05 08       	mov    0x8055100,%eax
 8049ed0:	8b 15 f8 50 05 08    	mov    0x80550f8,%edx
 8049ed6:	c1 e2 02             	shl    $0x2,%edx
 8049ed9:	01 d0                	add    %edx,%eax
 8049edb:	8b 00                	mov    (%eax),%eax
 8049edd:	c7 05 08 51 05 08 00 	movl   $0x0,0x8055108
 8049ee4:	00 00 00 
 8049ee7:	8b 15 08 51 05 08    	mov    0x8055108,%edx
 8049eed:	89 50 10             	mov    %edx,0x10(%eax)
 8049ef0:	e9 b3 02 00 00       	jmp    804a1a8 <yy_get_next_buffer+0x3d8>
 8049ef5:	a1 00 51 05 08       	mov    0x8055100,%eax
 8049efa:	8b 15 f8 50 05 08    	mov    0x80550f8,%edx
 8049f00:	c1 e2 02             	shl    $0x2,%edx
 8049f03:	01 d0                	add    %edx,%eax
 8049f05:	8b 00                	mov    (%eax),%eax
 8049f07:	8b 40 0c             	mov    0xc(%eax),%eax
 8049f0a:	2b 45 e4             	sub    -0x1c(%ebp),%eax
 8049f0d:	83 e8 01             	sub    $0x1,%eax
 8049f10:	89 45 d8             	mov    %eax,-0x28(%ebp)
 8049f13:	e9 e1 00 00 00       	jmp    8049ff9 <yy_get_next_buffer+0x229>
 8049f18:	a1 00 51 05 08       	mov    0x8055100,%eax
 8049f1d:	8b 15 f8 50 05 08    	mov    0x80550f8,%edx
 8049f23:	c1 e2 02             	shl    $0x2,%edx
 8049f26:	01 d0                	add    %edx,%eax
 8049f28:	8b 00                	mov    (%eax),%eax
 8049f2a:	89 45 e8             	mov    %eax,-0x18(%ebp)
 8049f2d:	a1 0c 51 05 08       	mov    0x805510c,%eax
 8049f32:	89 c2                	mov    %eax,%edx
 8049f34:	8b 45 e8             	mov    -0x18(%ebp),%eax
 8049f37:	8b 40 04             	mov    0x4(%eax),%eax
 8049f3a:	29 c2                	sub    %eax,%edx
 8049f3c:	89 d0                	mov    %edx,%eax
 8049f3e:	89 45 ec             	mov    %eax,-0x14(%ebp)
 8049f41:	8b 45 e8             	mov    -0x18(%ebp),%eax
 8049f44:	8b 40 14             	mov    0x14(%eax),%eax
 8049f47:	85 c0                	test   %eax,%eax
 8049f49:	74 5f                	je     8049faa <yy_get_next_buffer+0x1da>
 8049f4b:	8b 45 e8             	mov    -0x18(%ebp),%eax
 8049f4e:	8b 40 0c             	mov    0xc(%eax),%eax
 8049f51:	01 c0                	add    %eax,%eax
 8049f53:	89 45 f0             	mov    %eax,-0x10(%ebp)
 8049f56:	83 7d f0 00          	cmpl   $0x0,-0x10(%ebp)
 8049f5a:	75 19                	jne    8049f75 <yy_get_next_buffer+0x1a5>
 8049f5c:	8b 45 e8             	mov    -0x18(%ebp),%eax
 8049f5f:	8b 50 0c             	mov    0xc(%eax),%edx
 8049f62:	8b 45 e8             	mov    -0x18(%ebp),%eax
 8049f65:	8b 40 0c             	mov    0xc(%eax),%eax
 8049f68:	c1 e8 03             	shr    $0x3,%eax
 8049f6b:	01 c2                	add    %eax,%edx
 8049f6d:	8b 45 e8             	mov    -0x18(%ebp),%eax
 8049f70:	89 50 0c             	mov    %edx,0xc(%eax)
 8049f73:	eb 0f                	jmp    8049f84 <yy_get_next_buffer+0x1b4>
 8049f75:	8b 45 e8             	mov    -0x18(%ebp),%eax
 8049f78:	8b 40 0c             	mov    0xc(%eax),%eax
 8049f7b:	8d 14 00             	lea    (%eax,%eax,1),%edx
 8049f7e:	8b 45 e8             	mov    -0x18(%ebp),%eax
 8049f81:	89 50 0c             	mov    %edx,0xc(%eax)
 8049f84:	8b 45 e8             	mov    -0x18(%ebp),%eax
 8049f87:	8b 40 0c             	mov    0xc(%eax),%eax
 8049f8a:	8d 50 02             	lea    0x2(%eax),%edx
 8049f8d:	8b 45 e8             	mov    -0x18(%ebp),%eax
 8049f90:	8b 40 04             	mov    0x4(%eax),%eax
 8049f93:	83 ec 08             	sub    $0x8,%esp
 8049f96:	52                   	push   %edx
 8049f97:	50                   	push   %eax
 8049f98:	e8 7c 11 00 00       	call   804b119 <yyrealloc>
 8049f9d:	83 c4 10             	add    $0x10,%esp
 8049fa0:	89 c2                	mov    %eax,%edx
 8049fa2:	8b 45 e8             	mov    -0x18(%ebp),%eax
 8049fa5:	89 50 04             	mov    %edx,0x4(%eax)
 8049fa8:	eb 0a                	jmp    8049fb4 <yy_get_next_buffer+0x1e4>
 8049faa:	8b 45 e8             	mov    -0x18(%ebp),%eax
 8049fad:	c7 40 04 00 00 00 00 	movl   $0x0,0x4(%eax)
 8049fb4:	8b 45 e8             	mov    -0x18(%ebp),%eax
 8049fb7:	8b 40 04             	mov    0x4(%eax),%eax
 8049fba:	85 c0                	test   %eax,%eax
 8049fbc:	75 0d                	jne    8049fcb <yy_get_next_buffer+0x1fb>
 8049fbe:	83 ec 0c             	sub    $0xc,%esp
 8049fc1:	68 20 0e 05 08       	push   $0x8050e20
 8049fc6:	e8 a0 0f 00 00       	call   804af6b <yy_fatal_error>
 8049fcb:	8b 45 e8             	mov    -0x18(%ebp),%eax
 8049fce:	8b 50 04             	mov    0x4(%eax),%edx
 8049fd1:	8b 45 ec             	mov    -0x14(%ebp),%eax
 8049fd4:	01 d0                	add    %edx,%eax
 8049fd6:	a3 0c 51 05 08       	mov    %eax,0x805510c
 8049fdb:	a1 00 51 05 08       	mov    0x8055100,%eax
 8049fe0:	8b 15 f8 50 05 08    	mov    0x80550f8,%edx
 8049fe6:	c1 e2 02             	shl    $0x2,%edx
 8049fe9:	01 d0                	add    %edx,%eax
 8049feb:	8b 00                	mov    (%eax),%eax
 8049fed:	8b 40 0c             	mov    0xc(%eax),%eax
 8049ff0:	2b 45 e4             	sub    -0x1c(%ebp),%eax
 8049ff3:	83 e8 01             	sub    $0x1,%eax
 8049ff6:	89 45 d8             	mov    %eax,-0x28(%ebp)
 8049ff9:	83 7d d8 00          	cmpl   $0x0,-0x28(%ebp)
 8049ffd:	0f 84 15 ff ff ff    	je     8049f18 <yy_get_next_buffer+0x148>
 804a003:	81 7d d8 00 20 00 00 	cmpl   $0x2000,-0x28(%ebp)
 804a00a:	76 07                	jbe    804a013 <yy_get_next_buffer+0x243>
 804a00c:	c7 45 d8 00 20 00 00 	movl   $0x2000,-0x28(%ebp)
 804a013:	a1 00 51 05 08       	mov    0x8055100,%eax
 804a018:	8b 15 f8 50 05 08    	mov    0x80550f8,%edx
 804a01e:	c1 e2 02             	shl    $0x2,%edx
 804a021:	01 d0                	add    %edx,%eax
 804a023:	8b 00                	mov    (%eax),%eax
 804a025:	8b 40 18             	mov    0x18(%eax),%eax
 804a028:	85 c0                	test   %eax,%eax
 804a02a:	0f 84 c5 00 00 00    	je     804a0f5 <yy_get_next_buffer+0x325>
 804a030:	c7 45 dc 2a 00 00 00 	movl   $0x2a,-0x24(%ebp)
 804a037:	c7 45 e0 00 00 00 00 	movl   $0x0,-0x20(%ebp)
 804a03e:	eb 28                	jmp    804a068 <yy_get_next_buffer+0x298>
 804a040:	a1 00 51 05 08       	mov    0x8055100,%eax
 804a045:	8b 15 f8 50 05 08    	mov    0x80550f8,%edx
 804a04b:	c1 e2 02             	shl    $0x2,%edx
 804a04e:	01 d0                	add    %edx,%eax
 804a050:	8b 00                	mov    (%eax),%eax
 804a052:	8b 40 04             	mov    0x4(%eax),%eax
 804a055:	8b 4d e4             	mov    -0x1c(%ebp),%ecx
 804a058:	8b 55 e0             	mov    -0x20(%ebp),%edx
 804a05b:	01 ca                	add    %ecx,%edx
 804a05d:	01 d0                	add    %edx,%eax
 804a05f:	8b 55 dc             	mov    -0x24(%ebp),%edx
 804a062:	88 10                	mov    %dl,(%eax)
 804a064:	83 45 e0 01          	addl   $0x1,-0x20(%ebp)
 804a068:	8b 45 e0             	mov    -0x20(%ebp),%eax
 804a06b:	3b 45 d8             	cmp    -0x28(%ebp),%eax
 804a06e:	73 20                	jae    804a090 <yy_get_next_buffer+0x2c0>
 804a070:	a1 ec 50 05 08       	mov    0x80550ec,%eax
 804a075:	83 ec 0c             	sub    $0xc,%esp
 804a078:	50                   	push   %eax
 804a079:	e8 92 e6 ff ff       	call   8048710 <_IO_getc@plt>
 804a07e:	83 c4 10             	add    $0x10,%esp
 804a081:	89 45 dc             	mov    %eax,-0x24(%ebp)
 804a084:	83 7d dc ff          	cmpl   $0xffffffff,-0x24(%ebp)
 804a088:	74 06                	je     804a090 <yy_get_next_buffer+0x2c0>
 804a08a:	83 7d dc 0a          	cmpl   $0xa,-0x24(%ebp)
 804a08e:	75 b0                	jne    804a040 <yy_get_next_buffer+0x270>
 804a090:	83 7d dc 0a          	cmpl   $0xa,-0x24(%ebp)
 804a094:	75 2a                	jne    804a0c0 <yy_get_next_buffer+0x2f0>
 804a096:	a1 00 51 05 08       	mov    0x8055100,%eax
 804a09b:	8b 15 f8 50 05 08    	mov    0x80550f8,%edx
 804a0a1:	c1 e2 02             	shl    $0x2,%edx
 804a0a4:	01 d0                	add    %edx,%eax
 804a0a6:	8b 00                	mov    (%eax),%eax
 804a0a8:	8b 48 04             	mov    0x4(%eax),%ecx
 804a0ab:	8b 45 e0             	mov    -0x20(%ebp),%eax
 804a0ae:	8d 50 01             	lea    0x1(%eax),%edx
 804a0b1:	89 55 e0             	mov    %edx,-0x20(%ebp)
 804a0b4:	8b 55 e4             	mov    -0x1c(%ebp),%edx
 804a0b7:	01 d0                	add    %edx,%eax
 804a0b9:	01 c8                	add    %ecx,%eax
 804a0bb:	8b 55 dc             	mov    -0x24(%ebp),%edx
 804a0be:	88 10                	mov    %dl,(%eax)
 804a0c0:	83 7d dc ff          	cmpl   $0xffffffff,-0x24(%ebp)
 804a0c4:	75 22                	jne    804a0e8 <yy_get_next_buffer+0x318>
 804a0c6:	a1 ec 50 05 08       	mov    0x80550ec,%eax
 804a0cb:	83 ec 0c             	sub    $0xc,%esp
 804a0ce:	50                   	push   %eax
 804a0cf:	e8 1c e6 ff ff       	call   80486f0 <ferror@plt>
 804a0d4:	83 c4 10             	add    $0x10,%esp
 804a0d7:	85 c0                	test   %eax,%eax
 804a0d9:	74 0d                	je     804a0e8 <yy_get_next_buffer+0x318>
 804a0db:	83 ec 0c             	sub    $0xc,%esp
 804a0de:	68 4c 0e 05 08       	push   $0x8050e4c
 804a0e3:	e8 83 0e 00 00       	call   804af6b <yy_fatal_error>
 804a0e8:	8b 45 e0             	mov    -0x20(%ebp),%eax
 804a0eb:	a3 08 51 05 08       	mov    %eax,0x8055108
 804a0f0:	e9 98 00 00 00       	jmp    804a18d <yy_get_next_buffer+0x3bd>
 804a0f5:	e8 06 e7 ff ff       	call   8048800 <__errno_location@plt>
 804a0fa:	c7 00 00 00 00 00    	movl   $0x0,(%eax)
 804a100:	eb 35                	jmp    804a137 <yy_get_next_buffer+0x367>
 804a102:	e8 f9 e6 ff ff       	call   8048800 <__errno_location@plt>
 804a107:	8b 00                	mov    (%eax),%eax
 804a109:	83 f8 04             	cmp    $0x4,%eax
 804a10c:	74 0d                	je     804a11b <yy_get_next_buffer+0x34b>
 804a10e:	83 ec 0c             	sub    $0xc,%esp
 804a111:	68 4c 0e 05 08       	push   $0x8050e4c
 804a116:	e8 50 0e 00 00       	call   804af6b <yy_fatal_error>
 804a11b:	e8 e0 e6 ff ff       	call   8048800 <__errno_location@plt>
 804a120:	c7 00 00 00 00 00    	movl   $0x0,(%eax)
 804a126:	a1 ec 50 05 08       	mov    0x80550ec,%eax
 804a12b:	83 ec 0c             	sub    $0xc,%esp
 804a12e:	50                   	push   %eax
 804a12f:	e8 ec e6 ff ff       	call   8048820 <clearerr@plt>
 804a134:	83 c4 10             	add    $0x10,%esp
 804a137:	a1 ec 50 05 08       	mov    0x80550ec,%eax
 804a13c:	8b 15 00 51 05 08    	mov    0x8055100,%edx
 804a142:	8b 0d f8 50 05 08    	mov    0x80550f8,%ecx
 804a148:	c1 e1 02             	shl    $0x2,%ecx
 804a14b:	01 ca                	add    %ecx,%edx
 804a14d:	8b 12                	mov    (%edx),%edx
 804a14f:	8b 4a 04             	mov    0x4(%edx),%ecx
 804a152:	8b 55 e4             	mov    -0x1c(%ebp),%edx
 804a155:	01 ca                	add    %ecx,%edx
 804a157:	50                   	push   %eax
 804a158:	ff 75 d8             	pushl  -0x28(%ebp)
 804a15b:	6a 01                	push   $0x1
 804a15d:	52                   	push   %edx
 804a15e:	e8 dd e5 ff ff       	call   8048740 <fread@plt>
 804a163:	83 c4 10             	add    $0x10,%esp
 804a166:	a3 08 51 05 08       	mov    %eax,0x8055108
 804a16b:	a1 08 51 05 08       	mov    0x8055108,%eax
 804a170:	85 c0                	test   %eax,%eax
 804a172:	75 19                	jne    804a18d <yy_get_next_buffer+0x3bd>
 804a174:	a1 ec 50 05 08       	mov    0x80550ec,%eax
 804a179:	83 ec 0c             	sub    $0xc,%esp
 804a17c:	50                   	push   %eax
 804a17d:	e8 6e e5 ff ff       	call   80486f0 <ferror@plt>
 804a182:	83 c4 10             	add    $0x10,%esp
 804a185:	85 c0                	test   %eax,%eax
 804a187:	0f 85 75 ff ff ff    	jne    804a102 <yy_get_next_buffer+0x332>
 804a18d:	a1 00 51 05 08       	mov    0x8055100,%eax
 804a192:	8b 15 f8 50 05 08    	mov    0x80550f8,%edx
 804a198:	c1 e2 02             	shl    $0x2,%edx
 804a19b:	01 d0                	add    %edx,%eax
 804a19d:	8b 00                	mov    (%eax),%eax
 804a19f:	8b 15 08 51 05 08    	mov    0x8055108,%edx
 804a1a5:	89 50 10             	mov    %edx,0x10(%eax)
 804a1a8:	a1 08 51 05 08       	mov    0x8055108,%eax
 804a1ad:	85 c0                	test   %eax,%eax
 804a1af:	75 42                	jne    804a1f3 <yy_get_next_buffer+0x423>
 804a1b1:	83 7d e4 00          	cmpl   $0x0,-0x1c(%ebp)
 804a1b5:	75 1a                	jne    804a1d1 <yy_get_next_buffer+0x401>
 804a1b7:	c7 45 d4 01 00 00 00 	movl   $0x1,-0x2c(%ebp)
 804a1be:	a1 ec 50 05 08       	mov    0x80550ec,%eax
 804a1c3:	83 ec 0c             	sub    $0xc,%esp
 804a1c6:	50                   	push   %eax
 804a1c7:	e8 80 05 00 00       	call   804a74c <yyrestart>
 804a1cc:	83 c4 10             	add    $0x10,%esp
 804a1cf:	eb 29                	jmp    804a1fa <yy_get_next_buffer+0x42a>
 804a1d1:	c7 45 d4 02 00 00 00 	movl   $0x2,-0x2c(%ebp)
 804a1d8:	a1 00 51 05 08       	mov    0x8055100,%eax
 804a1dd:	8b 15 f8 50 05 08    	mov    0x80550f8,%edx
 804a1e3:	c1 e2 02             	shl    $0x2,%edx
 804a1e6:	01 d0                	add    %edx,%eax
 804a1e8:	8b 00                	mov    (%eax),%eax
 804a1ea:	c7 40 2c 02 00 00 00 	movl   $0x2,0x2c(%eax)
 804a1f1:	eb 07                	jmp    804a1fa <yy_get_next_buffer+0x42a>
 804a1f3:	c7 45 d4 00 00 00 00 	movl   $0x0,-0x2c(%ebp)
 804a1fa:	a1 08 51 05 08       	mov    0x8055108,%eax
 804a1ff:	89 c2                	mov    %eax,%edx
 804a201:	8b 45 e4             	mov    -0x1c(%ebp),%eax
 804a204:	8d 0c 02             	lea    (%edx,%eax,1),%ecx
 804a207:	a1 00 51 05 08       	mov    0x8055100,%eax
 804a20c:	8b 15 f8 50 05 08    	mov    0x80550f8,%edx
 804a212:	c1 e2 02             	shl    $0x2,%edx
 804a215:	01 d0                	add    %edx,%eax
 804a217:	8b 00                	mov    (%eax),%eax
 804a219:	8b 40 0c             	mov    0xc(%eax),%eax
 804a21c:	39 c1                	cmp    %eax,%ecx
 804a21e:	76 78                	jbe    804a298 <yy_get_next_buffer+0x4c8>
 804a220:	a1 08 51 05 08       	mov    0x8055108,%eax
 804a225:	89 c2                	mov    %eax,%edx
 804a227:	8b 45 e4             	mov    -0x1c(%ebp),%eax
 804a22a:	01 c2                	add    %eax,%edx
 804a22c:	a1 08 51 05 08       	mov    0x8055108,%eax
 804a231:	d1 f8                	sar    %eax
 804a233:	01 d0                	add    %edx,%eax
 804a235:	89 45 f4             	mov    %eax,-0xc(%ebp)
 804a238:	a1 00 51 05 08       	mov    0x8055100,%eax
 804a23d:	8b 15 f8 50 05 08    	mov    0x80550f8,%edx
 804a243:	c1 e2 02             	shl    $0x2,%edx
 804a246:	01 d0                	add    %edx,%eax
 804a248:	8b 18                	mov    (%eax),%ebx
 804a24a:	8b 55 f4             	mov    -0xc(%ebp),%edx
 804a24d:	a1 00 51 05 08       	mov    0x8055100,%eax
 804a252:	8b 0d f8 50 05 08    	mov    0x80550f8,%ecx
 804a258:	c1 e1 02             	shl    $0x2,%ecx
 804a25b:	01 c8                	add    %ecx,%eax
 804a25d:	8b 00                	mov    (%eax),%eax
 804a25f:	8b 40 04             	mov    0x4(%eax),%eax
 804a262:	83 ec 08             	sub    $0x8,%esp
 804a265:	52                   	push   %edx
 804a266:	50                   	push   %eax
 804a267:	e8 ad 0e 00 00       	call   804b119 <yyrealloc>
 804a26c:	83 c4 10             	add    $0x10,%esp
 804a26f:	89 43 04             	mov    %eax,0x4(%ebx)
 804a272:	a1 00 51 05 08       	mov    0x8055100,%eax
 804a277:	8b 15 f8 50 05 08    	mov    0x80550f8,%edx
 804a27d:	c1 e2 02             	shl    $0x2,%edx
 804a280:	01 d0                	add    %edx,%eax
 804a282:	8b 00                	mov    (%eax),%eax
 804a284:	8b 40 04             	mov    0x4(%eax),%eax
 804a287:	85 c0                	test   %eax,%eax
 804a289:	75 0d                	jne    804a298 <yy_get_next_buffer+0x4c8>
 804a28b:	83 ec 0c             	sub    $0xc,%esp
 804a28e:	68 6c 0e 05 08       	push   $0x8050e6c
 804a293:	e8 d3 0c 00 00       	call   804af6b <yy_fatal_error>
 804a298:	a1 08 51 05 08       	mov    0x8055108,%eax
 804a29d:	89 c2                	mov    %eax,%edx
 804a29f:	8b 45 e4             	mov    -0x1c(%ebp),%eax
 804a2a2:	01 d0                	add    %edx,%eax
 804a2a4:	a3 08 51 05 08       	mov    %eax,0x8055108
 804a2a9:	a1 00 51 05 08       	mov    0x8055100,%eax
 804a2ae:	8b 15 f8 50 05 08    	mov    0x80550f8,%edx
 804a2b4:	c1 e2 02             	shl    $0x2,%edx
 804a2b7:	01 d0                	add    %edx,%eax
 804a2b9:	8b 00                	mov    (%eax),%eax
 804a2bb:	8b 40 04             	mov    0x4(%eax),%eax
 804a2be:	8b 15 08 51 05 08    	mov    0x8055108,%edx
 804a2c4:	01 d0                	add    %edx,%eax
 804a2c6:	c6 00 00             	movb   $0x0,(%eax)
 804a2c9:	a1 00 51 05 08       	mov    0x8055100,%eax
 804a2ce:	8b 15 f8 50 05 08    	mov    0x80550f8,%edx
 804a2d4:	c1 e2 02             	shl    $0x2,%edx
 804a2d7:	01 d0                	add    %edx,%eax
 804a2d9:	8b 00                	mov    (%eax),%eax
 804a2db:	8b 40 04             	mov    0x4(%eax),%eax
 804a2de:	8b 15 08 51 05 08    	mov    0x8055108,%edx
 804a2e4:	83 c2 01             	add    $0x1,%edx
 804a2e7:	01 d0                	add    %edx,%eax
 804a2e9:	c6 00 00             	movb   $0x0,(%eax)
 804a2ec:	a1 00 51 05 08       	mov    0x8055100,%eax
 804a2f1:	8b 15 f8 50 05 08    	mov    0x80550f8,%edx
 804a2f7:	c1 e2 02             	shl    $0x2,%edx
 804a2fa:	01 d0                	add    %edx,%eax
 804a2fc:	8b 00                	mov    (%eax),%eax
 804a2fe:	8b 40 04             	mov    0x4(%eax),%eax
 804a301:	a3 3c 51 05 08       	mov    %eax,0x805513c
 804a306:	8b 45 d4             	mov    -0x2c(%ebp),%eax
 804a309:	8b 5d fc             	mov    -0x4(%ebp),%ebx
 804a30c:	c9                   	leave  
 804a30d:	c3                   	ret    

0804a30e <yy_get_previous_state>:
 804a30e:	55                   	push   %ebp
 804a30f:	89 e5                	mov    %esp,%ebp
 804a311:	83 ec 10             	sub    $0x10,%esp
 804a314:	a1 14 51 05 08       	mov    0x8055114,%eax
 804a319:	89 45 f8             	mov    %eax,-0x8(%ebp)
 804a31c:	a1 3c 51 05 08       	mov    0x805513c,%eax
 804a321:	89 45 fc             	mov    %eax,-0x4(%ebp)
 804a324:	e9 b1 00 00 00       	jmp    804a3da <yy_get_previous_state+0xcc>
 804a329:	8b 45 fc             	mov    -0x4(%ebp),%eax
 804a32c:	0f b6 00             	movzbl (%eax),%eax
 804a32f:	84 c0                	test   %al,%al
 804a331:	74 12                	je     804a345 <yy_get_previous_state+0x37>
 804a333:	8b 45 fc             	mov    -0x4(%ebp),%eax
 804a336:	0f b6 00             	movzbl (%eax),%eax
 804a339:	0f b6 c0             	movzbl %al,%eax
 804a33c:	0f b6 80 c0 06 05 08 	movzbl 0x80506c0(%eax),%eax
 804a343:	eb 05                	jmp    804a34a <yy_get_previous_state+0x3c>
 804a345:	b8 01 00 00 00       	mov    $0x1,%eax
 804a34a:	88 45 f7             	mov    %al,-0x9(%ebp)
 804a34d:	8b 45 f8             	mov    -0x8(%ebp),%eax
 804a350:	0f b7 84 00 20 06 05 	movzwl 0x8050620(%eax,%eax,1),%eax
 804a357:	08 
 804a358:	66 85 c0             	test   %ax,%ax
 804a35b:	74 35                	je     804a392 <yy_get_previous_state+0x84>
 804a35d:	8b 45 f8             	mov    -0x8(%ebp),%eax
 804a360:	a3 1c 51 05 08       	mov    %eax,0x805511c
 804a365:	8b 45 fc             	mov    -0x4(%ebp),%eax
 804a368:	a3 20 51 05 08       	mov    %eax,0x8055120
 804a36d:	eb 23                	jmp    804a392 <yy_get_previous_state+0x84>
 804a36f:	8b 45 f8             	mov    -0x8(%ebp),%eax
 804a372:	0f b7 84 00 a0 08 05 	movzwl 0x80508a0(%eax,%eax,1),%eax
 804a379:	08 
 804a37a:	98                   	cwtl   
 804a37b:	89 45 f8             	mov    %eax,-0x8(%ebp)
 804a37e:	83 7d f8 4b          	cmpl   $0x4b,-0x8(%ebp)
 804a382:	7e 0e                	jle    804a392 <yy_get_previous_state+0x84>
 804a384:	0f b6 45 f7          	movzbl -0x9(%ebp),%eax
 804a388:	0f b6 80 c0 07 05 08 	movzbl 0x80507c0(%eax),%eax
 804a38f:	88 45 f7             	mov    %al,-0x9(%ebp)
 804a392:	8b 45 f8             	mov    -0x8(%ebp),%eax
 804a395:	0f b7 84 00 00 08 05 	movzwl 0x8050800(%eax,%eax,1),%eax
 804a39c:	08 
 804a39d:	0f b7 d0             	movzwl %ax,%edx
 804a3a0:	0f b6 45 f7          	movzbl -0x9(%ebp),%eax
 804a3a4:	01 d0                	add    %edx,%eax
 804a3a6:	0f b7 84 00 80 0a 05 	movzwl 0x8050a80(%eax,%eax,1),%eax
 804a3ad:	08 
 804a3ae:	98                   	cwtl   
 804a3af:	3b 45 f8             	cmp    -0x8(%ebp),%eax
 804a3b2:	75 bb                	jne    804a36f <yy_get_previous_state+0x61>
 804a3b4:	8b 45 f8             	mov    -0x8(%ebp),%eax
 804a3b7:	0f b7 84 00 00 08 05 	movzwl 0x8050800(%eax,%eax,1),%eax
 804a3be:	08 
 804a3bf:	0f b7 d0             	movzwl %ax,%edx
 804a3c2:	0f b6 45 f7          	movzbl -0x9(%ebp),%eax
 804a3c6:	01 d0                	add    %edx,%eax
 804a3c8:	0f b7 84 00 40 09 05 	movzwl 0x8050940(%eax,%eax,1),%eax
 804a3cf:	08 
 804a3d0:	0f b7 c0             	movzwl %ax,%eax
 804a3d3:	89 45 f8             	mov    %eax,-0x8(%ebp)
 804a3d6:	83 45 fc 01          	addl   $0x1,-0x4(%ebp)
 804a3da:	a1 0c 51 05 08       	mov    0x805510c,%eax
 804a3df:	39 45 fc             	cmp    %eax,-0x4(%ebp)
 804a3e2:	0f 82 41 ff ff ff    	jb     804a329 <yy_get_previous_state+0x1b>
 804a3e8:	8b 45 f8             	mov    -0x8(%ebp),%eax
 804a3eb:	c9                   	leave  
 804a3ec:	c3                   	ret    

0804a3ed <yy_try_NUL_trans>:
 804a3ed:	55                   	push   %ebp
 804a3ee:	89 e5                	mov    %esp,%ebp
 804a3f0:	83 ec 10             	sub    $0x10,%esp
 804a3f3:	a1 0c 51 05 08       	mov    0x805510c,%eax
 804a3f8:	89 45 f8             	mov    %eax,-0x8(%ebp)
 804a3fb:	c6 45 f7 01          	movb   $0x1,-0x9(%ebp)
 804a3ff:	8b 45 08             	mov    0x8(%ebp),%eax
 804a402:	0f b7 84 00 20 06 05 	movzwl 0x8050620(%eax,%eax,1),%eax
 804a409:	08 
 804a40a:	66 85 c0             	test   %ax,%ax
 804a40d:	74 35                	je     804a444 <yy_try_NUL_trans+0x57>
 804a40f:	8b 45 08             	mov    0x8(%ebp),%eax
 804a412:	a3 1c 51 05 08       	mov    %eax,0x805511c
 804a417:	8b 45 f8             	mov    -0x8(%ebp),%eax
 804a41a:	a3 20 51 05 08       	mov    %eax,0x8055120
 804a41f:	eb 23                	jmp    804a444 <yy_try_NUL_trans+0x57>
 804a421:	8b 45 08             	mov    0x8(%ebp),%eax
 804a424:	0f b7 84 00 a0 08 05 	movzwl 0x80508a0(%eax,%eax,1),%eax
 804a42b:	08 
 804a42c:	98                   	cwtl   
 804a42d:	89 45 08             	mov    %eax,0x8(%ebp)
 804a430:	83 7d 08 4b          	cmpl   $0x4b,0x8(%ebp)
 804a434:	7e 0e                	jle    804a444 <yy_try_NUL_trans+0x57>
 804a436:	0f b6 45 f7          	movzbl -0x9(%ebp),%eax
 804a43a:	0f b6 80 c0 07 05 08 	movzbl 0x80507c0(%eax),%eax
 804a441:	88 45 f7             	mov    %al,-0x9(%ebp)
 804a444:	8b 45 08             	mov    0x8(%ebp),%eax
 804a447:	0f b7 84 00 00 08 05 	movzwl 0x8050800(%eax,%eax,1),%eax
 804a44e:	08 
 804a44f:	0f b7 d0             	movzwl %ax,%edx
 804a452:	0f b6 45 f7          	movzbl -0x9(%ebp),%eax
 804a456:	01 d0                	add    %edx,%eax
 804a458:	0f b7 84 00 80 0a 05 	movzwl 0x8050a80(%eax,%eax,1),%eax
 804a45f:	08 
 804a460:	98                   	cwtl   
 804a461:	3b 45 08             	cmp    0x8(%ebp),%eax
 804a464:	75 bb                	jne    804a421 <yy_try_NUL_trans+0x34>
 804a466:	8b 45 08             	mov    0x8(%ebp),%eax
 804a469:	0f b7 84 00 00 08 05 	movzwl 0x8050800(%eax,%eax,1),%eax
 804a470:	08 
 804a471:	0f b7 d0             	movzwl %ax,%edx
 804a474:	0f b6 45 f7          	movzbl -0x9(%ebp),%eax
 804a478:	01 d0                	add    %edx,%eax
 804a47a:	0f b7 84 00 40 09 05 	movzwl 0x8050940(%eax,%eax,1),%eax
 804a481:	08 
 804a482:	0f b7 c0             	movzwl %ax,%eax
 804a485:	89 45 08             	mov    %eax,0x8(%ebp)
 804a488:	83 7d 08 4b          	cmpl   $0x4b,0x8(%ebp)
 804a48c:	0f 94 c0             	sete   %al
 804a48f:	0f b6 c0             	movzbl %al,%eax
 804a492:	89 45 fc             	mov    %eax,-0x4(%ebp)
 804a495:	83 7d fc 00          	cmpl   $0x0,-0x4(%ebp)
 804a499:	75 05                	jne    804a4a0 <yy_try_NUL_trans+0xb3>
 804a49b:	8b 45 08             	mov    0x8(%ebp),%eax
 804a49e:	eb 05                	jmp    804a4a5 <yy_try_NUL_trans+0xb8>
 804a4a0:	b8 00 00 00 00       	mov    $0x0,%eax
 804a4a5:	c9                   	leave  
 804a4a6:	c3                   	ret    

0804a4a7 <yyunput>:
 804a4a7:	55                   	push   %ebp
 804a4a8:	89 e5                	mov    %esp,%ebp
 804a4aa:	83 ec 18             	sub    $0x18,%esp
 804a4ad:	a1 0c 51 05 08       	mov    0x805510c,%eax
 804a4b2:	89 45 e8             	mov    %eax,-0x18(%ebp)
 804a4b5:	0f b6 15 04 51 05 08 	movzbl 0x8055104,%edx
 804a4bc:	8b 45 e8             	mov    -0x18(%ebp),%eax
 804a4bf:	88 10                	mov    %dl,(%eax)
 804a4c1:	a1 00 51 05 08       	mov    0x8055100,%eax
 804a4c6:	8b 15 f8 50 05 08    	mov    0x80550f8,%edx
 804a4cc:	c1 e2 02             	shl    $0x2,%edx
 804a4cf:	01 d0                	add    %edx,%eax
 804a4d1:	8b 00                	mov    (%eax),%eax
 804a4d3:	8b 40 04             	mov    0x4(%eax),%eax
 804a4d6:	83 c0 02             	add    $0x2,%eax
 804a4d9:	3b 45 e8             	cmp    -0x18(%ebp),%eax
 804a4dc:	0f 86 04 01 00 00    	jbe    804a5e6 <yyunput+0x13f>
 804a4e2:	a1 08 51 05 08       	mov    0x8055108,%eax
 804a4e7:	83 c0 02             	add    $0x2,%eax
 804a4ea:	89 45 f4             	mov    %eax,-0xc(%ebp)
 804a4ed:	a1 00 51 05 08       	mov    0x8055100,%eax
 804a4f2:	8b 15 f8 50 05 08    	mov    0x80550f8,%edx
 804a4f8:	c1 e2 02             	shl    $0x2,%edx
 804a4fb:	01 d0                	add    %edx,%eax
 804a4fd:	8b 00                	mov    (%eax),%eax
 804a4ff:	8b 50 04             	mov    0x4(%eax),%edx
 804a502:	a1 00 51 05 08       	mov    0x8055100,%eax
 804a507:	8b 0d f8 50 05 08    	mov    0x80550f8,%ecx
 804a50d:	c1 e1 02             	shl    $0x2,%ecx
 804a510:	01 c8                	add    %ecx,%eax
 804a512:	8b 00                	mov    (%eax),%eax
 804a514:	8b 40 0c             	mov    0xc(%eax),%eax
 804a517:	83 c0 02             	add    $0x2,%eax
 804a51a:	01 d0                	add    %edx,%eax
 804a51c:	89 45 ec             	mov    %eax,-0x14(%ebp)
 804a51f:	a1 00 51 05 08       	mov    0x8055100,%eax
 804a524:	8b 15 f8 50 05 08    	mov    0x80550f8,%edx
 804a52a:	c1 e2 02             	shl    $0x2,%edx
 804a52d:	01 d0                	add    %edx,%eax
 804a52f:	8b 00                	mov    (%eax),%eax
 804a531:	8b 50 04             	mov    0x4(%eax),%edx
 804a534:	8b 45 f4             	mov    -0xc(%ebp),%eax
 804a537:	01 d0                	add    %edx,%eax
 804a539:	89 45 f0             	mov    %eax,-0x10(%ebp)
 804a53c:	eb 13                	jmp    804a551 <yyunput+0xaa>
 804a53e:	83 6d ec 01          	subl   $0x1,-0x14(%ebp)
 804a542:	83 6d f0 01          	subl   $0x1,-0x10(%ebp)
 804a546:	8b 45 f0             	mov    -0x10(%ebp),%eax
 804a549:	0f b6 10             	movzbl (%eax),%edx
 804a54c:	8b 45 ec             	mov    -0x14(%ebp),%eax
 804a54f:	88 10                	mov    %dl,(%eax)
 804a551:	a1 00 51 05 08       	mov    0x8055100,%eax
 804a556:	8b 15 f8 50 05 08    	mov    0x80550f8,%edx
 804a55c:	c1 e2 02             	shl    $0x2,%edx
 804a55f:	01 d0                	add    %edx,%eax
 804a561:	8b 00                	mov    (%eax),%eax
 804a563:	8b 40 04             	mov    0x4(%eax),%eax
 804a566:	3b 45 f0             	cmp    -0x10(%ebp),%eax
 804a569:	72 d3                	jb     804a53e <yyunput+0x97>
 804a56b:	8b 55 ec             	mov    -0x14(%ebp),%edx
 804a56e:	8b 45 f0             	mov    -0x10(%ebp),%eax
 804a571:	29 c2                	sub    %eax,%edx
 804a573:	89 d0                	mov    %edx,%eax
 804a575:	01 45 e8             	add    %eax,-0x18(%ebp)
 804a578:	8b 55 ec             	mov    -0x14(%ebp),%edx
 804a57b:	8b 45 f0             	mov    -0x10(%ebp),%eax
 804a57e:	29 c2                	sub    %eax,%edx
 804a580:	89 d0                	mov    %edx,%eax
 804a582:	01 45 0c             	add    %eax,0xc(%ebp)
 804a585:	a1 00 51 05 08       	mov    0x8055100,%eax
 804a58a:	8b 15 f8 50 05 08    	mov    0x80550f8,%edx
 804a590:	c1 e2 02             	shl    $0x2,%edx
 804a593:	01 d0                	add    %edx,%eax
 804a595:	8b 00                	mov    (%eax),%eax
 804a597:	8b 15 00 51 05 08    	mov    0x8055100,%edx
 804a59d:	8b 0d f8 50 05 08    	mov    0x80550f8,%ecx
 804a5a3:	c1 e1 02             	shl    $0x2,%ecx
 804a5a6:	01 ca                	add    %ecx,%edx
 804a5a8:	8b 12                	mov    (%edx),%edx
 804a5aa:	8b 52 0c             	mov    0xc(%edx),%edx
 804a5ad:	89 15 08 51 05 08    	mov    %edx,0x8055108
 804a5b3:	8b 15 08 51 05 08    	mov    0x8055108,%edx
 804a5b9:	89 50 10             	mov    %edx,0x10(%eax)
 804a5bc:	a1 00 51 05 08       	mov    0x8055100,%eax
 804a5c1:	8b 15 f8 50 05 08    	mov    0x80550f8,%edx
 804a5c7:	c1 e2 02             	shl    $0x2,%edx
 804a5ca:	01 d0                	add    %edx,%eax
 804a5cc:	8b 00                	mov    (%eax),%eax
 804a5ce:	8b 40 04             	mov    0x4(%eax),%eax
 804a5d1:	83 c0 02             	add    $0x2,%eax
 804a5d4:	3b 45 e8             	cmp    -0x18(%ebp),%eax
 804a5d7:	76 0d                	jbe    804a5e6 <yyunput+0x13f>
 804a5d9:	83 ec 0c             	sub    $0xc,%esp
 804a5dc:	68 9c 0e 05 08       	push   $0x8050e9c
 804a5e1:	e8 85 09 00 00       	call   804af6b <yy_fatal_error>
 804a5e6:	83 6d e8 01          	subl   $0x1,-0x18(%ebp)
 804a5ea:	8b 45 08             	mov    0x8(%ebp),%eax
 804a5ed:	89 c2                	mov    %eax,%edx
 804a5ef:	8b 45 e8             	mov    -0x18(%ebp),%eax
 804a5f2:	88 10                	mov    %dl,(%eax)
 804a5f4:	83 7d 08 0a          	cmpl   $0xa,0x8(%ebp)
 804a5f8:	75 0d                	jne    804a607 <yyunput+0x160>
 804a5fa:	a1 7c 50 05 08       	mov    0x805507c,%eax
 804a5ff:	83 e8 01             	sub    $0x1,%eax
 804a602:	a3 7c 50 05 08       	mov    %eax,0x805507c
 804a607:	8b 45 0c             	mov    0xc(%ebp),%eax
 804a60a:	a3 3c 51 05 08       	mov    %eax,0x805513c
 804a60f:	8b 45 e8             	mov    -0x18(%ebp),%eax
 804a612:	0f b6 00             	movzbl (%eax),%eax
 804a615:	a2 04 51 05 08       	mov    %al,0x8055104
 804a61a:	8b 45 e8             	mov    -0x18(%ebp),%eax
 804a61d:	a3 0c 51 05 08       	mov    %eax,0x805510c
 804a622:	90                   	nop
 804a623:	c9                   	leave  
 804a624:	c3                   	ret    

0804a625 <input>:
 804a625:	55                   	push   %ebp
 804a626:	89 e5                	mov    %esp,%ebp
 804a628:	83 ec 18             	sub    $0x18,%esp
 804a62b:	a1 0c 51 05 08       	mov    0x805510c,%eax
 804a630:	0f b6 15 04 51 05 08 	movzbl 0x8055104,%edx
 804a637:	88 10                	mov    %dl,(%eax)
 804a639:	a1 0c 51 05 08       	mov    0x805510c,%eax
 804a63e:	0f b6 00             	movzbl (%eax),%eax
 804a641:	84 c0                	test   %al,%al
 804a643:	0f 85 bb 00 00 00    	jne    804a704 <input+0xdf>
 804a649:	a1 00 51 05 08       	mov    0x8055100,%eax
 804a64e:	8b 15 f8 50 05 08    	mov    0x80550f8,%edx
 804a654:	c1 e2 02             	shl    $0x2,%edx
 804a657:	01 d0                	add    %edx,%eax
 804a659:	8b 00                	mov    (%eax),%eax
 804a65b:	8b 40 04             	mov    0x4(%eax),%eax
 804a65e:	8b 15 08 51 05 08    	mov    0x8055108,%edx
 804a664:	01 c2                	add    %eax,%edx
 804a666:	a1 0c 51 05 08       	mov    0x805510c,%eax
 804a66b:	39 c2                	cmp    %eax,%edx
 804a66d:	76 0d                	jbe    804a67c <input+0x57>
 804a66f:	a1 0c 51 05 08       	mov    0x805510c,%eax
 804a674:	c6 00 00             	movb   $0x0,(%eax)
 804a677:	e9 88 00 00 00       	jmp    804a704 <input+0xdf>
 804a67c:	a1 0c 51 05 08       	mov    0x805510c,%eax
 804a681:	89 c2                	mov    %eax,%edx
 804a683:	a1 3c 51 05 08       	mov    0x805513c,%eax
 804a688:	29 c2                	sub    %eax,%edx
 804a68a:	89 d0                	mov    %edx,%eax
 804a68c:	89 45 f0             	mov    %eax,-0x10(%ebp)
 804a68f:	a1 0c 51 05 08       	mov    0x805510c,%eax
 804a694:	83 c0 01             	add    $0x1,%eax
 804a697:	a3 0c 51 05 08       	mov    %eax,0x805510c
 804a69c:	e8 2f f7 ff ff       	call   8049dd0 <yy_get_next_buffer>
 804a6a1:	83 f8 01             	cmp    $0x1,%eax
 804a6a4:	74 1c                	je     804a6c2 <input+0x9d>
 804a6a6:	83 f8 02             	cmp    $0x2,%eax
 804a6a9:	74 06                	je     804a6b1 <input+0x8c>
 804a6ab:	85 c0                	test   %eax,%eax
 804a6ad:	74 44                	je     804a6f3 <input+0xce>
 804a6af:	eb 53                	jmp    804a704 <input+0xdf>
 804a6b1:	a1 ec 50 05 08       	mov    0x80550ec,%eax
 804a6b6:	83 ec 0c             	sub    $0xc,%esp
 804a6b9:	50                   	push   %eax
 804a6ba:	e8 8d 00 00 00       	call   804a74c <yyrestart>
 804a6bf:	83 c4 10             	add    $0x10,%esp
 804a6c2:	e8 99 5e 00 00       	call   8050560 <yywrap>
 804a6c7:	85 c0                	test   %eax,%eax
 804a6c9:	74 07                	je     804a6d2 <input+0xad>
 804a6cb:	b8 ff ff ff ff       	mov    $0xffffffff,%eax
 804a6d0:	eb 78                	jmp    804a74a <input+0x125>
 804a6d2:	a1 18 51 05 08       	mov    0x8055118,%eax
 804a6d7:	85 c0                	test   %eax,%eax
 804a6d9:	75 11                	jne    804a6ec <input+0xc7>
 804a6db:	a1 ec 50 05 08       	mov    0x80550ec,%eax
 804a6e0:	83 ec 0c             	sub    $0xc,%esp
 804a6e3:	50                   	push   %eax
 804a6e4:	e8 63 00 00 00       	call   804a74c <yyrestart>
 804a6e9:	83 c4 10             	add    $0x10,%esp
 804a6ec:	e8 34 ff ff ff       	call   804a625 <input>
 804a6f1:	eb 57                	jmp    804a74a <input+0x125>
 804a6f3:	8b 15 3c 51 05 08    	mov    0x805513c,%edx
 804a6f9:	8b 45 f0             	mov    -0x10(%ebp),%eax
 804a6fc:	01 d0                	add    %edx,%eax
 804a6fe:	a3 0c 51 05 08       	mov    %eax,0x805510c
 804a703:	90                   	nop
 804a704:	a1 0c 51 05 08       	mov    0x805510c,%eax
 804a709:	0f b6 00             	movzbl (%eax),%eax
 804a70c:	0f b6 c0             	movzbl %al,%eax
 804a70f:	89 45 f4             	mov    %eax,-0xc(%ebp)
 804a712:	a1 0c 51 05 08       	mov    0x805510c,%eax
 804a717:	c6 00 00             	movb   $0x0,(%eax)
 804a71a:	a1 0c 51 05 08       	mov    0x805510c,%eax
 804a71f:	83 c0 01             	add    $0x1,%eax
 804a722:	a3 0c 51 05 08       	mov    %eax,0x805510c
 804a727:	a1 0c 51 05 08       	mov    0x805510c,%eax
 804a72c:	0f b6 00             	movzbl (%eax),%eax
 804a72f:	a2 04 51 05 08       	mov    %al,0x8055104
 804a734:	83 7d f4 0a          	cmpl   $0xa,-0xc(%ebp)
 804a738:	75 0d                	jne    804a747 <input+0x122>
 804a73a:	a1 7c 50 05 08       	mov    0x805507c,%eax
 804a73f:	83 c0 01             	add    $0x1,%eax
 804a742:	a3 7c 50 05 08       	mov    %eax,0x805507c
 804a747:	8b 45 f4             	mov    -0xc(%ebp),%eax
 804a74a:	c9                   	leave  
 804a74b:	c3                   	ret    

0804a74c <yyrestart>:
 804a74c:	55                   	push   %ebp
 804a74d:	89 e5                	mov    %esp,%ebp
 804a74f:	53                   	push   %ebx
 804a750:	83 ec 04             	sub    $0x4,%esp
 804a753:	a1 00 51 05 08       	mov    0x8055100,%eax
 804a758:	85 c0                	test   %eax,%eax
 804a75a:	74 16                	je     804a772 <yyrestart+0x26>
 804a75c:	a1 00 51 05 08       	mov    0x8055100,%eax
 804a761:	8b 15 f8 50 05 08    	mov    0x80550f8,%edx
 804a767:	c1 e2 02             	shl    $0x2,%edx
 804a76a:	01 d0                	add    %edx,%eax
 804a76c:	8b 00                	mov    (%eax),%eax
 804a76e:	85 c0                	test   %eax,%eax
 804a770:	75 2e                	jne    804a7a0 <yyrestart+0x54>
 804a772:	e8 3f 05 00 00       	call   804acb6 <yyensure_buffer_stack>
 804a777:	a1 00 51 05 08       	mov    0x8055100,%eax
 804a77c:	8b 15 f8 50 05 08    	mov    0x80550f8,%edx
 804a782:	c1 e2 02             	shl    $0x2,%edx
 804a785:	8d 1c 10             	lea    (%eax,%edx,1),%ebx
 804a788:	a1 ec 50 05 08       	mov    0x80550ec,%eax
 804a78d:	83 ec 08             	sub    $0x8,%esp
 804a790:	68 00 40 00 00       	push   $0x4000
 804a795:	50                   	push   %eax
 804a796:	e8 6d 01 00 00       	call   804a908 <yy_create_buffer>
 804a79b:	83 c4 10             	add    $0x10,%esp
 804a79e:	89 03                	mov    %eax,(%ebx)
 804a7a0:	a1 00 51 05 08       	mov    0x8055100,%eax
 804a7a5:	85 c0                	test   %eax,%eax
 804a7a7:	74 14                	je     804a7bd <yyrestart+0x71>
 804a7a9:	a1 00 51 05 08       	mov    0x8055100,%eax
 804a7ae:	8b 15 f8 50 05 08    	mov    0x80550f8,%edx
 804a7b4:	c1 e2 02             	shl    $0x2,%edx
 804a7b7:	01 d0                	add    %edx,%eax
 804a7b9:	8b 00                	mov    (%eax),%eax
 804a7bb:	eb 05                	jmp    804a7c2 <yyrestart+0x76>
 804a7bd:	b8 00 00 00 00       	mov    $0x0,%eax
 804a7c2:	83 ec 08             	sub    $0x8,%esp
 804a7c5:	ff 75 08             	pushl  0x8(%ebp)
 804a7c8:	50                   	push   %eax
 804a7c9:	e8 38 02 00 00       	call   804aa06 <yy_init_buffer>
 804a7ce:	83 c4 10             	add    $0x10,%esp
 804a7d1:	e8 c8 00 00 00       	call   804a89e <yy_load_buffer_state>
 804a7d6:	90                   	nop
 804a7d7:	8b 5d fc             	mov    -0x4(%ebp),%ebx
 804a7da:	c9                   	leave  
 804a7db:	c3                   	ret    

0804a7dc <yy_switch_to_buffer>:
 804a7dc:	55                   	push   %ebp
 804a7dd:	89 e5                	mov    %esp,%ebp
 804a7df:	83 ec 08             	sub    $0x8,%esp
 804a7e2:	e8 cf 04 00 00       	call   804acb6 <yyensure_buffer_stack>
 804a7e7:	a1 00 51 05 08       	mov    0x8055100,%eax
 804a7ec:	85 c0                	test   %eax,%eax
 804a7ee:	74 14                	je     804a804 <yy_switch_to_buffer+0x28>
 804a7f0:	a1 00 51 05 08       	mov    0x8055100,%eax
 804a7f5:	8b 15 f8 50 05 08    	mov    0x80550f8,%edx
 804a7fb:	c1 e2 02             	shl    $0x2,%edx
 804a7fe:	01 d0                	add    %edx,%eax
 804a800:	8b 00                	mov    (%eax),%eax
 804a802:	eb 05                	jmp    804a809 <yy_switch_to_buffer+0x2d>
 804a804:	b8 00 00 00 00       	mov    $0x0,%eax
 804a809:	3b 45 08             	cmp    0x8(%ebp),%eax
 804a80c:	0f 84 89 00 00 00    	je     804a89b <yy_switch_to_buffer+0xbf>
 804a812:	a1 00 51 05 08       	mov    0x8055100,%eax
 804a817:	85 c0                	test   %eax,%eax
 804a819:	74 5a                	je     804a875 <yy_switch_to_buffer+0x99>
 804a81b:	a1 00 51 05 08       	mov    0x8055100,%eax
 804a820:	8b 15 f8 50 05 08    	mov    0x80550f8,%edx
 804a826:	c1 e2 02             	shl    $0x2,%edx
 804a829:	01 d0                	add    %edx,%eax
 804a82b:	8b 00                	mov    (%eax),%eax
 804a82d:	85 c0                	test   %eax,%eax
 804a82f:	74 44                	je     804a875 <yy_switch_to_buffer+0x99>
 804a831:	a1 0c 51 05 08       	mov    0x805510c,%eax
 804a836:	0f b6 15 04 51 05 08 	movzbl 0x8055104,%edx
 804a83d:	88 10                	mov    %dl,(%eax)
 804a83f:	a1 00 51 05 08       	mov    0x8055100,%eax
 804a844:	8b 15 f8 50 05 08    	mov    0x80550f8,%edx
 804a84a:	c1 e2 02             	shl    $0x2,%edx
 804a84d:	01 d0                	add    %edx,%eax
 804a84f:	8b 00                	mov    (%eax),%eax
 804a851:	8b 15 0c 51 05 08    	mov    0x805510c,%edx
 804a857:	89 50 08             	mov    %edx,0x8(%eax)
 804a85a:	a1 00 51 05 08       	mov    0x8055100,%eax
 804a85f:	8b 15 f8 50 05 08    	mov    0x80550f8,%edx
 804a865:	c1 e2 02             	shl    $0x2,%edx
 804a868:	01 d0                	add    %edx,%eax
 804a86a:	8b 00                	mov    (%eax),%eax
 804a86c:	8b 15 08 51 05 08    	mov    0x8055108,%edx
 804a872:	89 50 10             	mov    %edx,0x10(%eax)
 804a875:	a1 00 51 05 08       	mov    0x8055100,%eax
 804a87a:	8b 15 f8 50 05 08    	mov    0x80550f8,%edx
 804a880:	c1 e2 02             	shl    $0x2,%edx
 804a883:	01 c2                	add    %eax,%edx
 804a885:	8b 45 08             	mov    0x8(%ebp),%eax
 804a888:	89 02                	mov    %eax,(%edx)
 804a88a:	e8 0f 00 00 00       	call   804a89e <yy_load_buffer_state>
 804a88f:	c7 05 18 51 05 08 01 	movl   $0x1,0x8055118
 804a896:	00 00 00 
 804a899:	eb 01                	jmp    804a89c <yy_switch_to_buffer+0xc0>
 804a89b:	90                   	nop
 804a89c:	c9                   	leave  
 804a89d:	c3                   	ret    

0804a89e <yy_load_buffer_state>:
 804a89e:	55                   	push   %ebp
 804a89f:	89 e5                	mov    %esp,%ebp
 804a8a1:	a1 00 51 05 08       	mov    0x8055100,%eax
 804a8a6:	8b 15 f8 50 05 08    	mov    0x80550f8,%edx
 804a8ac:	c1 e2 02             	shl    $0x2,%edx
 804a8af:	01 d0                	add    %edx,%eax
 804a8b1:	8b 00                	mov    (%eax),%eax
 804a8b3:	8b 40 10             	mov    0x10(%eax),%eax
 804a8b6:	a3 08 51 05 08       	mov    %eax,0x8055108
 804a8bb:	a1 00 51 05 08       	mov    0x8055100,%eax
 804a8c0:	8b 15 f8 50 05 08    	mov    0x80550f8,%edx
 804a8c6:	c1 e2 02             	shl    $0x2,%edx
 804a8c9:	01 d0                	add    %edx,%eax
 804a8cb:	8b 00                	mov    (%eax),%eax
 804a8cd:	8b 40 08             	mov    0x8(%eax),%eax
 804a8d0:	a3 0c 51 05 08       	mov    %eax,0x805510c
 804a8d5:	a1 0c 51 05 08       	mov    0x805510c,%eax
 804a8da:	a3 3c 51 05 08       	mov    %eax,0x805513c
 804a8df:	a1 00 51 05 08       	mov    0x8055100,%eax
 804a8e4:	8b 15 f8 50 05 08    	mov    0x80550f8,%edx
 804a8ea:	c1 e2 02             	shl    $0x2,%edx
 804a8ed:	01 d0                	add    %edx,%eax
 804a8ef:	8b 00                	mov    (%eax),%eax
 804a8f1:	8b 00                	mov    (%eax),%eax
 804a8f3:	a3 ec 50 05 08       	mov    %eax,0x80550ec
 804a8f8:	a1 0c 51 05 08       	mov    0x805510c,%eax
 804a8fd:	0f b6 00             	movzbl (%eax),%eax
 804a900:	a2 04 51 05 08       	mov    %al,0x8055104
 804a905:	90                   	nop
 804a906:	5d                   	pop    %ebp
 804a907:	c3                   	ret    

0804a908 <yy_create_buffer>:
 804a908:	55                   	push   %ebp
 804a909:	89 e5                	mov    %esp,%ebp
 804a90b:	83 ec 18             	sub    $0x18,%esp
 804a90e:	83 ec 0c             	sub    $0xc,%esp
 804a911:	6a 30                	push   $0x30
 804a913:	e8 eb 07 00 00       	call   804b103 <yyalloc>
 804a918:	83 c4 10             	add    $0x10,%esp
 804a91b:	89 45 f4             	mov    %eax,-0xc(%ebp)
 804a91e:	83 7d f4 00          	cmpl   $0x0,-0xc(%ebp)
 804a922:	75 0d                	jne    804a931 <yy_create_buffer+0x29>
 804a924:	83 ec 0c             	sub    $0xc,%esp
 804a927:	68 bc 0e 05 08       	push   $0x8050ebc
 804a92c:	e8 3a 06 00 00       	call   804af6b <yy_fatal_error>
 804a931:	8b 55 0c             	mov    0xc(%ebp),%edx
 804a934:	8b 45 f4             	mov    -0xc(%ebp),%eax
 804a937:	89 50 0c             	mov    %edx,0xc(%eax)
 804a93a:	8b 45 f4             	mov    -0xc(%ebp),%eax
 804a93d:	8b 40 0c             	mov    0xc(%eax),%eax
 804a940:	83 c0 02             	add    $0x2,%eax
 804a943:	83 ec 0c             	sub    $0xc,%esp
 804a946:	50                   	push   %eax
 804a947:	e8 b7 07 00 00       	call   804b103 <yyalloc>
 804a94c:	83 c4 10             	add    $0x10,%esp
 804a94f:	89 c2                	mov    %eax,%edx
 804a951:	8b 45 f4             	mov    -0xc(%ebp),%eax
 804a954:	89 50 04             	mov    %edx,0x4(%eax)
 804a957:	8b 45 f4             	mov    -0xc(%ebp),%eax
 804a95a:	8b 40 04             	mov    0x4(%eax),%eax
 804a95d:	85 c0                	test   %eax,%eax
 804a95f:	75 0d                	jne    804a96e <yy_create_buffer+0x66>
 804a961:	83 ec 0c             	sub    $0xc,%esp
 804a964:	68 bc 0e 05 08       	push   $0x8050ebc
 804a969:	e8 fd 05 00 00       	call   804af6b <yy_fatal_error>
 804a96e:	8b 45 f4             	mov    -0xc(%ebp),%eax
 804a971:	c7 40 14 01 00 00 00 	movl   $0x1,0x14(%eax)
 804a978:	83 ec 08             	sub    $0x8,%esp
 804a97b:	ff 75 08             	pushl  0x8(%ebp)
 804a97e:	ff 75 f4             	pushl  -0xc(%ebp)
 804a981:	e8 80 00 00 00       	call   804aa06 <yy_init_buffer>
 804a986:	83 c4 10             	add    $0x10,%esp
 804a989:	8b 45 f4             	mov    -0xc(%ebp),%eax
 804a98c:	c9                   	leave  
 804a98d:	c3                   	ret    

0804a98e <yy_delete_buffer>:
 804a98e:	55                   	push   %ebp
 804a98f:	89 e5                	mov    %esp,%ebp
 804a991:	83 ec 08             	sub    $0x8,%esp
 804a994:	83 7d 08 00          	cmpl   $0x0,0x8(%ebp)
 804a998:	74 69                	je     804aa03 <yy_delete_buffer+0x75>
 804a99a:	a1 00 51 05 08       	mov    0x8055100,%eax
 804a99f:	85 c0                	test   %eax,%eax
 804a9a1:	74 14                	je     804a9b7 <yy_delete_buffer+0x29>
 804a9a3:	a1 00 51 05 08       	mov    0x8055100,%eax
 804a9a8:	8b 15 f8 50 05 08    	mov    0x80550f8,%edx
 804a9ae:	c1 e2 02             	shl    $0x2,%edx
 804a9b1:	01 d0                	add    %edx,%eax
 804a9b3:	8b 00                	mov    (%eax),%eax
 804a9b5:	eb 05                	jmp    804a9bc <yy_delete_buffer+0x2e>
 804a9b7:	b8 00 00 00 00       	mov    $0x0,%eax
 804a9bc:	3b 45 08             	cmp    0x8(%ebp),%eax
 804a9bf:	75 16                	jne    804a9d7 <yy_delete_buffer+0x49>
 804a9c1:	a1 00 51 05 08       	mov    0x8055100,%eax
 804a9c6:	8b 15 f8 50 05 08    	mov    0x80550f8,%edx
 804a9cc:	c1 e2 02             	shl    $0x2,%edx
 804a9cf:	01 d0                	add    %edx,%eax
 804a9d1:	c7 00 00 00 00 00    	movl   $0x0,(%eax)
 804a9d7:	8b 45 08             	mov    0x8(%ebp),%eax
 804a9da:	8b 40 14             	mov    0x14(%eax),%eax
 804a9dd:	85 c0                	test   %eax,%eax
 804a9df:	74 12                	je     804a9f3 <yy_delete_buffer+0x65>
 804a9e1:	8b 45 08             	mov    0x8(%ebp),%eax
 804a9e4:	8b 40 04             	mov    0x4(%eax),%eax
 804a9e7:	83 ec 0c             	sub    $0xc,%esp
 804a9ea:	50                   	push   %eax
 804a9eb:	e8 42 07 00 00       	call   804b132 <yyfree>
 804a9f0:	83 c4 10             	add    $0x10,%esp
 804a9f3:	83 ec 0c             	sub    $0xc,%esp
 804a9f6:	ff 75 08             	pushl  0x8(%ebp)
 804a9f9:	e8 34 07 00 00       	call   804b132 <yyfree>
 804a9fe:	83 c4 10             	add    $0x10,%esp
 804aa01:	eb 01                	jmp    804aa04 <yy_delete_buffer+0x76>
 804aa03:	90                   	nop
 804aa04:	c9                   	leave  
 804aa05:	c3                   	ret    

0804aa06 <yy_init_buffer>:
 804aa06:	55                   	push   %ebp
 804aa07:	89 e5                	mov    %esp,%ebp
 804aa09:	83 ec 18             	sub    $0x18,%esp
 804aa0c:	e8 ef dd ff ff       	call   8048800 <__errno_location@plt>
 804aa11:	8b 00                	mov    (%eax),%eax
 804aa13:	89 45 f4             	mov    %eax,-0xc(%ebp)
 804aa16:	83 ec 0c             	sub    $0xc,%esp
 804aa19:	ff 75 08             	pushl  0x8(%ebp)
 804aa1c:	e8 95 00 00 00       	call   804aab6 <yy_flush_buffer>
 804aa21:	83 c4 10             	add    $0x10,%esp
 804aa24:	8b 45 08             	mov    0x8(%ebp),%eax
 804aa27:	8b 55 0c             	mov    0xc(%ebp),%edx
 804aa2a:	89 10                	mov    %edx,(%eax)
 804aa2c:	8b 45 08             	mov    0x8(%ebp),%eax
 804aa2f:	c7 40 28 01 00 00 00 	movl   $0x1,0x28(%eax)
 804aa36:	a1 00 51 05 08       	mov    0x8055100,%eax
 804aa3b:	85 c0                	test   %eax,%eax
 804aa3d:	74 14                	je     804aa53 <yy_init_buffer+0x4d>
 804aa3f:	a1 00 51 05 08       	mov    0x8055100,%eax
 804aa44:	8b 15 f8 50 05 08    	mov    0x80550f8,%edx
 804aa4a:	c1 e2 02             	shl    $0x2,%edx
 804aa4d:	01 d0                	add    %edx,%eax
 804aa4f:	8b 00                	mov    (%eax),%eax
 804aa51:	eb 05                	jmp    804aa58 <yy_init_buffer+0x52>
 804aa53:	b8 00 00 00 00       	mov    $0x0,%eax
 804aa58:	3b 45 08             	cmp    0x8(%ebp),%eax
 804aa5b:	74 14                	je     804aa71 <yy_init_buffer+0x6b>
 804aa5d:	8b 45 08             	mov    0x8(%ebp),%eax
 804aa60:	c7 40 20 01 00 00 00 	movl   $0x1,0x20(%eax)
 804aa67:	8b 45 08             	mov    0x8(%ebp),%eax
 804aa6a:	c7 40 24 00 00 00 00 	movl   $0x0,0x24(%eax)
 804aa71:	83 7d 0c 00          	cmpl   $0x0,0xc(%ebp)
 804aa75:	74 25                	je     804aa9c <yy_init_buffer+0x96>
 804aa77:	83 ec 0c             	sub    $0xc,%esp
 804aa7a:	ff 75 0c             	pushl  0xc(%ebp)
 804aa7d:	e8 8e dd ff ff       	call   8048810 <fileno@plt>
 804aa82:	83 c4 10             	add    $0x10,%esp
 804aa85:	83 ec 0c             	sub    $0xc,%esp
 804aa88:	50                   	push   %eax
 804aa89:	e8 b2 dd ff ff       	call   8048840 <isatty@plt>
 804aa8e:	83 c4 10             	add    $0x10,%esp
 804aa91:	85 c0                	test   %eax,%eax
 804aa93:	7e 07                	jle    804aa9c <yy_init_buffer+0x96>
 804aa95:	ba 01 00 00 00       	mov    $0x1,%edx
 804aa9a:	eb 05                	jmp    804aaa1 <yy_init_buffer+0x9b>
 804aa9c:	ba 00 00 00 00       	mov    $0x0,%edx
 804aaa1:	8b 45 08             	mov    0x8(%ebp),%eax
 804aaa4:	89 50 18             	mov    %edx,0x18(%eax)
 804aaa7:	e8 54 dd ff ff       	call   8048800 <__errno_location@plt>
 804aaac:	89 c2                	mov    %eax,%edx
 804aaae:	8b 45 f4             	mov    -0xc(%ebp),%eax
 804aab1:	89 02                	mov    %eax,(%edx)
 804aab3:	90                   	nop
 804aab4:	c9                   	leave  
 804aab5:	c3                   	ret    

0804aab6 <yy_flush_buffer>:
 804aab6:	55                   	push   %ebp
 804aab7:	89 e5                	mov    %esp,%ebp
 804aab9:	83 7d 08 00          	cmpl   $0x0,0x8(%ebp)
 804aabd:	74 6d                	je     804ab2c <yy_flush_buffer+0x76>
 804aabf:	8b 45 08             	mov    0x8(%ebp),%eax
 804aac2:	c7 40 10 00 00 00 00 	movl   $0x0,0x10(%eax)
 804aac9:	8b 45 08             	mov    0x8(%ebp),%eax
 804aacc:	8b 40 04             	mov    0x4(%eax),%eax
 804aacf:	c6 00 00             	movb   $0x0,(%eax)
 804aad2:	8b 45 08             	mov    0x8(%ebp),%eax
 804aad5:	8b 40 04             	mov    0x4(%eax),%eax
 804aad8:	83 c0 01             	add    $0x1,%eax
 804aadb:	c6 00 00             	movb   $0x0,(%eax)
 804aade:	8b 45 08             	mov    0x8(%ebp),%eax
 804aae1:	8b 50 04             	mov    0x4(%eax),%edx
 804aae4:	8b 45 08             	mov    0x8(%ebp),%eax
 804aae7:	89 50 08             	mov    %edx,0x8(%eax)
 804aaea:	8b 45 08             	mov    0x8(%ebp),%eax
 804aaed:	c7 40 1c 01 00 00 00 	movl   $0x1,0x1c(%eax)
 804aaf4:	8b 45 08             	mov    0x8(%ebp),%eax
 804aaf7:	c7 40 2c 00 00 00 00 	movl   $0x0,0x2c(%eax)
 804aafe:	a1 00 51 05 08       	mov    0x8055100,%eax
 804ab03:	85 c0                	test   %eax,%eax
 804ab05:	74 14                	je     804ab1b <yy_flush_buffer+0x65>
 804ab07:	a1 00 51 05 08       	mov    0x8055100,%eax
 804ab0c:	8b 15 f8 50 05 08    	mov    0x80550f8,%edx
 804ab12:	c1 e2 02             	shl    $0x2,%edx
 804ab15:	01 d0                	add    %edx,%eax
 804ab17:	8b 00                	mov    (%eax),%eax
 804ab19:	eb 05                	jmp    804ab20 <yy_flush_buffer+0x6a>
 804ab1b:	b8 00 00 00 00       	mov    $0x0,%eax
 804ab20:	3b 45 08             	cmp    0x8(%ebp),%eax
 804ab23:	75 08                	jne    804ab2d <yy_flush_buffer+0x77>
 804ab25:	e8 74 fd ff ff       	call   804a89e <yy_load_buffer_state>
 804ab2a:	eb 01                	jmp    804ab2d <yy_flush_buffer+0x77>
 804ab2c:	90                   	nop
 804ab2d:	5d                   	pop    %ebp
 804ab2e:	c3                   	ret    

0804ab2f <yypush_buffer_state>:
 804ab2f:	55                   	push   %ebp
 804ab30:	89 e5                	mov    %esp,%ebp
 804ab32:	83 ec 08             	sub    $0x8,%esp
 804ab35:	83 7d 08 00          	cmpl   $0x0,0x8(%ebp)
 804ab39:	0f 84 ba 00 00 00    	je     804abf9 <yypush_buffer_state+0xca>
 804ab3f:	e8 72 01 00 00       	call   804acb6 <yyensure_buffer_stack>
 804ab44:	a1 00 51 05 08       	mov    0x8055100,%eax
 804ab49:	85 c0                	test   %eax,%eax
 804ab4b:	74 5a                	je     804aba7 <yypush_buffer_state+0x78>
 804ab4d:	a1 00 51 05 08       	mov    0x8055100,%eax
 804ab52:	8b 15 f8 50 05 08    	mov    0x80550f8,%edx
 804ab58:	c1 e2 02             	shl    $0x2,%edx
 804ab5b:	01 d0                	add    %edx,%eax
 804ab5d:	8b 00                	mov    (%eax),%eax
 804ab5f:	85 c0                	test   %eax,%eax
 804ab61:	74 44                	je     804aba7 <yypush_buffer_state+0x78>
 804ab63:	a1 0c 51 05 08       	mov    0x805510c,%eax
 804ab68:	0f b6 15 04 51 05 08 	movzbl 0x8055104,%edx
 804ab6f:	88 10                	mov    %dl,(%eax)
 804ab71:	a1 00 51 05 08       	mov    0x8055100,%eax
 804ab76:	8b 15 f8 50 05 08    	mov    0x80550f8,%edx
 804ab7c:	c1 e2 02             	shl    $0x2,%edx
 804ab7f:	01 d0                	add    %edx,%eax
 804ab81:	8b 00                	mov    (%eax),%eax
 804ab83:	8b 15 0c 51 05 08    	mov    0x805510c,%edx
 804ab89:	89 50 08             	mov    %edx,0x8(%eax)
 804ab8c:	a1 00 51 05 08       	mov    0x8055100,%eax
 804ab91:	8b 15 f8 50 05 08    	mov    0x80550f8,%edx
 804ab97:	c1 e2 02             	shl    $0x2,%edx
 804ab9a:	01 d0                	add    %edx,%eax
 804ab9c:	8b 00                	mov    (%eax),%eax
 804ab9e:	8b 15 08 51 05 08    	mov    0x8055108,%edx
 804aba4:	89 50 10             	mov    %edx,0x10(%eax)
 804aba7:	a1 00 51 05 08       	mov    0x8055100,%eax
 804abac:	85 c0                	test   %eax,%eax
 804abae:	74 23                	je     804abd3 <yypush_buffer_state+0xa4>
 804abb0:	a1 00 51 05 08       	mov    0x8055100,%eax
 804abb5:	8b 15 f8 50 05 08    	mov    0x80550f8,%edx
 804abbb:	c1 e2 02             	shl    $0x2,%edx
 804abbe:	01 d0                	add    %edx,%eax
 804abc0:	8b 00                	mov    (%eax),%eax
 804abc2:	85 c0                	test   %eax,%eax
 804abc4:	74 0d                	je     804abd3 <yypush_buffer_state+0xa4>
 804abc6:	a1 f8 50 05 08       	mov    0x80550f8,%eax
 804abcb:	83 c0 01             	add    $0x1,%eax
 804abce:	a3 f8 50 05 08       	mov    %eax,0x80550f8
 804abd3:	a1 00 51 05 08       	mov    0x8055100,%eax
 804abd8:	8b 15 f8 50 05 08    	mov    0x80550f8,%edx
 804abde:	c1 e2 02             	shl    $0x2,%edx
 804abe1:	01 c2                	add    %eax,%edx
 804abe3:	8b 45 08             	mov    0x8(%ebp),%eax
 804abe6:	89 02                	mov    %eax,(%edx)
 804abe8:	e8 b1 fc ff ff       	call   804a89e <yy_load_buffer_state>
 804abed:	c7 05 18 51 05 08 01 	movl   $0x1,0x8055118
 804abf4:	00 00 00 
 804abf7:	eb 01                	jmp    804abfa <yypush_buffer_state+0xcb>
 804abf9:	90                   	nop
 804abfa:	c9                   	leave  
 804abfb:	c3                   	ret    

0804abfc <yypop_buffer_state>:
 804abfc:	55                   	push   %ebp
 804abfd:	89 e5                	mov    %esp,%ebp
 804abff:	83 ec 08             	sub    $0x8,%esp
 804ac02:	a1 00 51 05 08       	mov    0x8055100,%eax
 804ac07:	85 c0                	test   %eax,%eax
 804ac09:	0f 84 a4 00 00 00    	je     804acb3 <yypop_buffer_state+0xb7>
 804ac0f:	a1 00 51 05 08       	mov    0x8055100,%eax
 804ac14:	8b 15 f8 50 05 08    	mov    0x80550f8,%edx
 804ac1a:	c1 e2 02             	shl    $0x2,%edx
 804ac1d:	01 d0                	add    %edx,%eax
 804ac1f:	8b 00                	mov    (%eax),%eax
 804ac21:	85 c0                	test   %eax,%eax
 804ac23:	0f 84 8a 00 00 00    	je     804acb3 <yypop_buffer_state+0xb7>
 804ac29:	a1 00 51 05 08       	mov    0x8055100,%eax
 804ac2e:	85 c0                	test   %eax,%eax
 804ac30:	74 14                	je     804ac46 <yypop_buffer_state+0x4a>
 804ac32:	a1 00 51 05 08       	mov    0x8055100,%eax
 804ac37:	8b 15 f8 50 05 08    	mov    0x80550f8,%edx
 804ac3d:	c1 e2 02             	shl    $0x2,%edx
 804ac40:	01 d0                	add    %edx,%eax
 804ac42:	8b 00                	mov    (%eax),%eax
 804ac44:	eb 05                	jmp    804ac4b <yypop_buffer_state+0x4f>
 804ac46:	b8 00 00 00 00       	mov    $0x0,%eax
 804ac4b:	83 ec 0c             	sub    $0xc,%esp
 804ac4e:	50                   	push   %eax
 804ac4f:	e8 3a fd ff ff       	call   804a98e <yy_delete_buffer>
 804ac54:	83 c4 10             	add    $0x10,%esp
 804ac57:	a1 00 51 05 08       	mov    0x8055100,%eax
 804ac5c:	8b 15 f8 50 05 08    	mov    0x80550f8,%edx
 804ac62:	c1 e2 02             	shl    $0x2,%edx
 804ac65:	01 d0                	add    %edx,%eax
 804ac67:	c7 00 00 00 00 00    	movl   $0x0,(%eax)
 804ac6d:	a1 f8 50 05 08       	mov    0x80550f8,%eax
 804ac72:	85 c0                	test   %eax,%eax
 804ac74:	74 0d                	je     804ac83 <yypop_buffer_state+0x87>
 804ac76:	a1 f8 50 05 08       	mov    0x80550f8,%eax
 804ac7b:	83 e8 01             	sub    $0x1,%eax
 804ac7e:	a3 f8 50 05 08       	mov    %eax,0x80550f8
 804ac83:	a1 00 51 05 08       	mov    0x8055100,%eax
 804ac88:	85 c0                	test   %eax,%eax
 804ac8a:	74 28                	je     804acb4 <yypop_buffer_state+0xb8>
 804ac8c:	a1 00 51 05 08       	mov    0x8055100,%eax
 804ac91:	8b 15 f8 50 05 08    	mov    0x80550f8,%edx
 804ac97:	c1 e2 02             	shl    $0x2,%edx
 804ac9a:	01 d0                	add    %edx,%eax
 804ac9c:	8b 00                	mov    (%eax),%eax
 804ac9e:	85 c0                	test   %eax,%eax
 804aca0:	74 12                	je     804acb4 <yypop_buffer_state+0xb8>
 804aca2:	e8 f7 fb ff ff       	call   804a89e <yy_load_buffer_state>
 804aca7:	c7 05 18 51 05 08 01 	movl   $0x1,0x8055118
 804acae:	00 00 00 
 804acb1:	eb 01                	jmp    804acb4 <yypop_buffer_state+0xb8>
 804acb3:	90                   	nop
 804acb4:	c9                   	leave  
 804acb5:	c3                   	ret    

0804acb6 <yyensure_buffer_stack>:
 804acb6:	55                   	push   %ebp
 804acb7:	89 e5                	mov    %esp,%ebp
 804acb9:	83 ec 18             	sub    $0x18,%esp
 804acbc:	a1 00 51 05 08       	mov    0x8055100,%eax
 804acc1:	85 c0                	test   %eax,%eax
 804acc3:	75 69                	jne    804ad2e <yyensure_buffer_stack+0x78>
 804acc5:	c7 45 f0 01 00 00 00 	movl   $0x1,-0x10(%ebp)
 804accc:	8b 45 f0             	mov    -0x10(%ebp),%eax
 804accf:	c1 e0 02             	shl    $0x2,%eax
 804acd2:	83 ec 0c             	sub    $0xc,%esp
 804acd5:	50                   	push   %eax
 804acd6:	e8 28 04 00 00       	call   804b103 <yyalloc>
 804acdb:	83 c4 10             	add    $0x10,%esp
 804acde:	a3 00 51 05 08       	mov    %eax,0x8055100
 804ace3:	a1 00 51 05 08       	mov    0x8055100,%eax
 804ace8:	85 c0                	test   %eax,%eax
 804acea:	75 0d                	jne    804acf9 <yyensure_buffer_stack+0x43>
 804acec:	83 ec 0c             	sub    $0xc,%esp
 804acef:	68 e8 0e 05 08       	push   $0x8050ee8
 804acf4:	e8 72 02 00 00       	call   804af6b <yy_fatal_error>
 804acf9:	8b 45 f0             	mov    -0x10(%ebp),%eax
 804acfc:	8d 14 85 00 00 00 00 	lea    0x0(,%eax,4),%edx
 804ad03:	a1 00 51 05 08       	mov    0x8055100,%eax
 804ad08:	83 ec 04             	sub    $0x4,%esp
 804ad0b:	52                   	push   %edx
 804ad0c:	6a 00                	push   $0x0
 804ad0e:	50                   	push   %eax
 804ad0f:	e8 cc da ff ff       	call   80487e0 <memset@plt>
 804ad14:	83 c4 10             	add    $0x10,%esp
 804ad17:	8b 45 f0             	mov    -0x10(%ebp),%eax
 804ad1a:	a3 fc 50 05 08       	mov    %eax,0x80550fc
 804ad1f:	c7 05 f8 50 05 08 00 	movl   $0x0,0x80550f8
 804ad26:	00 00 00 
 804ad29:	e9 8e 00 00 00       	jmp    804adbc <yyensure_buffer_stack+0x106>
 804ad2e:	a1 fc 50 05 08       	mov    0x80550fc,%eax
 804ad33:	8d 50 ff             	lea    -0x1(%eax),%edx
 804ad36:	a1 f8 50 05 08       	mov    0x80550f8,%eax
 804ad3b:	39 c2                	cmp    %eax,%edx
 804ad3d:	77 7d                	ja     804adbc <yyensure_buffer_stack+0x106>
 804ad3f:	c7 45 f4 08 00 00 00 	movl   $0x8,-0xc(%ebp)
 804ad46:	8b 15 fc 50 05 08    	mov    0x80550fc,%edx
 804ad4c:	8b 45 f4             	mov    -0xc(%ebp),%eax
 804ad4f:	01 d0                	add    %edx,%eax
 804ad51:	89 45 f0             	mov    %eax,-0x10(%ebp)
 804ad54:	8b 45 f0             	mov    -0x10(%ebp),%eax
 804ad57:	8d 14 85 00 00 00 00 	lea    0x0(,%eax,4),%edx
 804ad5e:	a1 00 51 05 08       	mov    0x8055100,%eax
 804ad63:	83 ec 08             	sub    $0x8,%esp
 804ad66:	52                   	push   %edx
 804ad67:	50                   	push   %eax
 804ad68:	e8 ac 03 00 00       	call   804b119 <yyrealloc>
 804ad6d:	83 c4 10             	add    $0x10,%esp
 804ad70:	a3 00 51 05 08       	mov    %eax,0x8055100
 804ad75:	a1 00 51 05 08       	mov    0x8055100,%eax
 804ad7a:	85 c0                	test   %eax,%eax
 804ad7c:	75 0d                	jne    804ad8b <yyensure_buffer_stack+0xd5>
 804ad7e:	83 ec 0c             	sub    $0xc,%esp
 804ad81:	68 e8 0e 05 08       	push   $0x8050ee8
 804ad86:	e8 e0 01 00 00       	call   804af6b <yy_fatal_error>
 804ad8b:	8b 45 f4             	mov    -0xc(%ebp),%eax
 804ad8e:	8d 14 85 00 00 00 00 	lea    0x0(,%eax,4),%edx
 804ad95:	a1 00 51 05 08       	mov    0x8055100,%eax
 804ad9a:	8b 0d fc 50 05 08    	mov    0x80550fc,%ecx
 804ada0:	c1 e1 02             	shl    $0x2,%ecx
 804ada3:	01 c8                	add    %ecx,%eax
 804ada5:	83 ec 04             	sub    $0x4,%esp
 804ada8:	52                   	push   %edx
 804ada9:	6a 00                	push   $0x0
 804adab:	50                   	push   %eax
 804adac:	e8 2f da ff ff       	call   80487e0 <memset@plt>
 804adb1:	83 c4 10             	add    $0x10,%esp
 804adb4:	8b 45 f0             	mov    -0x10(%ebp),%eax
 804adb7:	a3 fc 50 05 08       	mov    %eax,0x80550fc
 804adbc:	c9                   	leave  
 804adbd:	c3                   	ret    

0804adbe <yy_scan_buffer>:
 804adbe:	55                   	push   %ebp
 804adbf:	89 e5                	mov    %esp,%ebp
 804adc1:	83 ec 18             	sub    $0x18,%esp
 804adc4:	83 7d 0c 01          	cmpl   $0x1,0xc(%ebp)
 804adc8:	76 24                	jbe    804adee <yy_scan_buffer+0x30>
 804adca:	8b 45 0c             	mov    0xc(%ebp),%eax
 804adcd:	8d 50 fe             	lea    -0x2(%eax),%edx
 804add0:	8b 45 08             	mov    0x8(%ebp),%eax
 804add3:	01 d0                	add    %edx,%eax
 804add5:	0f b6 00             	movzbl (%eax),%eax
 804add8:	84 c0                	test   %al,%al
 804adda:	75 12                	jne    804adee <yy_scan_buffer+0x30>
 804addc:	8b 45 0c             	mov    0xc(%ebp),%eax
 804addf:	8d 50 ff             	lea    -0x1(%eax),%edx
 804ade2:	8b 45 08             	mov    0x8(%ebp),%eax
 804ade5:	01 d0                	add    %edx,%eax
 804ade7:	0f b6 00             	movzbl (%eax),%eax
 804adea:	84 c0                	test   %al,%al
 804adec:	74 0a                	je     804adf8 <yy_scan_buffer+0x3a>
 804adee:	b8 00 00 00 00       	mov    $0x0,%eax
 804adf3:	e9 9e 00 00 00       	jmp    804ae96 <yy_scan_buffer+0xd8>
 804adf8:	83 ec 0c             	sub    $0xc,%esp
 804adfb:	6a 30                	push   $0x30
 804adfd:	e8 01 03 00 00       	call   804b103 <yyalloc>
 804ae02:	83 c4 10             	add    $0x10,%esp
 804ae05:	89 45 f4             	mov    %eax,-0xc(%ebp)
 804ae08:	83 7d f4 00          	cmpl   $0x0,-0xc(%ebp)
 804ae0c:	75 0d                	jne    804ae1b <yy_scan_buffer+0x5d>
 804ae0e:	83 ec 0c             	sub    $0xc,%esp
 804ae11:	68 1c 0f 05 08       	push   $0x8050f1c
 804ae16:	e8 50 01 00 00       	call   804af6b <yy_fatal_error>
 804ae1b:	8b 45 0c             	mov    0xc(%ebp),%eax
 804ae1e:	8d 50 fe             	lea    -0x2(%eax),%edx
 804ae21:	8b 45 f4             	mov    -0xc(%ebp),%eax
 804ae24:	89 50 0c             	mov    %edx,0xc(%eax)
 804ae27:	8b 45 f4             	mov    -0xc(%ebp),%eax
 804ae2a:	8b 55 08             	mov    0x8(%ebp),%edx
 804ae2d:	89 50 04             	mov    %edx,0x4(%eax)
 804ae30:	8b 45 f4             	mov    -0xc(%ebp),%eax
 804ae33:	8b 50 04             	mov    0x4(%eax),%edx
 804ae36:	8b 45 f4             	mov    -0xc(%ebp),%eax
 804ae39:	89 50 08             	mov    %edx,0x8(%eax)
 804ae3c:	8b 45 f4             	mov    -0xc(%ebp),%eax
 804ae3f:	c7 40 14 00 00 00 00 	movl   $0x0,0x14(%eax)
 804ae46:	8b 45 f4             	mov    -0xc(%ebp),%eax
 804ae49:	c7 00 00 00 00 00    	movl   $0x0,(%eax)
 804ae4f:	8b 45 f4             	mov    -0xc(%ebp),%eax
 804ae52:	8b 40 0c             	mov    0xc(%eax),%eax
 804ae55:	89 c2                	mov    %eax,%edx
 804ae57:	8b 45 f4             	mov    -0xc(%ebp),%eax
 804ae5a:	89 50 10             	mov    %edx,0x10(%eax)
 804ae5d:	8b 45 f4             	mov    -0xc(%ebp),%eax
 804ae60:	c7 40 18 00 00 00 00 	movl   $0x0,0x18(%eax)
 804ae67:	8b 45 f4             	mov    -0xc(%ebp),%eax
 804ae6a:	c7 40 1c 01 00 00 00 	movl   $0x1,0x1c(%eax)
 804ae71:	8b 45 f4             	mov    -0xc(%ebp),%eax
 804ae74:	c7 40 28 00 00 00 00 	movl   $0x0,0x28(%eax)
 804ae7b:	8b 45 f4             	mov    -0xc(%ebp),%eax
 804ae7e:	c7 40 2c 00 00 00 00 	movl   $0x0,0x2c(%eax)
 804ae85:	83 ec 0c             	sub    $0xc,%esp
 804ae88:	ff 75 f4             	pushl  -0xc(%ebp)
 804ae8b:	e8 4c f9 ff ff       	call   804a7dc <yy_switch_to_buffer>
 804ae90:	83 c4 10             	add    $0x10,%esp
 804ae93:	8b 45 f4             	mov    -0xc(%ebp),%eax
 804ae96:	c9                   	leave  
 804ae97:	c3                   	ret    

0804ae98 <yy_scan_string>:
 804ae98:	55                   	push   %ebp
 804ae99:	89 e5                	mov    %esp,%ebp
 804ae9b:	83 ec 08             	sub    $0x8,%esp
 804ae9e:	83 ec 0c             	sub    $0xc,%esp
 804aea1:	ff 75 08             	pushl  0x8(%ebp)
 804aea4:	e8 f7 d8 ff ff       	call   80487a0 <strlen@plt>
 804aea9:	83 c4 10             	add    $0x10,%esp
 804aeac:	83 ec 08             	sub    $0x8,%esp
 804aeaf:	50                   	push   %eax
 804aeb0:	ff 75 08             	pushl  0x8(%ebp)
 804aeb3:	e8 05 00 00 00       	call   804aebd <yy_scan_bytes>
 804aeb8:	83 c4 10             	add    $0x10,%esp
 804aebb:	c9                   	leave  
 804aebc:	c3                   	ret    

0804aebd <yy_scan_bytes>:
 804aebd:	55                   	push   %ebp
 804aebe:	89 e5                	mov    %esp,%ebp
 804aec0:	83 ec 18             	sub    $0x18,%esp
 804aec3:	8b 45 0c             	mov    0xc(%ebp),%eax
 804aec6:	83 c0 02             	add    $0x2,%eax
 804aec9:	89 45 ec             	mov    %eax,-0x14(%ebp)
 804aecc:	83 ec 0c             	sub    $0xc,%esp
 804aecf:	ff 75 ec             	pushl  -0x14(%ebp)
 804aed2:	e8 2c 02 00 00       	call   804b103 <yyalloc>
 804aed7:	83 c4 10             	add    $0x10,%esp
 804aeda:	89 45 f0             	mov    %eax,-0x10(%ebp)
 804aedd:	83 7d f0 00          	cmpl   $0x0,-0x10(%ebp)
 804aee1:	75 0d                	jne    804aef0 <yy_scan_bytes+0x33>
 804aee3:	83 ec 0c             	sub    $0xc,%esp
 804aee6:	68 48 0f 05 08       	push   $0x8050f48
 804aeeb:	e8 7b 00 00 00       	call   804af6b <yy_fatal_error>
 804aef0:	c7 45 e8 00 00 00 00 	movl   $0x0,-0x18(%ebp)
 804aef7:	eb 19                	jmp    804af12 <yy_scan_bytes+0x55>
 804aef9:	8b 55 f0             	mov    -0x10(%ebp),%edx
 804aefc:	8b 45 e8             	mov    -0x18(%ebp),%eax
 804aeff:	01 c2                	add    %eax,%edx
 804af01:	8b 4d 08             	mov    0x8(%ebp),%ecx
 804af04:	8b 45 e8             	mov    -0x18(%ebp),%eax
 804af07:	01 c8                	add    %ecx,%eax
 804af09:	0f b6 00             	movzbl (%eax),%eax
 804af0c:	88 02                	mov    %al,(%edx)
 804af0e:	83 45 e8 01          	addl   $0x1,-0x18(%ebp)
 804af12:	8b 45 e8             	mov    -0x18(%ebp),%eax
 804af15:	3b 45 0c             	cmp    0xc(%ebp),%eax
 804af18:	72 df                	jb     804aef9 <yy_scan_bytes+0x3c>
 804af1a:	8b 55 f0             	mov    -0x10(%ebp),%edx
 804af1d:	8b 45 0c             	mov    0xc(%ebp),%eax
 804af20:	01 c2                	add    %eax,%edx
 804af22:	8b 45 0c             	mov    0xc(%ebp),%eax
 804af25:	8d 48 01             	lea    0x1(%eax),%ecx
 804af28:	8b 45 f0             	mov    -0x10(%ebp),%eax
 804af2b:	01 c8                	add    %ecx,%eax
 804af2d:	c6 00 00             	movb   $0x0,(%eax)
 804af30:	0f b6 00             	movzbl (%eax),%eax
 804af33:	88 02                	mov    %al,(%edx)
 804af35:	83 ec 08             	sub    $0x8,%esp
 804af38:	ff 75 ec             	pushl  -0x14(%ebp)
 804af3b:	ff 75 f0             	pushl  -0x10(%ebp)
 804af3e:	e8 7b fe ff ff       	call   804adbe <yy_scan_buffer>
 804af43:	83 c4 10             	add    $0x10,%esp
 804af46:	89 45 f4             	mov    %eax,-0xc(%ebp)
 804af49:	83 7d f4 00          	cmpl   $0x0,-0xc(%ebp)
 804af4d:	75 0d                	jne    804af5c <yy_scan_bytes+0x9f>
 804af4f:	83 ec 0c             	sub    $0xc,%esp
 804af52:	68 71 0f 05 08       	push   $0x8050f71
 804af57:	e8 0f 00 00 00       	call   804af6b <yy_fatal_error>
 804af5c:	8b 45 f4             	mov    -0xc(%ebp),%eax
 804af5f:	c7 40 14 01 00 00 00 	movl   $0x1,0x14(%eax)
 804af66:	8b 45 f4             	mov    -0xc(%ebp),%eax
 804af69:	c9                   	leave  
 804af6a:	c3                   	ret    

0804af6b <yy_fatal_error>:
 804af6b:	55                   	push   %ebp
 804af6c:	89 e5                	mov    %esp,%ebp
 804af6e:	83 ec 08             	sub    $0x8,%esp
 804af71:	a1 c0 50 05 08       	mov    0x80550c0,%eax
 804af76:	83 ec 04             	sub    $0x4,%esp
 804af79:	ff 75 08             	pushl  0x8(%ebp)
 804af7c:	68 8f 0f 05 08       	push   $0x8050f8f
 804af81:	50                   	push   %eax
 804af82:	e8 39 d8 ff ff       	call   80487c0 <fprintf@plt>
 804af87:	83 c4 10             	add    $0x10,%esp
 804af8a:	83 ec 0c             	sub    $0xc,%esp
 804af8d:	6a 02                	push   $0x2
 804af8f:	e8 fc d7 ff ff       	call   8048790 <exit@plt>

0804af94 <yyget_lineno>:
 804af94:	55                   	push   %ebp
 804af95:	89 e5                	mov    %esp,%ebp
 804af97:	a1 7c 50 05 08       	mov    0x805507c,%eax
 804af9c:	5d                   	pop    %ebp
 804af9d:	c3                   	ret    

0804af9e <yyget_in>:
 804af9e:	55                   	push   %ebp
 804af9f:	89 e5                	mov    %esp,%ebp
 804afa1:	a1 ec 50 05 08       	mov    0x80550ec,%eax
 804afa6:	5d                   	pop    %ebp
 804afa7:	c3                   	ret    

0804afa8 <yyget_out>:
 804afa8:	55                   	push   %ebp
 804afa9:	89 e5                	mov    %esp,%ebp
 804afab:	a1 f0 50 05 08       	mov    0x80550f0,%eax
 804afb0:	5d                   	pop    %ebp
 804afb1:	c3                   	ret    

0804afb2 <yyget_leng>:
 804afb2:	55                   	push   %ebp
 804afb3:	89 e5                	mov    %esp,%ebp
 804afb5:	a1 44 51 05 08       	mov    0x8055144,%eax
 804afba:	5d                   	pop    %ebp
 804afbb:	c3                   	ret    

0804afbc <yyget_text>:
 804afbc:	55                   	push   %ebp
 804afbd:	89 e5                	mov    %esp,%ebp
 804afbf:	a1 3c 51 05 08       	mov    0x805513c,%eax
 804afc4:	5d                   	pop    %ebp
 804afc5:	c3                   	ret    

0804afc6 <yyset_lineno>:
 804afc6:	55                   	push   %ebp
 804afc7:	89 e5                	mov    %esp,%ebp
 804afc9:	8b 45 08             	mov    0x8(%ebp),%eax
 804afcc:	a3 7c 50 05 08       	mov    %eax,0x805507c
 804afd1:	90                   	nop
 804afd2:	5d                   	pop    %ebp
 804afd3:	c3                   	ret    

0804afd4 <yyset_in>:
 804afd4:	55                   	push   %ebp
 804afd5:	89 e5                	mov    %esp,%ebp
 804afd7:	8b 45 08             	mov    0x8(%ebp),%eax
 804afda:	a3 ec 50 05 08       	mov    %eax,0x80550ec
 804afdf:	90                   	nop
 804afe0:	5d                   	pop    %ebp
 804afe1:	c3                   	ret    

0804afe2 <yyset_out>:
 804afe2:	55                   	push   %ebp
 804afe3:	89 e5                	mov    %esp,%ebp
 804afe5:	8b 45 08             	mov    0x8(%ebp),%eax
 804afe8:	a3 f0 50 05 08       	mov    %eax,0x80550f0
 804afed:	90                   	nop
 804afee:	5d                   	pop    %ebp
 804afef:	c3                   	ret    

0804aff0 <yyget_debug>:
 804aff0:	55                   	push   %ebp
 804aff1:	89 e5                	mov    %esp,%ebp
 804aff3:	a1 f4 50 05 08       	mov    0x80550f4,%eax
 804aff8:	5d                   	pop    %ebp
 804aff9:	c3                   	ret    

0804affa <yyset_debug>:
 804affa:	55                   	push   %ebp
 804affb:	89 e5                	mov    %esp,%ebp
 804affd:	8b 45 08             	mov    0x8(%ebp),%eax
 804b000:	a3 f4 50 05 08       	mov    %eax,0x80550f4
 804b005:	90                   	nop
 804b006:	5d                   	pop    %ebp
 804b007:	c3                   	ret    

0804b008 <yy_init_globals>:
 804b008:	55                   	push   %ebp
 804b009:	89 e5                	mov    %esp,%ebp
 804b00b:	c7 05 7c 50 05 08 01 	movl   $0x1,0x805507c
 804b012:	00 00 00 
 804b015:	c7 05 00 51 05 08 00 	movl   $0x0,0x8055100
 804b01c:	00 00 00 
 804b01f:	c7 05 f8 50 05 08 00 	movl   $0x0,0x80550f8
 804b026:	00 00 00 
 804b029:	c7 05 fc 50 05 08 00 	movl   $0x0,0x80550fc
 804b030:	00 00 00 
 804b033:	c7 05 0c 51 05 08 00 	movl   $0x0,0x805510c
 804b03a:	00 00 00 
 804b03d:	c7 05 10 51 05 08 00 	movl   $0x0,0x8055110
 804b044:	00 00 00 
 804b047:	c7 05 14 51 05 08 00 	movl   $0x0,0x8055114
 804b04e:	00 00 00 
 804b051:	c7 05 ec 50 05 08 00 	movl   $0x0,0x80550ec
 804b058:	00 00 00 
 804b05b:	c7 05 f0 50 05 08 00 	movl   $0x0,0x80550f0
 804b062:	00 00 00 
 804b065:	b8 00 00 00 00       	mov    $0x0,%eax
 804b06a:	5d                   	pop    %ebp
 804b06b:	c3                   	ret    

0804b06c <yylex_destroy>:
 804b06c:	55                   	push   %ebp
 804b06d:	89 e5                	mov    %esp,%ebp
 804b06f:	83 ec 08             	sub    $0x8,%esp
 804b072:	eb 49                	jmp    804b0bd <yylex_destroy+0x51>
 804b074:	a1 00 51 05 08       	mov    0x8055100,%eax
 804b079:	85 c0                	test   %eax,%eax
 804b07b:	74 14                	je     804b091 <yylex_destroy+0x25>
 804b07d:	a1 00 51 05 08       	mov    0x8055100,%eax
 804b082:	8b 15 f8 50 05 08    	mov    0x80550f8,%edx
 804b088:	c1 e2 02             	shl    $0x2,%edx
 804b08b:	01 d0                	add    %edx,%eax
 804b08d:	8b 00                	mov    (%eax),%eax
 804b08f:	eb 05                	jmp    804b096 <yylex_destroy+0x2a>
 804b091:	b8 00 00 00 00       	mov    $0x0,%eax
 804b096:	83 ec 0c             	sub    $0xc,%esp
 804b099:	50                   	push   %eax
 804b09a:	e8 ef f8 ff ff       	call   804a98e <yy_delete_buffer>
 804b09f:	83 c4 10             	add    $0x10,%esp
 804b0a2:	a1 00 51 05 08       	mov    0x8055100,%eax
 804b0a7:	8b 15 f8 50 05 08    	mov    0x80550f8,%edx
 804b0ad:	c1 e2 02             	shl    $0x2,%edx
 804b0b0:	01 d0                	add    %edx,%eax
 804b0b2:	c7 00 00 00 00 00    	movl   $0x0,(%eax)
 804b0b8:	e8 3f fb ff ff       	call   804abfc <yypop_buffer_state>
 804b0bd:	a1 00 51 05 08       	mov    0x8055100,%eax
 804b0c2:	85 c0                	test   %eax,%eax
 804b0c4:	74 16                	je     804b0dc <yylex_destroy+0x70>
 804b0c6:	a1 00 51 05 08       	mov    0x8055100,%eax
 804b0cb:	8b 15 f8 50 05 08    	mov    0x80550f8,%edx
 804b0d1:	c1 e2 02             	shl    $0x2,%edx
 804b0d4:	01 d0                	add    %edx,%eax
 804b0d6:	8b 00                	mov    (%eax),%eax
 804b0d8:	85 c0                	test   %eax,%eax
 804b0da:	75 98                	jne    804b074 <yylex_destroy+0x8>
 804b0dc:	a1 00 51 05 08       	mov    0x8055100,%eax
 804b0e1:	83 ec 0c             	sub    $0xc,%esp
 804b0e4:	50                   	push   %eax
 804b0e5:	e8 48 00 00 00       	call   804b132 <yyfree>
 804b0ea:	83 c4 10             	add    $0x10,%esp
 804b0ed:	c7 05 00 51 05 08 00 	movl   $0x0,0x8055100
 804b0f4:	00 00 00 
 804b0f7:	e8 0c ff ff ff       	call   804b008 <yy_init_globals>
 804b0fc:	b8 00 00 00 00       	mov    $0x0,%eax
 804b101:	c9                   	leave  
 804b102:	c3                   	ret    

0804b103 <yyalloc>:
 804b103:	55                   	push   %ebp
 804b104:	89 e5                	mov    %esp,%ebp
 804b106:	83 ec 08             	sub    $0x8,%esp
 804b109:	83 ec 0c             	sub    $0xc,%esp
 804b10c:	ff 75 08             	pushl  0x8(%ebp)
 804b10f:	e8 5c d6 ff ff       	call   8048770 <malloc@plt>
 804b114:	83 c4 10             	add    $0x10,%esp
 804b117:	c9                   	leave  
 804b118:	c3                   	ret    

0804b119 <yyrealloc>:
 804b119:	55                   	push   %ebp
 804b11a:	89 e5                	mov    %esp,%ebp
 804b11c:	83 ec 08             	sub    $0x8,%esp
 804b11f:	83 ec 08             	sub    $0x8,%esp
 804b122:	ff 75 0c             	pushl  0xc(%ebp)
 804b125:	ff 75 08             	pushl  0x8(%ebp)
 804b128:	e8 33 d6 ff ff       	call   8048760 <realloc@plt>
 804b12d:	83 c4 10             	add    $0x10,%esp
 804b130:	c9                   	leave  
 804b131:	c3                   	ret    

0804b132 <yyfree>:
 804b132:	55                   	push   %ebp
 804b133:	89 e5                	mov    %esp,%ebp
 804b135:	83 ec 08             	sub    $0x8,%esp
 804b138:	83 ec 0c             	sub    $0xc,%esp
 804b13b:	ff 75 08             	pushl  0x8(%ebp)
 804b13e:	e8 8d d5 ff ff       	call   80486d0 <free@plt>
 804b143:	83 c4 10             	add    $0x10,%esp
 804b146:	90                   	nop
 804b147:	c9                   	leave  
 804b148:	c3                   	ret    

0804b149 <yyerror>:
 804b149:	55                   	push   %ebp
 804b14a:	89 e5                	mov    %esp,%ebp
 804b14c:	83 ec 08             	sub    $0x8,%esp
 804b14f:	c7 05 38 51 05 08 01 	movl   $0x1,0x8055138
 804b156:	00 00 00 
 804b159:	8b 15 7c 50 05 08    	mov    0x805507c,%edx
 804b15f:	a1 c0 50 05 08       	mov    0x80550c0,%eax
 804b164:	ff 75 08             	pushl  0x8(%ebp)
 804b167:	52                   	push   %edx
 804b168:	68 93 0f 05 08       	push   $0x8050f93
 804b16d:	50                   	push   %eax
 804b16e:	e8 4d d6 ff ff       	call   80487c0 <fprintf@plt>
 804b173:	83 c4 10             	add    $0x10,%esp
 804b176:	90                   	nop
 804b177:	c9                   	leave  
 804b178:	c3                   	ret    

0804b179 <yystpcpy>:
 804b179:	55                   	push   %ebp
 804b17a:	89 e5                	mov    %esp,%ebp
 804b17c:	83 ec 10             	sub    $0x10,%esp
 804b17f:	8b 45 08             	mov    0x8(%ebp),%eax
 804b182:	89 45 f8             	mov    %eax,-0x8(%ebp)
 804b185:	8b 45 0c             	mov    0xc(%ebp),%eax
 804b188:	89 45 fc             	mov    %eax,-0x4(%ebp)
 804b18b:	eb 01                	jmp    804b18e <yystpcpy+0x15>
 804b18d:	90                   	nop
 804b18e:	8b 45 f8             	mov    -0x8(%ebp),%eax
 804b191:	8d 50 01             	lea    0x1(%eax),%edx
 804b194:	89 55 f8             	mov    %edx,-0x8(%ebp)
 804b197:	8b 55 fc             	mov    -0x4(%ebp),%edx
 804b19a:	8d 4a 01             	lea    0x1(%edx),%ecx
 804b19d:	89 4d fc             	mov    %ecx,-0x4(%ebp)
 804b1a0:	0f b6 12             	movzbl (%edx),%edx
 804b1a3:	88 10                	mov    %dl,(%eax)
 804b1a5:	0f b6 00             	movzbl (%eax),%eax
 804b1a8:	84 c0                	test   %al,%al
 804b1aa:	75 e1                	jne    804b18d <yystpcpy+0x14>
 804b1ac:	8b 45 f8             	mov    -0x8(%ebp),%eax
 804b1af:	83 e8 01             	sub    $0x1,%eax
 804b1b2:	c9                   	leave  
 804b1b3:	c3                   	ret    

0804b1b4 <yytnamerr>:
 804b1b4:	55                   	push   %ebp
 804b1b5:	89 e5                	mov    %esp,%ebp
 804b1b7:	83 ec 18             	sub    $0x18,%esp
 804b1ba:	8b 45 0c             	mov    0xc(%ebp),%eax
 804b1bd:	0f b6 00             	movzbl (%eax),%eax
 804b1c0:	3c 22                	cmp    $0x22,%al
 804b1c2:	75 7b                	jne    804b23f <yytnamerr+0x8b>
 804b1c4:	c7 45 f0 00 00 00 00 	movl   $0x0,-0x10(%ebp)
 804b1cb:	8b 45 0c             	mov    0xc(%ebp),%eax
 804b1ce:	89 45 f4             	mov    %eax,-0xc(%ebp)
 804b1d1:	83 45 f4 01          	addl   $0x1,-0xc(%ebp)
 804b1d5:	8b 45 f4             	mov    -0xc(%ebp),%eax
 804b1d8:	0f b6 00             	movzbl (%eax),%eax
 804b1db:	0f be c0             	movsbl %al,%eax
 804b1de:	83 f8 27             	cmp    $0x27,%eax
 804b1e1:	74 58                	je     804b23b <yytnamerr+0x87>
 804b1e3:	83 f8 27             	cmp    $0x27,%eax
 804b1e6:	7f 07                	jg     804b1ef <yytnamerr+0x3b>
 804b1e8:	83 f8 22             	cmp    $0x22,%eax
 804b1eb:	74 36                	je     804b223 <yytnamerr+0x6f>
 804b1ed:	eb 18                	jmp    804b207 <yytnamerr+0x53>
 804b1ef:	83 f8 2c             	cmp    $0x2c,%eax
 804b1f2:	74 47                	je     804b23b <yytnamerr+0x87>
 804b1f4:	83 f8 5c             	cmp    $0x5c,%eax
 804b1f7:	75 0e                	jne    804b207 <yytnamerr+0x53>
 804b1f9:	83 45 f4 01          	addl   $0x1,-0xc(%ebp)
 804b1fd:	8b 45 f4             	mov    -0xc(%ebp),%eax
 804b200:	0f b6 00             	movzbl (%eax),%eax
 804b203:	3c 5c                	cmp    $0x5c,%al
 804b205:	75 37                	jne    804b23e <yytnamerr+0x8a>
 804b207:	83 7d 08 00          	cmpl   $0x0,0x8(%ebp)
 804b20b:	74 10                	je     804b21d <yytnamerr+0x69>
 804b20d:	8b 55 08             	mov    0x8(%ebp),%edx
 804b210:	8b 45 f0             	mov    -0x10(%ebp),%eax
 804b213:	01 c2                	add    %eax,%edx
 804b215:	8b 45 f4             	mov    -0xc(%ebp),%eax
 804b218:	0f b6 00             	movzbl (%eax),%eax
 804b21b:	88 02                	mov    %al,(%edx)
 804b21d:	83 45 f0 01          	addl   $0x1,-0x10(%ebp)
 804b221:	eb 16                	jmp    804b239 <yytnamerr+0x85>
 804b223:	83 7d 08 00          	cmpl   $0x0,0x8(%ebp)
 804b227:	74 0b                	je     804b234 <yytnamerr+0x80>
 804b229:	8b 55 08             	mov    0x8(%ebp),%edx
 804b22c:	8b 45 f0             	mov    -0x10(%ebp),%eax
 804b22f:	01 d0                	add    %edx,%eax
 804b231:	c6 00 00             	movb   $0x0,(%eax)
 804b234:	8b 45 f0             	mov    -0x10(%ebp),%eax
 804b237:	eb 36                	jmp    804b26f <yytnamerr+0xbb>
 804b239:	eb 96                	jmp    804b1d1 <yytnamerr+0x1d>
 804b23b:	90                   	nop
 804b23c:	eb 01                	jmp    804b23f <yytnamerr+0x8b>
 804b23e:	90                   	nop
 804b23f:	83 7d 08 00          	cmpl   $0x0,0x8(%ebp)
 804b243:	75 10                	jne    804b255 <yytnamerr+0xa1>
 804b245:	83 ec 0c             	sub    $0xc,%esp
 804b248:	ff 75 0c             	pushl  0xc(%ebp)
 804b24b:	e8 50 d5 ff ff       	call   80487a0 <strlen@plt>
 804b250:	83 c4 10             	add    $0x10,%esp
 804b253:	eb 1a                	jmp    804b26f <yytnamerr+0xbb>
 804b255:	83 ec 08             	sub    $0x8,%esp
 804b258:	ff 75 0c             	pushl  0xc(%ebp)
 804b25b:	ff 75 08             	pushl  0x8(%ebp)
 804b25e:	e8 16 ff ff ff       	call   804b179 <yystpcpy>
 804b263:	83 c4 10             	add    $0x10,%esp
 804b266:	89 c2                	mov    %eax,%edx
 804b268:	8b 45 08             	mov    0x8(%ebp),%eax
 804b26b:	29 c2                	sub    %eax,%edx
 804b26d:	89 d0                	mov    %edx,%eax
 804b26f:	c9                   	leave  
 804b270:	c3                   	ret    

0804b271 <yysyntax_error>:
 804b271:	55                   	push   %ebp
 804b272:	89 e5                	mov    %esp,%ebp
 804b274:	83 ec 68             	sub    $0x68,%esp
 804b277:	8b 45 08             	mov    0x8(%ebp),%eax
 804b27a:	89 45 a4             	mov    %eax,-0x5c(%ebp)
 804b27d:	8b 45 0c             	mov    0xc(%ebp),%eax
 804b280:	89 45 a0             	mov    %eax,-0x60(%ebp)
 804b283:	8b 45 10             	mov    0x10(%ebp),%eax
 804b286:	89 45 9c             	mov    %eax,-0x64(%ebp)
 804b289:	65 a1 14 00 00 00    	mov    %gs:0x14,%eax
 804b28f:	89 45 f4             	mov    %eax,-0xc(%ebp)
 804b292:	31 c0                	xor    %eax,%eax
 804b294:	8b 45 14             	mov    0x14(%ebp),%eax
 804b297:	8b 04 85 a0 11 05 08 	mov    0x80511a0(,%eax,4),%eax
 804b29e:	83 ec 08             	sub    $0x8,%esp
 804b2a1:	50                   	push   %eax
 804b2a2:	6a 00                	push   $0x0
 804b2a4:	e8 0b ff ff ff       	call   804b1b4 <yytnamerr>
 804b2a9:	83 c4 10             	add    $0x10,%esp
 804b2ac:	89 45 c4             	mov    %eax,-0x3c(%ebp)
 804b2af:	8b 45 c4             	mov    -0x3c(%ebp),%eax
 804b2b2:	89 45 ac             	mov    %eax,-0x54(%ebp)
 804b2b5:	c7 45 b0 00 00 00 00 	movl   $0x0,-0x50(%ebp)
 804b2bc:	c7 45 b4 00 00 00 00 	movl   $0x0,-0x4c(%ebp)
 804b2c3:	83 7d 14 fe          	cmpl   $0xfffffffe,0x14(%ebp)
 804b2c7:	0f 84 01 01 00 00    	je     804b3ce <yysyntax_error+0x15d>
 804b2cd:	8b 45 9c             	mov    -0x64(%ebp),%eax
 804b2d0:	0f b7 00             	movzwl (%eax),%eax
 804b2d3:	98                   	cwtl   
 804b2d4:	0f b7 84 00 80 12 05 	movzwl 0x8051280(%eax,%eax,1),%eax
 804b2db:	08 
 804b2dc:	98                   	cwtl   
 804b2dd:	89 45 c8             	mov    %eax,-0x38(%ebp)
 804b2e0:	8b 45 b4             	mov    -0x4c(%ebp),%eax
 804b2e3:	8d 50 01             	lea    0x1(%eax),%edx
 804b2e6:	89 55 b4             	mov    %edx,-0x4c(%ebp)
 804b2e9:	8b 55 14             	mov    0x14(%ebp),%edx
 804b2ec:	8b 14 95 a0 11 05 08 	mov    0x80511a0(,%edx,4),%edx
 804b2f3:	89 54 85 e0          	mov    %edx,-0x20(%ebp,%eax,4)
 804b2f7:	83 7d c8 c1          	cmpl   $0xffffffc1,-0x38(%ebp)
 804b2fb:	0f 84 cd 00 00 00    	je     804b3ce <yysyntax_error+0x15d>
 804b301:	83 7d c8 00          	cmpl   $0x0,-0x38(%ebp)
 804b305:	79 07                	jns    804b30e <yysyntax_error+0x9d>
 804b307:	8b 45 c8             	mov    -0x38(%ebp),%eax
 804b30a:	f7 d8                	neg    %eax
 804b30c:	eb 05                	jmp    804b313 <yysyntax_error+0xa2>
 804b30e:	b8 00 00 00 00       	mov    $0x0,%eax
 804b313:	89 45 cc             	mov    %eax,-0x34(%ebp)
 804b316:	b8 56 01 00 00       	mov    $0x156,%eax
 804b31b:	2b 45 c8             	sub    -0x38(%ebp),%eax
 804b31e:	89 45 d0             	mov    %eax,-0x30(%ebp)
 804b321:	b8 1e 00 00 00       	mov    $0x1e,%eax
 804b326:	83 7d d0 1e          	cmpl   $0x1e,-0x30(%ebp)
 804b32a:	0f 4e 45 d0          	cmovle -0x30(%ebp),%eax
 804b32e:	89 45 d4             	mov    %eax,-0x2c(%ebp)
 804b331:	8b 45 cc             	mov    -0x34(%ebp),%eax
 804b334:	89 45 b8             	mov    %eax,-0x48(%ebp)
 804b337:	e9 86 00 00 00       	jmp    804b3c2 <yysyntax_error+0x151>
 804b33c:	8b 55 b8             	mov    -0x48(%ebp),%edx
 804b33f:	8b 45 c8             	mov    -0x38(%ebp),%eax
 804b342:	01 d0                	add    %edx,%eax
 804b344:	0f b7 84 00 60 17 05 	movzwl 0x8051760(%eax,%eax,1),%eax
 804b34b:	08 
 804b34c:	98                   	cwtl   
 804b34d:	3b 45 b8             	cmp    -0x48(%ebp),%eax
 804b350:	75 6c                	jne    804b3be <yysyntax_error+0x14d>
 804b352:	83 7d b8 01          	cmpl   $0x1,-0x48(%ebp)
 804b356:	74 66                	je     804b3be <yysyntax_error+0x14d>
 804b358:	83 7d b4 05          	cmpl   $0x5,-0x4c(%ebp)
 804b35c:	75 0f                	jne    804b36d <yysyntax_error+0xfc>
 804b35e:	c7 45 b4 01 00 00 00 	movl   $0x1,-0x4c(%ebp)
 804b365:	8b 45 c4             	mov    -0x3c(%ebp),%eax
 804b368:	89 45 ac             	mov    %eax,-0x54(%ebp)
 804b36b:	eb 61                	jmp    804b3ce <yysyntax_error+0x15d>
 804b36d:	8b 45 b4             	mov    -0x4c(%ebp),%eax
 804b370:	8d 50 01             	lea    0x1(%eax),%edx
 804b373:	89 55 b4             	mov    %edx,-0x4c(%ebp)
 804b376:	8b 55 b8             	mov    -0x48(%ebp),%edx
 804b379:	8b 14 95 a0 11 05 08 	mov    0x80511a0(,%edx,4),%edx
 804b380:	89 54 85 e0          	mov    %edx,-0x20(%ebp,%eax,4)
 804b384:	8b 45 b8             	mov    -0x48(%ebp),%eax
 804b387:	8b 04 85 a0 11 05 08 	mov    0x80511a0(,%eax,4),%eax
 804b38e:	83 ec 08             	sub    $0x8,%esp
 804b391:	50                   	push   %eax
 804b392:	6a 00                	push   $0x0
 804b394:	e8 1b fe ff ff       	call   804b1b4 <yytnamerr>
 804b399:	83 c4 10             	add    $0x10,%esp
 804b39c:	89 c2                	mov    %eax,%edx
 804b39e:	8b 45 ac             	mov    -0x54(%ebp),%eax
 804b3a1:	01 d0                	add    %edx,%eax
 804b3a3:	89 45 d8             	mov    %eax,-0x28(%ebp)
 804b3a6:	8b 45 ac             	mov    -0x54(%ebp),%eax
 804b3a9:	3b 45 d8             	cmp    -0x28(%ebp),%eax
 804b3ac:	76 0a                	jbe    804b3b8 <yysyntax_error+0x147>
 804b3ae:	b8 02 00 00 00       	mov    $0x2,%eax
 804b3b3:	e9 36 01 00 00       	jmp    804b4ee <yysyntax_error+0x27d>
 804b3b8:	8b 45 d8             	mov    -0x28(%ebp),%eax
 804b3bb:	89 45 ac             	mov    %eax,-0x54(%ebp)
 804b3be:	83 45 b8 01          	addl   $0x1,-0x48(%ebp)
 804b3c2:	8b 45 b8             	mov    -0x48(%ebp),%eax
 804b3c5:	3b 45 d4             	cmp    -0x2c(%ebp),%eax
 804b3c8:	0f 8c 6e ff ff ff    	jl     804b33c <yysyntax_error+0xcb>
 804b3ce:	83 7d b4 05          	cmpl   $0x5,-0x4c(%ebp)
 804b3d2:	77 44                	ja     804b418 <yysyntax_error+0x1a7>
 804b3d4:	8b 45 b4             	mov    -0x4c(%ebp),%eax
 804b3d7:	c1 e0 02             	shl    $0x2,%eax
 804b3da:	05 64 1c 05 08       	add    $0x8051c64,%eax
 804b3df:	8b 00                	mov    (%eax),%eax
 804b3e1:	ff e0                	jmp    *%eax
 804b3e3:	c7 45 b0 68 1b 05 08 	movl   $0x8051b68,-0x50(%ebp)
 804b3ea:	eb 2c                	jmp    804b418 <yysyntax_error+0x1a7>
 804b3ec:	c7 45 b0 75 1b 05 08 	movl   $0x8051b75,-0x50(%ebp)
 804b3f3:	eb 23                	jmp    804b418 <yysyntax_error+0x1a7>
 804b3f5:	c7 45 b0 94 1b 05 08 	movl   $0x8051b94,-0x50(%ebp)
 804b3fc:	eb 1a                	jmp    804b418 <yysyntax_error+0x1a7>
 804b3fe:	c7 45 b0 c0 1b 05 08 	movl   $0x8051bc0,-0x50(%ebp)
 804b405:	eb 11                	jmp    804b418 <yysyntax_error+0x1a7>
 804b407:	c7 45 b0 f0 1b 05 08 	movl   $0x8051bf0,-0x50(%ebp)
 804b40e:	eb 08                	jmp    804b418 <yysyntax_error+0x1a7>
 804b410:	c7 45 b0 28 1c 05 08 	movl   $0x8051c28,-0x50(%ebp)
 804b417:	90                   	nop
 804b418:	83 ec 0c             	sub    $0xc,%esp
 804b41b:	ff 75 b0             	pushl  -0x50(%ebp)
 804b41e:	e8 7d d3 ff ff       	call   80487a0 <strlen@plt>
 804b423:	83 c4 10             	add    $0x10,%esp
 804b426:	89 c2                	mov    %eax,%edx
 804b428:	8b 45 ac             	mov    -0x54(%ebp),%eax
 804b42b:	01 d0                	add    %edx,%eax
 804b42d:	89 45 dc             	mov    %eax,-0x24(%ebp)
 804b430:	8b 45 ac             	mov    -0x54(%ebp),%eax
 804b433:	3b 45 dc             	cmp    -0x24(%ebp),%eax
 804b436:	76 0a                	jbe    804b442 <yysyntax_error+0x1d1>
 804b438:	b8 02 00 00 00       	mov    $0x2,%eax
 804b43d:	e9 ac 00 00 00       	jmp    804b4ee <yysyntax_error+0x27d>
 804b442:	8b 45 dc             	mov    -0x24(%ebp),%eax
 804b445:	89 45 ac             	mov    %eax,-0x54(%ebp)
 804b448:	8b 45 a4             	mov    -0x5c(%ebp),%eax
 804b44b:	8b 00                	mov    (%eax),%eax
 804b44d:	3b 45 ac             	cmp    -0x54(%ebp),%eax
 804b450:	73 25                	jae    804b477 <yysyntax_error+0x206>
 804b452:	8b 45 ac             	mov    -0x54(%ebp),%eax
 804b455:	8d 14 00             	lea    (%eax,%eax,1),%edx
 804b458:	8b 45 a4             	mov    -0x5c(%ebp),%eax
 804b45b:	89 10                	mov    %edx,(%eax)
 804b45d:	8b 45 a4             	mov    -0x5c(%ebp),%eax
 804b460:	8b 00                	mov    (%eax),%eax
 804b462:	3b 45 ac             	cmp    -0x54(%ebp),%eax
 804b465:	73 09                	jae    804b470 <yysyntax_error+0x1ff>
 804b467:	8b 45 a4             	mov    -0x5c(%ebp),%eax
 804b46a:	c7 00 ff ff ff ff    	movl   $0xffffffff,(%eax)
 804b470:	b8 01 00 00 00       	mov    $0x1,%eax
 804b475:	eb 77                	jmp    804b4ee <yysyntax_error+0x27d>
 804b477:	8b 45 a0             	mov    -0x60(%ebp),%eax
 804b47a:	8b 00                	mov    (%eax),%eax
 804b47c:	89 45 bc             	mov    %eax,-0x44(%ebp)
 804b47f:	c7 45 c0 00 00 00 00 	movl   $0x0,-0x40(%ebp)
 804b486:	eb 4c                	jmp    804b4d4 <yysyntax_error+0x263>
 804b488:	8b 45 bc             	mov    -0x44(%ebp),%eax
 804b48b:	0f b6 00             	movzbl (%eax),%eax
 804b48e:	3c 25                	cmp    $0x25,%al
 804b490:	75 3a                	jne    804b4cc <yysyntax_error+0x25b>
 804b492:	8b 45 b0             	mov    -0x50(%ebp),%eax
 804b495:	83 c0 01             	add    $0x1,%eax
 804b498:	0f b6 00             	movzbl (%eax),%eax
 804b49b:	3c 73                	cmp    $0x73,%al
 804b49d:	75 2d                	jne    804b4cc <yysyntax_error+0x25b>
 804b49f:	8b 45 c0             	mov    -0x40(%ebp),%eax
 804b4a2:	3b 45 b4             	cmp    -0x4c(%ebp),%eax
 804b4a5:	7d 25                	jge    804b4cc <yysyntax_error+0x25b>
 804b4a7:	8b 45 c0             	mov    -0x40(%ebp),%eax
 804b4aa:	8d 50 01             	lea    0x1(%eax),%edx
 804b4ad:	89 55 c0             	mov    %edx,-0x40(%ebp)
 804b4b0:	8b 44 85 e0          	mov    -0x20(%ebp,%eax,4),%eax
 804b4b4:	83 ec 08             	sub    $0x8,%esp
 804b4b7:	50                   	push   %eax
 804b4b8:	ff 75 bc             	pushl  -0x44(%ebp)
 804b4bb:	e8 f4 fc ff ff       	call   804b1b4 <yytnamerr>
 804b4c0:	83 c4 10             	add    $0x10,%esp
 804b4c3:	01 45 bc             	add    %eax,-0x44(%ebp)
 804b4c6:	83 45 b0 02          	addl   $0x2,-0x50(%ebp)
 804b4ca:	eb 08                	jmp    804b4d4 <yysyntax_error+0x263>
 804b4cc:	83 45 bc 01          	addl   $0x1,-0x44(%ebp)
 804b4d0:	83 45 b0 01          	addl   $0x1,-0x50(%ebp)
 804b4d4:	8b 45 b0             	mov    -0x50(%ebp),%eax
 804b4d7:	0f b6 10             	movzbl (%eax),%edx
 804b4da:	8b 45 bc             	mov    -0x44(%ebp),%eax
 804b4dd:	88 10                	mov    %dl,(%eax)
 804b4df:	8b 45 bc             	mov    -0x44(%ebp),%eax
 804b4e2:	0f b6 00             	movzbl (%eax),%eax
 804b4e5:	84 c0                	test   %al,%al
 804b4e7:	75 9f                	jne    804b488 <yysyntax_error+0x217>
 804b4e9:	b8 00 00 00 00       	mov    $0x0,%eax
 804b4ee:	8b 4d f4             	mov    -0xc(%ebp),%ecx
 804b4f1:	65 33 0d 14 00 00 00 	xor    %gs:0x14,%ecx
 804b4f8:	74 05                	je     804b4ff <yysyntax_error+0x28e>
 804b4fa:	e8 01 d2 ff ff       	call   8048700 <__stack_chk_fail@plt>
 804b4ff:	c9                   	leave  
 804b500:	c3                   	ret    

0804b501 <yydestruct>:
 804b501:	55                   	push   %ebp
 804b502:	89 e5                	mov    %esp,%ebp
 804b504:	83 7d 08 00          	cmpl   $0x0,0x8(%ebp)
 804b508:	75 07                	jne    804b511 <yydestruct+0x10>
 804b50a:	c7 45 08 7c 1c 05 08 	movl   $0x8051c7c,0x8(%ebp)
 804b511:	90                   	nop
 804b512:	5d                   	pop    %ebp
 804b513:	c3                   	ret    

0804b514 <yyparse>:
 804b514:	55                   	push   %ebp
 804b515:	89 e5                	mov    %esp,%ebp
 804b517:	81 ec 38 13 00 00    	sub    $0x1338,%esp
 804b51d:	65 a1 14 00 00 00    	mov    %gs:0x14,%eax
 804b523:	89 45 f4             	mov    %eax,-0xc(%ebp)
 804b526:	31 c0                	xor    %eax,%eax
 804b528:	c7 85 00 ed ff ff 00 	movl   $0x0,-0x1300(%ebp)
 804b52f:	00 00 00 
 804b532:	8d 85 74 ff ff ff    	lea    -0x8c(%ebp),%eax
 804b538:	89 85 cc ec ff ff    	mov    %eax,-0x1334(%ebp)
 804b53e:	c7 85 d0 ec ff ff 80 	movl   $0x80,-0x1330(%ebp)
 804b545:	00 00 00 
 804b548:	c7 85 04 ed ff ff 00 	movl   $0x0,-0x12fc(%ebp)
 804b54f:	00 00 00 
 804b552:	8d 85 44 ee ff ff    	lea    -0x11bc(%ebp),%eax
 804b558:	89 85 dc ec ff ff    	mov    %eax,-0x1324(%ebp)
 804b55e:	8b 85 dc ec ff ff    	mov    -0x1324(%ebp),%eax
 804b564:	89 85 e0 ec ff ff    	mov    %eax,-0x1320(%ebp)
 804b56a:	8d 85 d4 ef ff ff    	lea    -0x102c(%ebp),%eax
 804b570:	89 85 e4 ec ff ff    	mov    %eax,-0x131c(%ebp)
 804b576:	8b 85 e4 ec ff ff    	mov    -0x131c(%ebp),%eax
 804b57c:	89 85 e8 ec ff ff    	mov    %eax,-0x1318(%ebp)
 804b582:	8d 85 f4 f2 ff ff    	lea    -0xd0c(%ebp),%eax
 804b588:	89 85 ec ec ff ff    	mov    %eax,-0x1314(%ebp)
 804b58e:	8b 85 ec ec ff ff    	mov    -0x1314(%ebp),%eax
 804b594:	89 85 f0 ec ff ff    	mov    %eax,-0x1310(%ebp)
 804b59a:	c7 85 f4 ec ff ff c8 	movl   $0xc8,-0x130c(%ebp)
 804b5a1:	00 00 00 
 804b5a4:	c7 85 d4 ec ff ff 00 	movl   $0x0,-0x132c(%ebp)
 804b5ab:	00 00 00 
 804b5ae:	c7 85 d8 ec ff ff 00 	movl   $0x0,-0x1328(%ebp)
 804b5b5:	00 00 00 
 804b5b8:	c7 05 34 51 05 08 00 	movl   $0x0,0x8055134
 804b5bf:	00 00 00 
 804b5c2:	c7 05 40 51 05 08 fe 	movl   $0xfffffffe,0x8055140
 804b5c9:	ff ff ff 
 804b5cc:	8b 85 f0 ec ff ff    	mov    -0x1310(%ebp),%eax
 804b5d2:	8b 15 84 50 05 08    	mov    0x8055084,%edx
 804b5d8:	89 10                	mov    %edx,(%eax)
 804b5da:	8b 15 88 50 05 08    	mov    0x8055088,%edx
 804b5e0:	89 50 04             	mov    %edx,0x4(%eax)
 804b5e3:	8b 15 8c 50 05 08    	mov    0x805508c,%edx
 804b5e9:	89 50 08             	mov    %edx,0x8(%eax)
 804b5ec:	8b 15 90 50 05 08    	mov    0x8055090,%edx
 804b5f2:	89 50 0c             	mov    %edx,0xc(%eax)
 804b5f5:	eb 07                	jmp    804b5fe <yyparse+0xea>
 804b5f7:	83 85 e0 ec ff ff 02 	addl   $0x2,-0x1320(%ebp)
 804b5fe:	8b 85 d4 ec ff ff    	mov    -0x132c(%ebp),%eax
 804b604:	89 c2                	mov    %eax,%edx
 804b606:	8b 85 e0 ec ff ff    	mov    -0x1320(%ebp),%eax
 804b60c:	66 89 10             	mov    %dx,(%eax)
 804b60f:	8b 85 f4 ec ff ff    	mov    -0x130c(%ebp),%eax
 804b615:	05 ff ff ff 7f       	add    $0x7fffffff,%eax
 804b61a:	8d 14 00             	lea    (%eax,%eax,1),%edx
 804b61d:	8b 85 dc ec ff ff    	mov    -0x1324(%ebp),%eax
 804b623:	01 d0                	add    %edx,%eax
 804b625:	3b 85 e0 ec ff ff    	cmp    -0x1320(%ebp),%eax
 804b62b:	0f 87 17 02 00 00    	ja     804b848 <yyparse+0x334>
 804b631:	8b 95 e0 ec ff ff    	mov    -0x1320(%ebp),%edx
 804b637:	8b 85 dc ec ff ff    	mov    -0x1324(%ebp),%eax
 804b63d:	29 c2                	sub    %eax,%edx
 804b63f:	89 d0                	mov    %edx,%eax
 804b641:	d1 f8                	sar    %eax
 804b643:	83 c0 01             	add    $0x1,%eax
 804b646:	89 85 10 ed ff ff    	mov    %eax,-0x12f0(%ebp)
 804b64c:	81 bd f4 ec ff ff 0f 	cmpl   $0x270f,-0x130c(%ebp)
 804b653:	27 00 00 
 804b656:	0f 87 af 2c 00 00    	ja     804e30b <yyparse+0x2df7>
 804b65c:	d1 a5 f4 ec ff ff    	shll   -0x130c(%ebp)
 804b662:	81 bd f4 ec ff ff 10 	cmpl   $0x2710,-0x130c(%ebp)
 804b669:	27 00 00 
 804b66c:	76 0a                	jbe    804b678 <yyparse+0x164>
 804b66e:	c7 85 f4 ec ff ff 10 	movl   $0x2710,-0x130c(%ebp)
 804b675:	27 00 00 
 804b678:	8b 85 dc ec ff ff    	mov    -0x1324(%ebp),%eax
 804b67e:	89 85 14 ed ff ff    	mov    %eax,-0x12ec(%ebp)
 804b684:	8b 85 f4 ec ff ff    	mov    -0x130c(%ebp),%eax
 804b68a:	6b c0 16             	imul   $0x16,%eax,%eax
 804b68d:	83 c0 1e             	add    $0x1e,%eax
 804b690:	83 ec 0c             	sub    $0xc,%esp
 804b693:	50                   	push   %eax
 804b694:	e8 d7 d0 ff ff       	call   8048770 <malloc@plt>
 804b699:	83 c4 10             	add    $0x10,%esp
 804b69c:	89 85 18 ed ff ff    	mov    %eax,-0x12e8(%ebp)
 804b6a2:	83 bd 18 ed ff ff 00 	cmpl   $0x0,-0x12e8(%ebp)
 804b6a9:	0f 84 5f 2c 00 00    	je     804e30e <yyparse+0x2dfa>
 804b6af:	8b 85 10 ed ff ff    	mov    -0x12f0(%ebp),%eax
 804b6b5:	8d 0c 00             	lea    (%eax,%eax,1),%ecx
 804b6b8:	8b 95 18 ed ff ff    	mov    -0x12e8(%ebp),%edx
 804b6be:	8b 85 dc ec ff ff    	mov    -0x1324(%ebp),%eax
 804b6c4:	83 ec 04             	sub    $0x4,%esp
 804b6c7:	51                   	push   %ecx
 804b6c8:	50                   	push   %eax
 804b6c9:	52                   	push   %edx
 804b6ca:	e8 11 d0 ff ff       	call   80486e0 <memcpy@plt>
 804b6cf:	83 c4 10             	add    $0x10,%esp
 804b6d2:	8b 85 18 ed ff ff    	mov    -0x12e8(%ebp),%eax
 804b6d8:	89 85 dc ec ff ff    	mov    %eax,-0x1324(%ebp)
 804b6de:	8b 85 f4 ec ff ff    	mov    -0x130c(%ebp),%eax
 804b6e4:	01 c0                	add    %eax,%eax
 804b6e6:	83 c0 0f             	add    $0xf,%eax
 804b6e9:	89 85 1c ed ff ff    	mov    %eax,-0x12e4(%ebp)
 804b6ef:	8b 85 1c ed ff ff    	mov    -0x12e4(%ebp),%eax
 804b6f5:	c1 e8 04             	shr    $0x4,%eax
 804b6f8:	c1 e0 04             	shl    $0x4,%eax
 804b6fb:	01 85 18 ed ff ff    	add    %eax,-0x12e8(%ebp)
 804b701:	8b 85 10 ed ff ff    	mov    -0x12f0(%ebp),%eax
 804b707:	8d 0c 85 00 00 00 00 	lea    0x0(,%eax,4),%ecx
 804b70e:	8b 95 18 ed ff ff    	mov    -0x12e8(%ebp),%edx
 804b714:	8b 85 e4 ec ff ff    	mov    -0x131c(%ebp),%eax
 804b71a:	83 ec 04             	sub    $0x4,%esp
 804b71d:	51                   	push   %ecx
 804b71e:	50                   	push   %eax
 804b71f:	52                   	push   %edx
 804b720:	e8 bb cf ff ff       	call   80486e0 <memcpy@plt>
 804b725:	83 c4 10             	add    $0x10,%esp
 804b728:	8b 85 18 ed ff ff    	mov    -0x12e8(%ebp),%eax
 804b72e:	89 85 e4 ec ff ff    	mov    %eax,-0x131c(%ebp)
 804b734:	8b 85 f4 ec ff ff    	mov    -0x130c(%ebp),%eax
 804b73a:	c1 e0 02             	shl    $0x2,%eax
 804b73d:	83 c0 0f             	add    $0xf,%eax
 804b740:	89 85 20 ed ff ff    	mov    %eax,-0x12e0(%ebp)
 804b746:	8b 85 20 ed ff ff    	mov    -0x12e0(%ebp),%eax
 804b74c:	c1 e8 04             	shr    $0x4,%eax
 804b74f:	c1 e0 04             	shl    $0x4,%eax
 804b752:	01 85 18 ed ff ff    	add    %eax,-0x12e8(%ebp)
 804b758:	8b 85 10 ed ff ff    	mov    -0x12f0(%ebp),%eax
 804b75e:	c1 e0 04             	shl    $0x4,%eax
 804b761:	89 c1                	mov    %eax,%ecx
 804b763:	8b 95 18 ed ff ff    	mov    -0x12e8(%ebp),%edx
 804b769:	8b 85 ec ec ff ff    	mov    -0x1314(%ebp),%eax
 804b76f:	83 ec 04             	sub    $0x4,%esp
 804b772:	51                   	push   %ecx
 804b773:	50                   	push   %eax
 804b774:	52                   	push   %edx
 804b775:	e8 66 cf ff ff       	call   80486e0 <memcpy@plt>
 804b77a:	83 c4 10             	add    $0x10,%esp
 804b77d:	8b 85 18 ed ff ff    	mov    -0x12e8(%ebp),%eax
 804b783:	89 85 ec ec ff ff    	mov    %eax,-0x1314(%ebp)
 804b789:	8b 85 f4 ec ff ff    	mov    -0x130c(%ebp),%eax
 804b78f:	c1 e0 04             	shl    $0x4,%eax
 804b792:	83 c0 0f             	add    $0xf,%eax
 804b795:	89 85 24 ed ff ff    	mov    %eax,-0x12dc(%ebp)
 804b79b:	8b 85 24 ed ff ff    	mov    -0x12dc(%ebp),%eax
 804b7a1:	c1 e8 04             	shr    $0x4,%eax
 804b7a4:	c1 e0 04             	shl    $0x4,%eax
 804b7a7:	01 85 18 ed ff ff    	add    %eax,-0x12e8(%ebp)
 804b7ad:	8d 85 44 ee ff ff    	lea    -0x11bc(%ebp),%eax
 804b7b3:	39 85 14 ed ff ff    	cmp    %eax,-0x12ec(%ebp)
 804b7b9:	74 11                	je     804b7cc <yyparse+0x2b8>
 804b7bb:	83 ec 0c             	sub    $0xc,%esp
 804b7be:	ff b5 14 ed ff ff    	pushl  -0x12ec(%ebp)
 804b7c4:	e8 07 cf ff ff       	call   80486d0 <free@plt>
 804b7c9:	83 c4 10             	add    $0x10,%esp
 804b7cc:	8b 85 10 ed ff ff    	mov    -0x12f0(%ebp),%eax
 804b7d2:	05 ff ff ff 7f       	add    $0x7fffffff,%eax
 804b7d7:	8d 14 00             	lea    (%eax,%eax,1),%edx
 804b7da:	8b 85 dc ec ff ff    	mov    -0x1324(%ebp),%eax
 804b7e0:	01 d0                	add    %edx,%eax
 804b7e2:	89 85 e0 ec ff ff    	mov    %eax,-0x1320(%ebp)
 804b7e8:	8b 85 10 ed ff ff    	mov    -0x12f0(%ebp),%eax
 804b7ee:	05 ff ff ff 3f       	add    $0x3fffffff,%eax
 804b7f3:	8d 14 85 00 00 00 00 	lea    0x0(,%eax,4),%edx
 804b7fa:	8b 85 e4 ec ff ff    	mov    -0x131c(%ebp),%eax
 804b800:	01 d0                	add    %edx,%eax
 804b802:	89 85 e8 ec ff ff    	mov    %eax,-0x1318(%ebp)
 804b808:	8b 85 10 ed ff ff    	mov    -0x12f0(%ebp),%eax
 804b80e:	05 ff ff ff 0f       	add    $0xfffffff,%eax
 804b813:	c1 e0 04             	shl    $0x4,%eax
 804b816:	89 c2                	mov    %eax,%edx
 804b818:	8b 85 ec ec ff ff    	mov    -0x1314(%ebp),%eax
 804b81e:	01 d0                	add    %edx,%eax
 804b820:	89 85 f0 ec ff ff    	mov    %eax,-0x1310(%ebp)
 804b826:	8b 85 f4 ec ff ff    	mov    -0x130c(%ebp),%eax
 804b82c:	05 ff ff ff 7f       	add    $0x7fffffff,%eax
 804b831:	8d 14 00             	lea    (%eax,%eax,1),%edx
 804b834:	8b 85 dc ec ff ff    	mov    -0x1324(%ebp),%eax
 804b83a:	01 d0                	add    %edx,%eax
 804b83c:	3b 85 e0 ec ff ff    	cmp    -0x1320(%ebp),%eax
 804b842:	0f 86 b3 2a 00 00    	jbe    804e2fb <yyparse+0x2de7>
 804b848:	83 bd d4 ec ff ff 10 	cmpl   $0x10,-0x132c(%ebp)
 804b84f:	0f 84 99 2a 00 00    	je     804e2ee <yyparse+0x2dda>
 804b855:	90                   	nop
 804b856:	8b 85 d4 ec ff ff    	mov    -0x132c(%ebp),%eax
 804b85c:	0f b7 84 00 80 12 05 	movzwl 0x8051280(%eax,%eax,1),%eax
 804b863:	08 
 804b864:	98                   	cwtl   
 804b865:	89 85 f8 ec ff ff    	mov    %eax,-0x1308(%ebp)
 804b86b:	83 bd f8 ec ff ff c1 	cmpl   $0xffffffc1,-0x1308(%ebp)
 804b872:	0f 84 39 01 00 00    	je     804b9b1 <yyparse+0x49d>
 804b878:	a1 40 51 05 08       	mov    0x8055140,%eax
 804b87d:	83 f8 fe             	cmp    $0xfffffffe,%eax
 804b880:	75 0a                	jne    804b88c <yyparse+0x378>
 804b882:	e8 d4 d0 ff ff       	call   804895b <yylex>
 804b887:	a3 40 51 05 08       	mov    %eax,0x8055140
 804b88c:	a1 40 51 05 08       	mov    0x8055140,%eax
 804b891:	85 c0                	test   %eax,%eax
 804b893:	7f 17                	jg     804b8ac <yyparse+0x398>
 804b895:	c7 85 00 ed ff ff 00 	movl   $0x0,-0x1300(%ebp)
 804b89c:	00 00 00 
 804b89f:	8b 85 00 ed ff ff    	mov    -0x1300(%ebp),%eax
 804b8a5:	a3 40 51 05 08       	mov    %eax,0x8055140
 804b8aa:	eb 28                	jmp    804b8d4 <yyparse+0x3c0>
 804b8ac:	a1 40 51 05 08       	mov    0x8055140,%eax
 804b8b1:	3d 1c 01 00 00       	cmp    $0x11c,%eax
 804b8b6:	77 11                	ja     804b8c9 <yyparse+0x3b5>
 804b8b8:	a1 40 51 05 08       	mov    0x8055140,%eax
 804b8bd:	0f b6 80 c0 0f 05 08 	movzbl 0x8050fc0(%eax),%eax
 804b8c4:	0f b6 c0             	movzbl %al,%eax
 804b8c7:	eb 05                	jmp    804b8ce <yyparse+0x3ba>
 804b8c9:	b8 02 00 00 00       	mov    $0x2,%eax
 804b8ce:	89 85 00 ed ff ff    	mov    %eax,-0x1300(%ebp)
 804b8d4:	8b 85 00 ed ff ff    	mov    -0x1300(%ebp),%eax
 804b8da:	01 85 f8 ec ff ff    	add    %eax,-0x1308(%ebp)
 804b8e0:	83 bd f8 ec ff ff 00 	cmpl   $0x0,-0x1308(%ebp)
 804b8e7:	0f 88 c5 00 00 00    	js     804b9b2 <yyparse+0x49e>
 804b8ed:	81 bd f8 ec ff ff 55 	cmpl   $0x155,-0x1308(%ebp)
 804b8f4:	01 00 00 
 804b8f7:	0f 8f b5 00 00 00    	jg     804b9b2 <yyparse+0x49e>
 804b8fd:	8b 85 f8 ec ff ff    	mov    -0x1308(%ebp),%eax
 804b903:	0f b7 84 00 60 17 05 	movzwl 0x8051760(%eax,%eax,1),%eax
 804b90a:	08 
 804b90b:	98                   	cwtl   
 804b90c:	3b 85 00 ed ff ff    	cmp    -0x1300(%ebp),%eax
 804b912:	0f 85 9a 00 00 00    	jne    804b9b2 <yyparse+0x49e>
 804b918:	8b 85 f8 ec ff ff    	mov    -0x1308(%ebp),%eax
 804b91e:	0f b7 84 00 a0 14 05 	movzwl 0x80514a0(%eax,%eax,1),%eax
 804b925:	08 
 804b926:	98                   	cwtl   
 804b927:	89 85 f8 ec ff ff    	mov    %eax,-0x1308(%ebp)
 804b92d:	83 bd f8 ec ff ff 00 	cmpl   $0x0,-0x1308(%ebp)
 804b934:	7f 0b                	jg     804b941 <yyparse+0x42d>
 804b936:	f7 9d f8 ec ff ff    	negl   -0x1308(%ebp)
 804b93c:	e9 96 00 00 00       	jmp    804b9d7 <yyparse+0x4c3>
 804b941:	83 bd d8 ec ff ff 00 	cmpl   $0x0,-0x1328(%ebp)
 804b948:	74 07                	je     804b951 <yyparse+0x43d>
 804b94a:	83 ad d8 ec ff ff 01 	subl   $0x1,-0x1328(%ebp)
 804b951:	c7 05 40 51 05 08 fe 	movl   $0xfffffffe,0x8055140
 804b958:	ff ff ff 
 804b95b:	8b 85 f8 ec ff ff    	mov    -0x1308(%ebp),%eax
 804b961:	89 85 d4 ec ff ff    	mov    %eax,-0x132c(%ebp)
 804b967:	83 85 e8 ec ff ff 04 	addl   $0x4,-0x1318(%ebp)
 804b96e:	8b 85 e8 ec ff ff    	mov    -0x1318(%ebp),%eax
 804b974:	8b 15 4c 51 05 08    	mov    0x805514c,%edx
 804b97a:	89 10                	mov    %edx,(%eax)
 804b97c:	83 85 f0 ec ff ff 10 	addl   $0x10,-0x1310(%ebp)
 804b983:	8b 85 f0 ec ff ff    	mov    -0x1310(%ebp),%eax
 804b989:	8b 15 84 50 05 08    	mov    0x8055084,%edx
 804b98f:	89 10                	mov    %edx,(%eax)
 804b991:	8b 15 88 50 05 08    	mov    0x8055088,%edx
 804b997:	89 50 04             	mov    %edx,0x4(%eax)
 804b99a:	8b 15 8c 50 05 08    	mov    0x805508c,%edx
 804b9a0:	89 50 08             	mov    %edx,0x8(%eax)
 804b9a3:	8b 15 90 50 05 08    	mov    0x8055090,%edx
 804b9a9:	89 50 0c             	mov    %edx,0xc(%eax)
 804b9ac:	e9 46 fc ff ff       	jmp    804b5f7 <yyparse+0xe3>
 804b9b1:	90                   	nop
 804b9b2:	8b 85 d4 ec ff ff    	mov    -0x132c(%ebp),%eax
 804b9b8:	05 a0 13 05 08       	add    $0x80513a0,%eax
 804b9bd:	0f b6 00             	movzbl (%eax),%eax
 804b9c0:	0f b6 c0             	movzbl %al,%eax
 804b9c3:	89 85 f8 ec ff ff    	mov    %eax,-0x1308(%ebp)
 804b9c9:	83 bd f8 ec ff ff 00 	cmpl   $0x0,-0x1308(%ebp)
 804b9d0:	0f 84 82 25 00 00    	je     804df58 <yyparse+0x2a44>
 804b9d6:	90                   	nop
 804b9d7:	8b 85 f8 ec ff ff    	mov    -0x1308(%ebp),%eax
 804b9dd:	05 20 1b 05 08       	add    $0x8051b20,%eax
 804b9e2:	0f b6 00             	movzbl (%eax),%eax
 804b9e5:	0f b6 c0             	movzbl %al,%eax
 804b9e8:	89 85 04 ed ff ff    	mov    %eax,-0x12fc(%ebp)
 804b9ee:	b8 01 00 00 00       	mov    $0x1,%eax
 804b9f3:	2b 85 04 ed ff ff    	sub    -0x12fc(%ebp),%eax
 804b9f9:	8d 14 85 00 00 00 00 	lea    0x0(,%eax,4),%edx
 804ba00:	8b 85 e8 ec ff ff    	mov    -0x1318(%ebp),%eax
 804ba06:	01 d0                	add    %edx,%eax
 804ba08:	8b 00                	mov    (%eax),%eax
 804ba0a:	89 85 c8 ec ff ff    	mov    %eax,-0x1338(%ebp)
 804ba10:	83 bd 04 ed ff ff 00 	cmpl   $0x0,-0x12fc(%ebp)
 804ba17:	74 67                	je     804ba80 <yyparse+0x56c>
 804ba19:	8b 95 04 ed ff ff    	mov    -0x12fc(%ebp),%edx
 804ba1f:	b8 00 00 00 00       	mov    $0x0,%eax
 804ba24:	29 d0                	sub    %edx,%eax
 804ba26:	c1 e0 04             	shl    $0x4,%eax
 804ba29:	8d 50 10             	lea    0x10(%eax),%edx
 804ba2c:	8b 85 f0 ec ff ff    	mov    -0x1310(%ebp),%eax
 804ba32:	01 d0                	add    %edx,%eax
 804ba34:	8b 00                	mov    (%eax),%eax
 804ba36:	89 85 04 ee ff ff    	mov    %eax,-0x11fc(%ebp)
 804ba3c:	8b 95 04 ed ff ff    	mov    -0x12fc(%ebp),%edx
 804ba42:	b8 00 00 00 00       	mov    $0x0,%eax
 804ba47:	29 d0                	sub    %edx,%eax
 804ba49:	c1 e0 04             	shl    $0x4,%eax
 804ba4c:	8d 50 10             	lea    0x10(%eax),%edx
 804ba4f:	8b 85 f0 ec ff ff    	mov    -0x1310(%ebp),%eax
 804ba55:	01 d0                	add    %edx,%eax
 804ba57:	8b 40 04             	mov    0x4(%eax),%eax
 804ba5a:	89 85 08 ee ff ff    	mov    %eax,-0x11f8(%ebp)
 804ba60:	8b 85 f0 ec ff ff    	mov    -0x1310(%ebp),%eax
 804ba66:	8b 40 08             	mov    0x8(%eax),%eax
 804ba69:	89 85 0c ee ff ff    	mov    %eax,-0x11f4(%ebp)
 804ba6f:	8b 85 f0 ec ff ff    	mov    -0x1310(%ebp),%eax
 804ba75:	8b 40 0c             	mov    0xc(%eax),%eax
 804ba78:	89 85 10 ee ff ff    	mov    %eax,-0x11f0(%ebp)
 804ba7e:	eb 54                	jmp    804bad4 <yyparse+0x5c0>
 804ba80:	8b 85 04 ed ff ff    	mov    -0x12fc(%ebp),%eax
 804ba86:	c1 e0 04             	shl    $0x4,%eax
 804ba89:	f7 d8                	neg    %eax
 804ba8b:	89 c2                	mov    %eax,%edx
 804ba8d:	8b 85 f0 ec ff ff    	mov    -0x1310(%ebp),%eax
 804ba93:	01 d0                	add    %edx,%eax
 804ba95:	8b 40 08             	mov    0x8(%eax),%eax
 804ba98:	89 85 0c ee ff ff    	mov    %eax,-0x11f4(%ebp)
 804ba9e:	8b 85 0c ee ff ff    	mov    -0x11f4(%ebp),%eax
 804baa4:	89 85 04 ee ff ff    	mov    %eax,-0x11fc(%ebp)
 804baaa:	8b 85 04 ed ff ff    	mov    -0x12fc(%ebp),%eax
 804bab0:	c1 e0 04             	shl    $0x4,%eax
 804bab3:	f7 d8                	neg    %eax
 804bab5:	89 c2                	mov    %eax,%edx
 804bab7:	8b 85 f0 ec ff ff    	mov    -0x1310(%ebp),%eax
 804babd:	01 d0                	add    %edx,%eax
 804babf:	8b 40 0c             	mov    0xc(%eax),%eax
 804bac2:	89 85 10 ee ff ff    	mov    %eax,-0x11f0(%ebp)
 804bac8:	8b 85 10 ee ff ff    	mov    -0x11f0(%ebp),%eax
 804bace:	89 85 08 ee ff ff    	mov    %eax,-0x11f8(%ebp)
 804bad4:	83 bd f8 ec ff ff 47 	cmpl   $0x47,-0x1308(%ebp)
 804badb:	0f 87 4f 23 00 00    	ja     804de30 <yyparse+0x291c>
 804bae1:	8b 85 f8 ec ff ff    	mov    -0x1308(%ebp),%eax
 804bae7:	c1 e0 02             	shl    $0x2,%eax
 804baea:	05 d4 1d 05 08       	add    $0x8051dd4,%eax
 804baef:	8b 00                	mov    (%eax),%eax
 804baf1:	ff e0                	jmp    *%eax
 804baf3:	8b 85 04 ee ff ff    	mov    -0x11fc(%ebp),%eax
 804baf9:	83 ec 04             	sub    $0x4,%esp
 804bafc:	6a 00                	push   $0x0
 804bafe:	50                   	push   %eax
 804baff:	68 fb 10 05 08       	push   $0x80510fb
 804bb04:	e8 51 29 00 00       	call   804e45a <Syntax_Leaf_New>
 804bb09:	83 c4 10             	add    $0x10,%esp
 804bb0c:	89 85 28 ed ff ff    	mov    %eax,-0x12d8(%ebp)
 804bb12:	8b 85 28 ed ff ff    	mov    -0x12d8(%ebp),%eax
 804bb18:	8b 40 0c             	mov    0xc(%eax),%eax
 804bb1b:	8d 48 01             	lea    0x1(%eax),%ecx
 804bb1e:	8b 95 28 ed ff ff    	mov    -0x12d8(%ebp),%edx
 804bb24:	89 4a 0c             	mov    %ecx,0xc(%edx)
 804bb27:	8b 95 e8 ec ff ff    	mov    -0x1318(%ebp),%edx
 804bb2d:	8b 0a                	mov    (%edx),%ecx
 804bb2f:	8b 95 28 ed ff ff    	mov    -0x12d8(%ebp),%edx
 804bb35:	83 c0 04             	add    $0x4,%eax
 804bb38:	89 0c 82             	mov    %ecx,(%edx,%eax,4)
 804bb3b:	8b 85 28 ed ff ff    	mov    -0x12d8(%ebp),%eax
 804bb41:	89 85 c8 ec ff ff    	mov    %eax,-0x1338(%ebp)
 804bb47:	8b 85 28 ed ff ff    	mov    -0x12d8(%ebp),%eax
 804bb4d:	a3 48 51 05 08       	mov    %eax,0x8055148
 804bb52:	e9 da 22 00 00       	jmp    804de31 <yyparse+0x291d>
 804bb57:	8b 85 04 ee ff ff    	mov    -0x11fc(%ebp),%eax
 804bb5d:	83 ec 04             	sub    $0x4,%esp
 804bb60:	6a 00                	push   $0x0
 804bb62:	50                   	push   %eax
 804bb63:	68 03 11 05 08       	push   $0x8051103
 804bb68:	e8 ed 28 00 00       	call   804e45a <Syntax_Leaf_New>
 804bb6d:	83 c4 10             	add    $0x10,%esp
 804bb70:	89 85 2c ed ff ff    	mov    %eax,-0x12d4(%ebp)
 804bb76:	8b 85 e8 ec ff ff    	mov    -0x1318(%ebp),%eax
 804bb7c:	83 e8 04             	sub    $0x4,%eax
 804bb7f:	8b 00                	mov    (%eax),%eax
 804bb81:	85 c0                	test   %eax,%eax
 804bb83:	74 40                	je     804bbc5 <yyparse+0x6b1>
 804bb85:	8b 85 e8 ec ff ff    	mov    -0x1318(%ebp),%eax
 804bb8b:	83 e8 04             	sub    $0x4,%eax
 804bb8e:	8b 00                	mov    (%eax),%eax
 804bb90:	8b 95 2c ed ff ff    	mov    -0x12d4(%ebp),%edx
 804bb96:	89 50 2c             	mov    %edx,0x2c(%eax)
 804bb99:	8b 85 2c ed ff ff    	mov    -0x12d4(%ebp),%eax
 804bb9f:	8b 40 0c             	mov    0xc(%eax),%eax
 804bba2:	8d 48 01             	lea    0x1(%eax),%ecx
 804bba5:	8b 95 2c ed ff ff    	mov    -0x12d4(%ebp),%edx
 804bbab:	89 4a 0c             	mov    %ecx,0xc(%edx)
 804bbae:	8b 95 e8 ec ff ff    	mov    -0x1318(%ebp),%edx
 804bbb4:	83 ea 04             	sub    $0x4,%edx
 804bbb7:	8b 0a                	mov    (%edx),%ecx
 804bbb9:	8b 95 2c ed ff ff    	mov    -0x12d4(%ebp),%edx
 804bbbf:	83 c0 04             	add    $0x4,%eax
 804bbc2:	89 0c 82             	mov    %ecx,(%edx,%eax,4)
 804bbc5:	8b 85 e8 ec ff ff    	mov    -0x1318(%ebp),%eax
 804bbcb:	8b 00                	mov    (%eax),%eax
 804bbcd:	85 c0                	test   %eax,%eax
 804bbcf:	74 3a                	je     804bc0b <yyparse+0x6f7>
 804bbd1:	8b 85 e8 ec ff ff    	mov    -0x1318(%ebp),%eax
 804bbd7:	8b 00                	mov    (%eax),%eax
 804bbd9:	8b 95 2c ed ff ff    	mov    -0x12d4(%ebp),%edx
 804bbdf:	89 50 2c             	mov    %edx,0x2c(%eax)
 804bbe2:	8b 85 2c ed ff ff    	mov    -0x12d4(%ebp),%eax
 804bbe8:	8b 40 0c             	mov    0xc(%eax),%eax
 804bbeb:	8d 48 01             	lea    0x1(%eax),%ecx
 804bbee:	8b 95 2c ed ff ff    	mov    -0x12d4(%ebp),%edx
 804bbf4:	89 4a 0c             	mov    %ecx,0xc(%edx)
 804bbf7:	8b 95 e8 ec ff ff    	mov    -0x1318(%ebp),%edx
 804bbfd:	8b 0a                	mov    (%edx),%ecx
 804bbff:	8b 95 2c ed ff ff    	mov    -0x12d4(%ebp),%edx
 804bc05:	83 c0 04             	add    $0x4,%eax
 804bc08:	89 0c 82             	mov    %ecx,(%edx,%eax,4)
 804bc0b:	8b 85 2c ed ff ff    	mov    -0x12d4(%ebp),%eax
 804bc11:	89 85 c8 ec ff ff    	mov    %eax,-0x1338(%ebp)
 804bc17:	e9 15 22 00 00       	jmp    804de31 <yyparse+0x291d>
 804bc1c:	c7 85 c8 ec ff ff 00 	movl   $0x0,-0x1338(%ebp)
 804bc23:	00 00 00 
 804bc26:	e9 06 22 00 00       	jmp    804de31 <yyparse+0x291d>
 804bc2b:	8b 85 04 ee ff ff    	mov    -0x11fc(%ebp),%eax
 804bc31:	83 ec 04             	sub    $0x4,%esp
 804bc34:	6a 00                	push   $0x0
 804bc36:	50                   	push   %eax
 804bc37:	68 0e 11 05 08       	push   $0x805110e
 804bc3c:	e8 19 28 00 00       	call   804e45a <Syntax_Leaf_New>
 804bc41:	83 c4 10             	add    $0x10,%esp
 804bc44:	89 85 30 ed ff ff    	mov    %eax,-0x12d0(%ebp)
 804bc4a:	8b 85 30 ed ff ff    	mov    -0x12d0(%ebp),%eax
 804bc50:	8b 40 0c             	mov    0xc(%eax),%eax
 804bc53:	8d 48 01             	lea    0x1(%eax),%ecx
 804bc56:	8b 95 30 ed ff ff    	mov    -0x12d0(%ebp),%edx
 804bc5c:	89 4a 0c             	mov    %ecx,0xc(%edx)
 804bc5f:	8b 95 e8 ec ff ff    	mov    -0x1318(%ebp),%edx
 804bc65:	83 ea 08             	sub    $0x8,%edx
 804bc68:	8b 0a                	mov    (%edx),%ecx
 804bc6a:	8b 95 30 ed ff ff    	mov    -0x12d0(%ebp),%edx
 804bc70:	83 c0 04             	add    $0x4,%eax
 804bc73:	89 0c 82             	mov    %ecx,(%edx,%eax,4)
 804bc76:	8b 85 30 ed ff ff    	mov    -0x12d0(%ebp),%eax
 804bc7c:	8b 40 0c             	mov    0xc(%eax),%eax
 804bc7f:	8d 48 01             	lea    0x1(%eax),%ecx
 804bc82:	8b 95 30 ed ff ff    	mov    -0x12d0(%ebp),%edx
 804bc88:	89 4a 0c             	mov    %ecx,0xc(%edx)
 804bc8b:	8b 95 e8 ec ff ff    	mov    -0x1318(%ebp),%edx
 804bc91:	83 ea 04             	sub    $0x4,%edx
 804bc94:	8b 0a                	mov    (%edx),%ecx
 804bc96:	8b 95 30 ed ff ff    	mov    -0x12d0(%ebp),%edx
 804bc9c:	83 c0 04             	add    $0x4,%eax
 804bc9f:	89 0c 82             	mov    %ecx,(%edx,%eax,4)
 804bca2:	8b 85 30 ed ff ff    	mov    -0x12d0(%ebp),%eax
 804bca8:	8b 40 0c             	mov    0xc(%eax),%eax
 804bcab:	8d 48 01             	lea    0x1(%eax),%ecx
 804bcae:	8b 95 30 ed ff ff    	mov    -0x12d0(%ebp),%edx
 804bcb4:	89 4a 0c             	mov    %ecx,0xc(%edx)
 804bcb7:	8b 95 e8 ec ff ff    	mov    -0x1318(%ebp),%edx
 804bcbd:	8b 0a                	mov    (%edx),%ecx
 804bcbf:	8b 95 30 ed ff ff    	mov    -0x12d0(%ebp),%edx
 804bcc5:	83 c0 04             	add    $0x4,%eax
 804bcc8:	89 0c 82             	mov    %ecx,(%edx,%eax,4)
 804bccb:	8b 85 30 ed ff ff    	mov    -0x12d0(%ebp),%eax
 804bcd1:	89 85 c8 ec ff ff    	mov    %eax,-0x1338(%ebp)
 804bcd7:	e9 55 21 00 00       	jmp    804de31 <yyparse+0x291d>
 804bcdc:	8b 85 04 ee ff ff    	mov    -0x11fc(%ebp),%eax
 804bce2:	83 ec 04             	sub    $0x4,%esp
 804bce5:	6a 00                	push   $0x0
 804bce7:	50                   	push   %eax
 804bce8:	68 0e 11 05 08       	push   $0x805110e
 804bced:	e8 68 27 00 00       	call   804e45a <Syntax_Leaf_New>
 804bcf2:	83 c4 10             	add    $0x10,%esp
 804bcf5:	89 85 34 ed ff ff    	mov    %eax,-0x12cc(%ebp)
 804bcfb:	8b 85 34 ed ff ff    	mov    -0x12cc(%ebp),%eax
 804bd01:	8b 40 0c             	mov    0xc(%eax),%eax
 804bd04:	8d 48 01             	lea    0x1(%eax),%ecx
 804bd07:	8b 95 34 ed ff ff    	mov    -0x12cc(%ebp),%edx
 804bd0d:	89 4a 0c             	mov    %ecx,0xc(%edx)
 804bd10:	8b 95 e8 ec ff ff    	mov    -0x1318(%ebp),%edx
 804bd16:	83 ea 04             	sub    $0x4,%edx
 804bd19:	8b 0a                	mov    (%edx),%ecx
 804bd1b:	8b 95 34 ed ff ff    	mov    -0x12cc(%ebp),%edx
 804bd21:	83 c0 04             	add    $0x4,%eax
 804bd24:	89 0c 82             	mov    %ecx,(%edx,%eax,4)
 804bd27:	8b 85 34 ed ff ff    	mov    -0x12cc(%ebp),%eax
 804bd2d:	8b 40 0c             	mov    0xc(%eax),%eax
 804bd30:	8d 48 01             	lea    0x1(%eax),%ecx
 804bd33:	8b 95 34 ed ff ff    	mov    -0x12cc(%ebp),%edx
 804bd39:	89 4a 0c             	mov    %ecx,0xc(%edx)
 804bd3c:	8b 95 e8 ec ff ff    	mov    -0x1318(%ebp),%edx
 804bd42:	8b 0a                	mov    (%edx),%ecx
 804bd44:	8b 95 34 ed ff ff    	mov    -0x12cc(%ebp),%edx
 804bd4a:	83 c0 04             	add    $0x4,%eax
 804bd4d:	89 0c 82             	mov    %ecx,(%edx,%eax,4)
 804bd50:	8b 85 34 ed ff ff    	mov    -0x12cc(%ebp),%eax
 804bd56:	89 85 c8 ec ff ff    	mov    %eax,-0x1338(%ebp)
 804bd5c:	e9 d0 20 00 00       	jmp    804de31 <yyparse+0x291d>
 804bd61:	8b 85 04 ee ff ff    	mov    -0x11fc(%ebp),%eax
 804bd67:	83 ec 04             	sub    $0x4,%esp
 804bd6a:	6a 00                	push   $0x0
 804bd6c:	50                   	push   %eax
 804bd6d:	68 0e 11 05 08       	push   $0x805110e
 804bd72:	e8 e3 26 00 00       	call   804e45a <Syntax_Leaf_New>
 804bd77:	83 c4 10             	add    $0x10,%esp
 804bd7a:	89 85 38 ed ff ff    	mov    %eax,-0x12c8(%ebp)
 804bd80:	8b 85 38 ed ff ff    	mov    -0x12c8(%ebp),%eax
 804bd86:	8b 40 0c             	mov    0xc(%eax),%eax
 804bd89:	8d 48 01             	lea    0x1(%eax),%ecx
 804bd8c:	8b 95 38 ed ff ff    	mov    -0x12c8(%ebp),%edx
 804bd92:	89 4a 0c             	mov    %ecx,0xc(%edx)
 804bd95:	8b 95 e8 ec ff ff    	mov    -0x1318(%ebp),%edx
 804bd9b:	83 ea 08             	sub    $0x8,%edx
 804bd9e:	8b 0a                	mov    (%edx),%ecx
 804bda0:	8b 95 38 ed ff ff    	mov    -0x12c8(%ebp),%edx
 804bda6:	83 c0 04             	add    $0x4,%eax
 804bda9:	89 0c 82             	mov    %ecx,(%edx,%eax,4)
 804bdac:	8b 85 38 ed ff ff    	mov    -0x12c8(%ebp),%eax
 804bdb2:	8b 40 0c             	mov    0xc(%eax),%eax
 804bdb5:	8d 48 01             	lea    0x1(%eax),%ecx
 804bdb8:	8b 95 38 ed ff ff    	mov    -0x12c8(%ebp),%edx
 804bdbe:	89 4a 0c             	mov    %ecx,0xc(%edx)
 804bdc1:	8b 95 e8 ec ff ff    	mov    -0x1318(%ebp),%edx
 804bdc7:	83 ea 04             	sub    $0x4,%edx
 804bdca:	8b 0a                	mov    (%edx),%ecx
 804bdcc:	8b 95 38 ed ff ff    	mov    -0x12c8(%ebp),%edx
 804bdd2:	83 c0 04             	add    $0x4,%eax
 804bdd5:	89 0c 82             	mov    %ecx,(%edx,%eax,4)
 804bdd8:	8b 85 38 ed ff ff    	mov    -0x12c8(%ebp),%eax
 804bdde:	8b 40 0c             	mov    0xc(%eax),%eax
 804bde1:	8d 48 01             	lea    0x1(%eax),%ecx
 804bde4:	8b 95 38 ed ff ff    	mov    -0x12c8(%ebp),%edx
 804bdea:	89 4a 0c             	mov    %ecx,0xc(%edx)
 804bded:	8b 95 e8 ec ff ff    	mov    -0x1318(%ebp),%edx
 804bdf3:	8b 0a                	mov    (%edx),%ecx
 804bdf5:	8b 95 38 ed ff ff    	mov    -0x12c8(%ebp),%edx
 804bdfb:	83 c0 04             	add    $0x4,%eax
 804bdfe:	89 0c 82             	mov    %ecx,(%edx,%eax,4)
 804be01:	8b 85 38 ed ff ff    	mov    -0x12c8(%ebp),%eax
 804be07:	89 85 c8 ec ff ff    	mov    %eax,-0x1338(%ebp)
 804be0d:	e9 1f 20 00 00       	jmp    804de31 <yyparse+0x291d>
 804be12:	8b 85 04 ee ff ff    	mov    -0x11fc(%ebp),%eax
 804be18:	83 ec 04             	sub    $0x4,%esp
 804be1b:	6a 00                	push   $0x0
 804be1d:	50                   	push   %eax
 804be1e:	68 0e 11 05 08       	push   $0x805110e
 804be23:	e8 32 26 00 00       	call   804e45a <Syntax_Leaf_New>
 804be28:	83 c4 10             	add    $0x10,%esp
 804be2b:	89 85 3c ed ff ff    	mov    %eax,-0x12c4(%ebp)
 804be31:	8b 85 3c ed ff ff    	mov    -0x12c4(%ebp),%eax
 804be37:	8b 40 0c             	mov    0xc(%eax),%eax
 804be3a:	8d 48 01             	lea    0x1(%eax),%ecx
 804be3d:	8b 95 3c ed ff ff    	mov    -0x12c4(%ebp),%edx
 804be43:	89 4a 0c             	mov    %ecx,0xc(%edx)
 804be46:	8b 95 e8 ec ff ff    	mov    -0x1318(%ebp),%edx
 804be4c:	83 ea 08             	sub    $0x8,%edx
 804be4f:	8b 0a                	mov    (%edx),%ecx
 804be51:	8b 95 3c ed ff ff    	mov    -0x12c4(%ebp),%edx
 804be57:	83 c0 04             	add    $0x4,%eax
 804be5a:	89 0c 82             	mov    %ecx,(%edx,%eax,4)
 804be5d:	8b 85 3c ed ff ff    	mov    -0x12c4(%ebp),%eax
 804be63:	8b 40 0c             	mov    0xc(%eax),%eax
 804be66:	8d 48 01             	lea    0x1(%eax),%ecx
 804be69:	8b 95 3c ed ff ff    	mov    -0x12c4(%ebp),%edx
 804be6f:	89 4a 0c             	mov    %ecx,0xc(%edx)
 804be72:	8b 95 e8 ec ff ff    	mov    -0x1318(%ebp),%edx
 804be78:	83 ea 04             	sub    $0x4,%edx
 804be7b:	8b 0a                	mov    (%edx),%ecx
 804be7d:	8b 95 3c ed ff ff    	mov    -0x12c4(%ebp),%edx
 804be83:	83 c0 04             	add    $0x4,%eax
 804be86:	89 0c 82             	mov    %ecx,(%edx,%eax,4)
 804be89:	8b 85 3c ed ff ff    	mov    -0x12c4(%ebp),%eax
 804be8f:	8b 40 0c             	mov    0xc(%eax),%eax
 804be92:	8d 48 01             	lea    0x1(%eax),%ecx
 804be95:	8b 95 3c ed ff ff    	mov    -0x12c4(%ebp),%edx
 804be9b:	89 4a 0c             	mov    %ecx,0xc(%edx)
 804be9e:	8b 95 e8 ec ff ff    	mov    -0x1318(%ebp),%edx
 804bea4:	8b 0a                	mov    (%edx),%ecx
 804bea6:	8b 95 3c ed ff ff    	mov    -0x12c4(%ebp),%edx
 804beac:	83 c0 04             	add    $0x4,%eax
 804beaf:	89 0c 82             	mov    %ecx,(%edx,%eax,4)
 804beb2:	8b 85 3c ed ff ff    	mov    -0x12c4(%ebp),%eax
 804beb8:	89 85 c8 ec ff ff    	mov    %eax,-0x1338(%ebp)
 804bebe:	e9 6e 1f 00 00       	jmp    804de31 <yyparse+0x291d>
 804bec3:	8b 85 04 ee ff ff    	mov    -0x11fc(%ebp),%eax
 804bec9:	83 ec 04             	sub    $0x4,%esp
 804becc:	6a 00                	push   $0x0
 804bece:	50                   	push   %eax
 804becf:	68 15 11 05 08       	push   $0x8051115
 804bed4:	e8 81 25 00 00       	call   804e45a <Syntax_Leaf_New>
 804bed9:	83 c4 10             	add    $0x10,%esp
 804bedc:	89 85 40 ed ff ff    	mov    %eax,-0x12c0(%ebp)
 804bee2:	8b 85 40 ed ff ff    	mov    -0x12c0(%ebp),%eax
 804bee8:	8b 40 0c             	mov    0xc(%eax),%eax
 804beeb:	8d 48 01             	lea    0x1(%eax),%ecx
 804beee:	8b 95 40 ed ff ff    	mov    -0x12c0(%ebp),%edx
 804bef4:	89 4a 0c             	mov    %ecx,0xc(%edx)
 804bef7:	8b 95 e8 ec ff ff    	mov    -0x1318(%ebp),%edx
 804befd:	8b 0a                	mov    (%edx),%ecx
 804beff:	8b 95 40 ed ff ff    	mov    -0x12c0(%ebp),%edx
 804bf05:	83 c0 04             	add    $0x4,%eax
 804bf08:	89 0c 82             	mov    %ecx,(%edx,%eax,4)
 804bf0b:	8b 85 40 ed ff ff    	mov    -0x12c0(%ebp),%eax
 804bf11:	89 85 c8 ec ff ff    	mov    %eax,-0x1338(%ebp)
 804bf17:	e9 15 1f 00 00       	jmp    804de31 <yyparse+0x291d>
 804bf1c:	8b 85 04 ee ff ff    	mov    -0x11fc(%ebp),%eax
 804bf22:	83 ec 04             	sub    $0x4,%esp
 804bf25:	6a 00                	push   $0x0
 804bf27:	50                   	push   %eax
 804bf28:	68 15 11 05 08       	push   $0x8051115
 804bf2d:	e8 28 25 00 00       	call   804e45a <Syntax_Leaf_New>
 804bf32:	83 c4 10             	add    $0x10,%esp
 804bf35:	89 85 44 ed ff ff    	mov    %eax,-0x12bc(%ebp)
 804bf3b:	8b 85 44 ed ff ff    	mov    -0x12bc(%ebp),%eax
 804bf41:	8b 40 0c             	mov    0xc(%eax),%eax
 804bf44:	8d 48 01             	lea    0x1(%eax),%ecx
 804bf47:	8b 95 44 ed ff ff    	mov    -0x12bc(%ebp),%edx
 804bf4d:	89 4a 0c             	mov    %ecx,0xc(%edx)
 804bf50:	8b 95 e8 ec ff ff    	mov    -0x1318(%ebp),%edx
 804bf56:	83 ea 08             	sub    $0x8,%edx
 804bf59:	8b 0a                	mov    (%edx),%ecx
 804bf5b:	8b 95 44 ed ff ff    	mov    -0x12bc(%ebp),%edx
 804bf61:	83 c0 04             	add    $0x4,%eax
 804bf64:	89 0c 82             	mov    %ecx,(%edx,%eax,4)
 804bf67:	8b 85 44 ed ff ff    	mov    -0x12bc(%ebp),%eax
 804bf6d:	8b 40 0c             	mov    0xc(%eax),%eax
 804bf70:	8d 48 01             	lea    0x1(%eax),%ecx
 804bf73:	8b 95 44 ed ff ff    	mov    -0x12bc(%ebp),%edx
 804bf79:	89 4a 0c             	mov    %ecx,0xc(%edx)
 804bf7c:	8b 95 e8 ec ff ff    	mov    -0x1318(%ebp),%edx
 804bf82:	83 ea 04             	sub    $0x4,%edx
 804bf85:	8b 0a                	mov    (%edx),%ecx
 804bf87:	8b 95 44 ed ff ff    	mov    -0x12bc(%ebp),%edx
 804bf8d:	83 c0 04             	add    $0x4,%eax
 804bf90:	89 0c 82             	mov    %ecx,(%edx,%eax,4)
 804bf93:	8b 85 44 ed ff ff    	mov    -0x12bc(%ebp),%eax
 804bf99:	8b 40 0c             	mov    0xc(%eax),%eax
 804bf9c:	8d 48 01             	lea    0x1(%eax),%ecx
 804bf9f:	8b 95 44 ed ff ff    	mov    -0x12bc(%ebp),%edx
 804bfa5:	89 4a 0c             	mov    %ecx,0xc(%edx)
 804bfa8:	8b 95 e8 ec ff ff    	mov    -0x1318(%ebp),%edx
 804bfae:	8b 0a                	mov    (%edx),%ecx
 804bfb0:	8b 95 44 ed ff ff    	mov    -0x12bc(%ebp),%edx
 804bfb6:	83 c0 04             	add    $0x4,%eax
 804bfb9:	89 0c 82             	mov    %ecx,(%edx,%eax,4)
 804bfbc:	8b 85 44 ed ff ff    	mov    -0x12bc(%ebp),%eax
 804bfc2:	89 85 c8 ec ff ff    	mov    %eax,-0x1338(%ebp)
 804bfc8:	e9 64 1e 00 00       	jmp    804de31 <yyparse+0x291d>
 804bfcd:	8b 85 04 ee ff ff    	mov    -0x11fc(%ebp),%eax
 804bfd3:	83 ec 04             	sub    $0x4,%esp
 804bfd6:	6a 00                	push   $0x0
 804bfd8:	50                   	push   %eax
 804bfd9:	68 20 11 05 08       	push   $0x8051120
 804bfde:	e8 77 24 00 00       	call   804e45a <Syntax_Leaf_New>
 804bfe3:	83 c4 10             	add    $0x10,%esp
 804bfe6:	89 85 48 ed ff ff    	mov    %eax,-0x12b8(%ebp)
 804bfec:	8b 85 48 ed ff ff    	mov    -0x12b8(%ebp),%eax
 804bff2:	8b 40 0c             	mov    0xc(%eax),%eax
 804bff5:	8d 48 01             	lea    0x1(%eax),%ecx
 804bff8:	8b 95 48 ed ff ff    	mov    -0x12b8(%ebp),%edx
 804bffe:	89 4a 0c             	mov    %ecx,0xc(%edx)
 804c001:	8b 95 e8 ec ff ff    	mov    -0x1318(%ebp),%edx
 804c007:	8b 0a                	mov    (%edx),%ecx
 804c009:	8b 95 48 ed ff ff    	mov    -0x12b8(%ebp),%edx
 804c00f:	83 c0 04             	add    $0x4,%eax
 804c012:	89 0c 82             	mov    %ecx,(%edx,%eax,4)
 804c015:	8b 85 48 ed ff ff    	mov    -0x12b8(%ebp),%eax
 804c01b:	89 85 c8 ec ff ff    	mov    %eax,-0x1338(%ebp)
 804c021:	e9 0b 1e 00 00       	jmp    804de31 <yyparse+0x291d>
 804c026:	8b 85 04 ee ff ff    	mov    -0x11fc(%ebp),%eax
 804c02c:	83 ec 04             	sub    $0x4,%esp
 804c02f:	6a 00                	push   $0x0
 804c031:	50                   	push   %eax
 804c032:	68 20 11 05 08       	push   $0x8051120
 804c037:	e8 1e 24 00 00       	call   804e45a <Syntax_Leaf_New>
 804c03c:	83 c4 10             	add    $0x10,%esp
 804c03f:	89 85 4c ed ff ff    	mov    %eax,-0x12b4(%ebp)
 804c045:	8b 85 4c ed ff ff    	mov    -0x12b4(%ebp),%eax
 804c04b:	8b 40 0c             	mov    0xc(%eax),%eax
 804c04e:	8d 48 01             	lea    0x1(%eax),%ecx
 804c051:	8b 95 4c ed ff ff    	mov    -0x12b4(%ebp),%edx
 804c057:	89 4a 0c             	mov    %ecx,0xc(%edx)
 804c05a:	8b 95 e8 ec ff ff    	mov    -0x1318(%ebp),%edx
 804c060:	8b 0a                	mov    (%edx),%ecx
 804c062:	8b 95 4c ed ff ff    	mov    -0x12b4(%ebp),%edx
 804c068:	83 c0 04             	add    $0x4,%eax
 804c06b:	89 0c 82             	mov    %ecx,(%edx,%eax,4)
 804c06e:	8b 85 4c ed ff ff    	mov    -0x12b4(%ebp),%eax
 804c074:	89 85 c8 ec ff ff    	mov    %eax,-0x1338(%ebp)
 804c07a:	e9 b2 1d 00 00       	jmp    804de31 <yyparse+0x291d>
 804c07f:	8b 85 04 ee ff ff    	mov    -0x11fc(%ebp),%eax
 804c085:	83 ec 04             	sub    $0x4,%esp
 804c088:	6a 00                	push   $0x0
 804c08a:	50                   	push   %eax
 804c08b:	68 2a 11 05 08       	push   $0x805112a
 804c090:	e8 c5 23 00 00       	call   804e45a <Syntax_Leaf_New>
 804c095:	83 c4 10             	add    $0x10,%esp
 804c098:	89 85 50 ed ff ff    	mov    %eax,-0x12b0(%ebp)
 804c09e:	8b 85 50 ed ff ff    	mov    -0x12b0(%ebp),%eax
 804c0a4:	8b 40 0c             	mov    0xc(%eax),%eax
 804c0a7:	8d 48 01             	lea    0x1(%eax),%ecx
 804c0aa:	8b 95 50 ed ff ff    	mov    -0x12b0(%ebp),%edx
 804c0b0:	89 4a 0c             	mov    %ecx,0xc(%edx)
 804c0b3:	8b 95 e8 ec ff ff    	mov    -0x1318(%ebp),%edx
 804c0b9:	83 ea 10             	sub    $0x10,%edx
 804c0bc:	8b 0a                	mov    (%edx),%ecx
 804c0be:	8b 95 50 ed ff ff    	mov    -0x12b0(%ebp),%edx
 804c0c4:	83 c0 04             	add    $0x4,%eax
 804c0c7:	89 0c 82             	mov    %ecx,(%edx,%eax,4)
 804c0ca:	8b 85 50 ed ff ff    	mov    -0x12b0(%ebp),%eax
 804c0d0:	8b 40 0c             	mov    0xc(%eax),%eax
 804c0d3:	8d 48 01             	lea    0x1(%eax),%ecx
 804c0d6:	8b 95 50 ed ff ff    	mov    -0x12b0(%ebp),%edx
 804c0dc:	89 4a 0c             	mov    %ecx,0xc(%edx)
 804c0df:	8b 95 e8 ec ff ff    	mov    -0x1318(%ebp),%edx
 804c0e5:	83 ea 0c             	sub    $0xc,%edx
 804c0e8:	8b 0a                	mov    (%edx),%ecx
 804c0ea:	8b 95 50 ed ff ff    	mov    -0x12b0(%ebp),%edx
 804c0f0:	83 c0 04             	add    $0x4,%eax
 804c0f3:	89 0c 82             	mov    %ecx,(%edx,%eax,4)
 804c0f6:	8b 85 50 ed ff ff    	mov    -0x12b0(%ebp),%eax
 804c0fc:	8b 40 0c             	mov    0xc(%eax),%eax
 804c0ff:	8d 48 01             	lea    0x1(%eax),%ecx
 804c102:	8b 95 50 ed ff ff    	mov    -0x12b0(%ebp),%edx
 804c108:	89 4a 0c             	mov    %ecx,0xc(%edx)
 804c10b:	8b 95 e8 ec ff ff    	mov    -0x1318(%ebp),%edx
 804c111:	83 ea 08             	sub    $0x8,%edx
 804c114:	8b 0a                	mov    (%edx),%ecx
 804c116:	8b 95 50 ed ff ff    	mov    -0x12b0(%ebp),%edx
 804c11c:	83 c0 04             	add    $0x4,%eax
 804c11f:	89 0c 82             	mov    %ecx,(%edx,%eax,4)
 804c122:	8b 85 50 ed ff ff    	mov    -0x12b0(%ebp),%eax
 804c128:	8b 40 0c             	mov    0xc(%eax),%eax
 804c12b:	8d 48 01             	lea    0x1(%eax),%ecx
 804c12e:	8b 95 50 ed ff ff    	mov    -0x12b0(%ebp),%edx
 804c134:	89 4a 0c             	mov    %ecx,0xc(%edx)
 804c137:	8b 95 e8 ec ff ff    	mov    -0x1318(%ebp),%edx
 804c13d:	83 ea 04             	sub    $0x4,%edx
 804c140:	8b 0a                	mov    (%edx),%ecx
 804c142:	8b 95 50 ed ff ff    	mov    -0x12b0(%ebp),%edx
 804c148:	83 c0 04             	add    $0x4,%eax
 804c14b:	89 0c 82             	mov    %ecx,(%edx,%eax,4)
 804c14e:	8b 85 50 ed ff ff    	mov    -0x12b0(%ebp),%eax
 804c154:	8b 40 0c             	mov    0xc(%eax),%eax
 804c157:	8d 48 01             	lea    0x1(%eax),%ecx
 804c15a:	8b 95 50 ed ff ff    	mov    -0x12b0(%ebp),%edx
 804c160:	89 4a 0c             	mov    %ecx,0xc(%edx)
 804c163:	8b 95 e8 ec ff ff    	mov    -0x1318(%ebp),%edx
 804c169:	8b 0a                	mov    (%edx),%ecx
 804c16b:	8b 95 50 ed ff ff    	mov    -0x12b0(%ebp),%edx
 804c171:	83 c0 04             	add    $0x4,%eax
 804c174:	89 0c 82             	mov    %ecx,(%edx,%eax,4)
 804c177:	8b 85 50 ed ff ff    	mov    -0x12b0(%ebp),%eax
 804c17d:	89 85 c8 ec ff ff    	mov    %eax,-0x1338(%ebp)
 804c183:	e9 a9 1c 00 00       	jmp    804de31 <yyparse+0x291d>
 804c188:	8b 85 04 ee ff ff    	mov    -0x11fc(%ebp),%eax
 804c18e:	83 ec 04             	sub    $0x4,%esp
 804c191:	6a 00                	push   $0x0
 804c193:	50                   	push   %eax
 804c194:	68 2a 11 05 08       	push   $0x805112a
 804c199:	e8 bc 22 00 00       	call   804e45a <Syntax_Leaf_New>
 804c19e:	83 c4 10             	add    $0x10,%esp
 804c1a1:	89 85 54 ed ff ff    	mov    %eax,-0x12ac(%ebp)
 804c1a7:	8b 85 54 ed ff ff    	mov    -0x12ac(%ebp),%eax
 804c1ad:	8b 40 0c             	mov    0xc(%eax),%eax
 804c1b0:	8d 48 01             	lea    0x1(%eax),%ecx
 804c1b3:	8b 95 54 ed ff ff    	mov    -0x12ac(%ebp),%edx
 804c1b9:	89 4a 0c             	mov    %ecx,0xc(%edx)
 804c1bc:	8b 95 e8 ec ff ff    	mov    -0x1318(%ebp),%edx
 804c1c2:	83 ea 04             	sub    $0x4,%edx
 804c1c5:	8b 0a                	mov    (%edx),%ecx
 804c1c7:	8b 95 54 ed ff ff    	mov    -0x12ac(%ebp),%edx
 804c1cd:	83 c0 04             	add    $0x4,%eax
 804c1d0:	89 0c 82             	mov    %ecx,(%edx,%eax,4)
 804c1d3:	8b 85 54 ed ff ff    	mov    -0x12ac(%ebp),%eax
 804c1d9:	8b 40 0c             	mov    0xc(%eax),%eax
 804c1dc:	8d 48 01             	lea    0x1(%eax),%ecx
 804c1df:	8b 95 54 ed ff ff    	mov    -0x12ac(%ebp),%edx
 804c1e5:	89 4a 0c             	mov    %ecx,0xc(%edx)
 804c1e8:	8b 95 e8 ec ff ff    	mov    -0x1318(%ebp),%edx
 804c1ee:	8b 0a                	mov    (%edx),%ecx
 804c1f0:	8b 95 54 ed ff ff    	mov    -0x12ac(%ebp),%edx
 804c1f6:	83 c0 04             	add    $0x4,%eax
 804c1f9:	89 0c 82             	mov    %ecx,(%edx,%eax,4)
 804c1fc:	8b 85 54 ed ff ff    	mov    -0x12ac(%ebp),%eax
 804c202:	89 85 c8 ec ff ff    	mov    %eax,-0x1338(%ebp)
 804c208:	e9 24 1c 00 00       	jmp    804de31 <yyparse+0x291d>
 804c20d:	c7 85 c8 ec ff ff 00 	movl   $0x0,-0x1338(%ebp)
 804c214:	00 00 00 
 804c217:	e9 15 1c 00 00       	jmp    804de31 <yyparse+0x291d>
 804c21c:	8b 85 04 ee ff ff    	mov    -0x11fc(%ebp),%eax
 804c222:	83 ec 04             	sub    $0x4,%esp
 804c225:	6a 00                	push   $0x0
 804c227:	50                   	push   %eax
 804c228:	68 3a 11 05 08       	push   $0x805113a
 804c22d:	e8 28 22 00 00       	call   804e45a <Syntax_Leaf_New>
 804c232:	83 c4 10             	add    $0x10,%esp
 804c235:	89 85 58 ed ff ff    	mov    %eax,-0x12a8(%ebp)
 804c23b:	8b 85 58 ed ff ff    	mov    -0x12a8(%ebp),%eax
 804c241:	8b 40 0c             	mov    0xc(%eax),%eax
 804c244:	8d 48 01             	lea    0x1(%eax),%ecx
 804c247:	8b 95 58 ed ff ff    	mov    -0x12a8(%ebp),%edx
 804c24d:	89 4a 0c             	mov    %ecx,0xc(%edx)
 804c250:	8b 95 e8 ec ff ff    	mov    -0x1318(%ebp),%edx
 804c256:	8b 0a                	mov    (%edx),%ecx
 804c258:	8b 95 58 ed ff ff    	mov    -0x12a8(%ebp),%edx
 804c25e:	83 c0 04             	add    $0x4,%eax
 804c261:	89 0c 82             	mov    %ecx,(%edx,%eax,4)
 804c264:	8b 85 58 ed ff ff    	mov    -0x12a8(%ebp),%eax
 804c26a:	89 85 c8 ec ff ff    	mov    %eax,-0x1338(%ebp)
 804c270:	e9 bc 1b 00 00       	jmp    804de31 <yyparse+0x291d>
 804c275:	8b 85 04 ee ff ff    	mov    -0x11fc(%ebp),%eax
 804c27b:	83 ec 04             	sub    $0x4,%esp
 804c27e:	6a 00                	push   $0x0
 804c280:	50                   	push   %eax
 804c281:	68 41 11 05 08       	push   $0x8051141
 804c286:	e8 cf 21 00 00       	call   804e45a <Syntax_Leaf_New>
 804c28b:	83 c4 10             	add    $0x10,%esp
 804c28e:	89 85 5c ed ff ff    	mov    %eax,-0x12a4(%ebp)
 804c294:	8b 85 5c ed ff ff    	mov    -0x12a4(%ebp),%eax
 804c29a:	8b 40 0c             	mov    0xc(%eax),%eax
 804c29d:	8d 48 01             	lea    0x1(%eax),%ecx
 804c2a0:	8b 95 5c ed ff ff    	mov    -0x12a4(%ebp),%edx
 804c2a6:	89 4a 0c             	mov    %ecx,0xc(%edx)
 804c2a9:	8b 95 e8 ec ff ff    	mov    -0x1318(%ebp),%edx
 804c2af:	8b 0a                	mov    (%edx),%ecx
 804c2b1:	8b 95 5c ed ff ff    	mov    -0x12a4(%ebp),%edx
 804c2b7:	83 c0 04             	add    $0x4,%eax
 804c2ba:	89 0c 82             	mov    %ecx,(%edx,%eax,4)
 804c2bd:	8b 85 5c ed ff ff    	mov    -0x12a4(%ebp),%eax
 804c2c3:	89 85 c8 ec ff ff    	mov    %eax,-0x1338(%ebp)
 804c2c9:	e9 63 1b 00 00       	jmp    804de31 <yyparse+0x291d>
 804c2ce:	8b 85 04 ee ff ff    	mov    -0x11fc(%ebp),%eax
 804c2d4:	83 ec 04             	sub    $0x4,%esp
 804c2d7:	6a 00                	push   $0x0
 804c2d9:	50                   	push   %eax
 804c2da:	68 45 11 05 08       	push   $0x8051145
 804c2df:	e8 76 21 00 00       	call   804e45a <Syntax_Leaf_New>
 804c2e4:	83 c4 10             	add    $0x10,%esp
 804c2e7:	89 85 60 ed ff ff    	mov    %eax,-0x12a0(%ebp)
 804c2ed:	8b 85 60 ed ff ff    	mov    -0x12a0(%ebp),%eax
 804c2f3:	8b 40 0c             	mov    0xc(%eax),%eax
 804c2f6:	8d 48 01             	lea    0x1(%eax),%ecx
 804c2f9:	8b 95 60 ed ff ff    	mov    -0x12a0(%ebp),%edx
 804c2ff:	89 4a 0c             	mov    %ecx,0xc(%edx)
 804c302:	8b 95 e8 ec ff ff    	mov    -0x1318(%ebp),%edx
 804c308:	8b 0a                	mov    (%edx),%ecx
 804c30a:	8b 95 60 ed ff ff    	mov    -0x12a0(%ebp),%edx
 804c310:	83 c0 04             	add    $0x4,%eax
 804c313:	89 0c 82             	mov    %ecx,(%edx,%eax,4)
 804c316:	8b 85 60 ed ff ff    	mov    -0x12a0(%ebp),%eax
 804c31c:	89 85 c8 ec ff ff    	mov    %eax,-0x1338(%ebp)
 804c322:	e9 0a 1b 00 00       	jmp    804de31 <yyparse+0x291d>
 804c327:	8b 85 04 ee ff ff    	mov    -0x11fc(%ebp),%eax
 804c32d:	83 ec 04             	sub    $0x4,%esp
 804c330:	6a 00                	push   $0x0
 804c332:	50                   	push   %eax
 804c333:	68 45 11 05 08       	push   $0x8051145
 804c338:	e8 1d 21 00 00       	call   804e45a <Syntax_Leaf_New>
 804c33d:	83 c4 10             	add    $0x10,%esp
 804c340:	89 85 64 ed ff ff    	mov    %eax,-0x129c(%ebp)
 804c346:	8b 85 64 ed ff ff    	mov    -0x129c(%ebp),%eax
 804c34c:	8b 40 0c             	mov    0xc(%eax),%eax
 804c34f:	8d 48 01             	lea    0x1(%eax),%ecx
 804c352:	8b 95 64 ed ff ff    	mov    -0x129c(%ebp),%edx
 804c358:	89 4a 0c             	mov    %ecx,0xc(%edx)
 804c35b:	8b 95 e8 ec ff ff    	mov    -0x1318(%ebp),%edx
 804c361:	83 ea 0c             	sub    $0xc,%edx
 804c364:	8b 0a                	mov    (%edx),%ecx
 804c366:	8b 95 64 ed ff ff    	mov    -0x129c(%ebp),%edx
 804c36c:	83 c0 04             	add    $0x4,%eax
 804c36f:	89 0c 82             	mov    %ecx,(%edx,%eax,4)
 804c372:	8b 85 64 ed ff ff    	mov    -0x129c(%ebp),%eax
 804c378:	8b 40 0c             	mov    0xc(%eax),%eax
 804c37b:	8d 48 01             	lea    0x1(%eax),%ecx
 804c37e:	8b 95 64 ed ff ff    	mov    -0x129c(%ebp),%edx
 804c384:	89 4a 0c             	mov    %ecx,0xc(%edx)
 804c387:	8b 95 e8 ec ff ff    	mov    -0x1318(%ebp),%edx
 804c38d:	83 ea 08             	sub    $0x8,%edx
 804c390:	8b 0a                	mov    (%edx),%ecx
 804c392:	8b 95 64 ed ff ff    	mov    -0x129c(%ebp),%edx
 804c398:	83 c0 04             	add    $0x4,%eax
 804c39b:	89 0c 82             	mov    %ecx,(%edx,%eax,4)
 804c39e:	8b 85 64 ed ff ff    	mov    -0x129c(%ebp),%eax
 804c3a4:	8b 40 0c             	mov    0xc(%eax),%eax
 804c3a7:	8d 48 01             	lea    0x1(%eax),%ecx
 804c3aa:	8b 95 64 ed ff ff    	mov    -0x129c(%ebp),%edx
 804c3b0:	89 4a 0c             	mov    %ecx,0xc(%edx)
 804c3b3:	8b 95 e8 ec ff ff    	mov    -0x1318(%ebp),%edx
 804c3b9:	83 ea 04             	sub    $0x4,%edx
 804c3bc:	8b 0a                	mov    (%edx),%ecx
 804c3be:	8b 95 64 ed ff ff    	mov    -0x129c(%ebp),%edx
 804c3c4:	83 c0 04             	add    $0x4,%eax
 804c3c7:	89 0c 82             	mov    %ecx,(%edx,%eax,4)
 804c3ca:	8b 85 64 ed ff ff    	mov    -0x129c(%ebp),%eax
 804c3d0:	8b 40 0c             	mov    0xc(%eax),%eax
 804c3d3:	8d 48 01             	lea    0x1(%eax),%ecx
 804c3d6:	8b 95 64 ed ff ff    	mov    -0x129c(%ebp),%edx
 804c3dc:	89 4a 0c             	mov    %ecx,0xc(%edx)
 804c3df:	8b 95 e8 ec ff ff    	mov    -0x1318(%ebp),%edx
 804c3e5:	8b 0a                	mov    (%edx),%ecx
 804c3e7:	8b 95 64 ed ff ff    	mov    -0x129c(%ebp),%edx
 804c3ed:	83 c0 04             	add    $0x4,%eax
 804c3f0:	89 0c 82             	mov    %ecx,(%edx,%eax,4)
 804c3f3:	8b 85 64 ed ff ff    	mov    -0x129c(%ebp),%eax
 804c3f9:	89 85 c8 ec ff ff    	mov    %eax,-0x1338(%ebp)
 804c3ff:	e9 2d 1a 00 00       	jmp    804de31 <yyparse+0x291d>
 804c404:	8b 85 04 ee ff ff    	mov    -0x11fc(%ebp),%eax
 804c40a:	83 ec 04             	sub    $0x4,%esp
 804c40d:	6a 00                	push   $0x0
 804c40f:	50                   	push   %eax
 804c410:	68 4c 11 05 08       	push   $0x805114c
 804c415:	e8 40 20 00 00       	call   804e45a <Syntax_Leaf_New>
 804c41a:	83 c4 10             	add    $0x10,%esp
 804c41d:	89 85 68 ed ff ff    	mov    %eax,-0x1298(%ebp)
 804c423:	8b 85 68 ed ff ff    	mov    -0x1298(%ebp),%eax
 804c429:	8b 40 0c             	mov    0xc(%eax),%eax
 804c42c:	8d 48 01             	lea    0x1(%eax),%ecx
 804c42f:	8b 95 68 ed ff ff    	mov    -0x1298(%ebp),%edx
 804c435:	89 4a 0c             	mov    %ecx,0xc(%edx)
 804c438:	8b 95 e8 ec ff ff    	mov    -0x1318(%ebp),%edx
 804c43e:	83 ea 0c             	sub    $0xc,%edx
 804c441:	8b 0a                	mov    (%edx),%ecx
 804c443:	8b 95 68 ed ff ff    	mov    -0x1298(%ebp),%edx
 804c449:	83 c0 04             	add    $0x4,%eax
 804c44c:	89 0c 82             	mov    %ecx,(%edx,%eax,4)
 804c44f:	8b 85 68 ed ff ff    	mov    -0x1298(%ebp),%eax
 804c455:	8b 40 0c             	mov    0xc(%eax),%eax
 804c458:	8d 48 01             	lea    0x1(%eax),%ecx
 804c45b:	8b 95 68 ed ff ff    	mov    -0x1298(%ebp),%edx
 804c461:	89 4a 0c             	mov    %ecx,0xc(%edx)
 804c464:	8b 95 e8 ec ff ff    	mov    -0x1318(%ebp),%edx
 804c46a:	83 ea 08             	sub    $0x8,%edx
 804c46d:	8b 0a                	mov    (%edx),%ecx
 804c46f:	8b 95 68 ed ff ff    	mov    -0x1298(%ebp),%edx
 804c475:	83 c0 04             	add    $0x4,%eax
 804c478:	89 0c 82             	mov    %ecx,(%edx,%eax,4)
 804c47b:	8b 85 68 ed ff ff    	mov    -0x1298(%ebp),%eax
 804c481:	8b 40 0c             	mov    0xc(%eax),%eax
 804c484:	8d 48 01             	lea    0x1(%eax),%ecx
 804c487:	8b 95 68 ed ff ff    	mov    -0x1298(%ebp),%edx
 804c48d:	89 4a 0c             	mov    %ecx,0xc(%edx)
 804c490:	8b 95 e8 ec ff ff    	mov    -0x1318(%ebp),%edx
 804c496:	83 ea 04             	sub    $0x4,%edx
 804c499:	8b 0a                	mov    (%edx),%ecx
 804c49b:	8b 95 68 ed ff ff    	mov    -0x1298(%ebp),%edx
 804c4a1:	83 c0 04             	add    $0x4,%eax
 804c4a4:	89 0c 82             	mov    %ecx,(%edx,%eax,4)
 804c4a7:	8b 85 68 ed ff ff    	mov    -0x1298(%ebp),%eax
 804c4ad:	8b 40 0c             	mov    0xc(%eax),%eax
 804c4b0:	8d 48 01             	lea    0x1(%eax),%ecx
 804c4b3:	8b 95 68 ed ff ff    	mov    -0x1298(%ebp),%edx
 804c4b9:	89 4a 0c             	mov    %ecx,0xc(%edx)
 804c4bc:	8b 95 e8 ec ff ff    	mov    -0x1318(%ebp),%edx
 804c4c2:	8b 0a                	mov    (%edx),%ecx
 804c4c4:	8b 95 68 ed ff ff    	mov    -0x1298(%ebp),%edx
 804c4ca:	83 c0 04             	add    $0x4,%eax
 804c4cd:	89 0c 82             	mov    %ecx,(%edx,%eax,4)
 804c4d0:	8b 85 68 ed ff ff    	mov    -0x1298(%ebp),%eax
 804c4d6:	89 85 c8 ec ff ff    	mov    %eax,-0x1338(%ebp)
 804c4dc:	e9 50 19 00 00       	jmp    804de31 <yyparse+0x291d>
 804c4e1:	8b 85 04 ee ff ff    	mov    -0x11fc(%ebp),%eax
 804c4e7:	83 ec 04             	sub    $0x4,%esp
 804c4ea:	6a 00                	push   $0x0
 804c4ec:	50                   	push   %eax
 804c4ed:	68 4c 11 05 08       	push   $0x805114c
 804c4f2:	e8 63 1f 00 00       	call   804e45a <Syntax_Leaf_New>
 804c4f7:	83 c4 10             	add    $0x10,%esp
 804c4fa:	89 85 6c ed ff ff    	mov    %eax,-0x1294(%ebp)
 804c500:	8b 85 6c ed ff ff    	mov    -0x1294(%ebp),%eax
 804c506:	8b 40 0c             	mov    0xc(%eax),%eax
 804c509:	8d 48 01             	lea    0x1(%eax),%ecx
 804c50c:	8b 95 6c ed ff ff    	mov    -0x1294(%ebp),%edx
 804c512:	89 4a 0c             	mov    %ecx,0xc(%edx)
 804c515:	8b 95 e8 ec ff ff    	mov    -0x1318(%ebp),%edx
 804c51b:	83 ea 08             	sub    $0x8,%edx
 804c51e:	8b 0a                	mov    (%edx),%ecx
 804c520:	8b 95 6c ed ff ff    	mov    -0x1294(%ebp),%edx
 804c526:	83 c0 04             	add    $0x4,%eax
 804c529:	89 0c 82             	mov    %ecx,(%edx,%eax,4)
 804c52c:	8b 85 6c ed ff ff    	mov    -0x1294(%ebp),%eax
 804c532:	8b 40 0c             	mov    0xc(%eax),%eax
 804c535:	8d 48 01             	lea    0x1(%eax),%ecx
 804c538:	8b 95 6c ed ff ff    	mov    -0x1294(%ebp),%edx
 804c53e:	89 4a 0c             	mov    %ecx,0xc(%edx)
 804c541:	8b 95 e8 ec ff ff    	mov    -0x1318(%ebp),%edx
 804c547:	83 ea 04             	sub    $0x4,%edx
 804c54a:	8b 0a                	mov    (%edx),%ecx
 804c54c:	8b 95 6c ed ff ff    	mov    -0x1294(%ebp),%edx
 804c552:	83 c0 04             	add    $0x4,%eax
 804c555:	89 0c 82             	mov    %ecx,(%edx,%eax,4)
 804c558:	8b 85 6c ed ff ff    	mov    -0x1294(%ebp),%eax
 804c55e:	8b 40 0c             	mov    0xc(%eax),%eax
 804c561:	8d 48 01             	lea    0x1(%eax),%ecx
 804c564:	8b 95 6c ed ff ff    	mov    -0x1294(%ebp),%edx
 804c56a:	89 4a 0c             	mov    %ecx,0xc(%edx)
 804c56d:	8b 95 e8 ec ff ff    	mov    -0x1318(%ebp),%edx
 804c573:	8b 0a                	mov    (%edx),%ecx
 804c575:	8b 95 6c ed ff ff    	mov    -0x1294(%ebp),%edx
 804c57b:	83 c0 04             	add    $0x4,%eax
 804c57e:	89 0c 82             	mov    %ecx,(%edx,%eax,4)
 804c581:	8b 85 6c ed ff ff    	mov    -0x1294(%ebp),%eax
 804c587:	89 85 c8 ec ff ff    	mov    %eax,-0x1338(%ebp)
 804c58d:	e9 9f 18 00 00       	jmp    804de31 <yyparse+0x291d>
 804c592:	8b 85 04 ee ff ff    	mov    -0x11fc(%ebp),%eax
 804c598:	83 ec 04             	sub    $0x4,%esp
 804c59b:	6a 00                	push   $0x0
 804c59d:	50                   	push   %eax
 804c59e:	68 53 11 05 08       	push   $0x8051153
 804c5a3:	e8 b2 1e 00 00       	call   804e45a <Syntax_Leaf_New>
 804c5a8:	83 c4 10             	add    $0x10,%esp
 804c5ab:	89 85 70 ed ff ff    	mov    %eax,-0x1290(%ebp)
 804c5b1:	8b 85 70 ed ff ff    	mov    -0x1290(%ebp),%eax
 804c5b7:	8b 40 0c             	mov    0xc(%eax),%eax
 804c5ba:	8d 48 01             	lea    0x1(%eax),%ecx
 804c5bd:	8b 95 70 ed ff ff    	mov    -0x1290(%ebp),%edx
 804c5c3:	89 4a 0c             	mov    %ecx,0xc(%edx)
 804c5c6:	8b 95 e8 ec ff ff    	mov    -0x1318(%ebp),%edx
 804c5cc:	83 ea 08             	sub    $0x8,%edx
 804c5cf:	8b 0a                	mov    (%edx),%ecx
 804c5d1:	8b 95 70 ed ff ff    	mov    -0x1290(%ebp),%edx
 804c5d7:	83 c0 04             	add    $0x4,%eax
 804c5da:	89 0c 82             	mov    %ecx,(%edx,%eax,4)
 804c5dd:	8b 85 70 ed ff ff    	mov    -0x1290(%ebp),%eax
 804c5e3:	8b 40 0c             	mov    0xc(%eax),%eax
 804c5e6:	8d 48 01             	lea    0x1(%eax),%ecx
 804c5e9:	8b 95 70 ed ff ff    	mov    -0x1290(%ebp),%edx
 804c5ef:	89 4a 0c             	mov    %ecx,0xc(%edx)
 804c5f2:	8b 95 e8 ec ff ff    	mov    -0x1318(%ebp),%edx
 804c5f8:	83 ea 04             	sub    $0x4,%edx
 804c5fb:	8b 0a                	mov    (%edx),%ecx
 804c5fd:	8b 95 70 ed ff ff    	mov    -0x1290(%ebp),%edx
 804c603:	83 c0 04             	add    $0x4,%eax
 804c606:	89 0c 82             	mov    %ecx,(%edx,%eax,4)
 804c609:	8b 85 70 ed ff ff    	mov    -0x1290(%ebp),%eax
 804c60f:	8b 40 0c             	mov    0xc(%eax),%eax
 804c612:	8d 48 01             	lea    0x1(%eax),%ecx
 804c615:	8b 95 70 ed ff ff    	mov    -0x1290(%ebp),%edx
 804c61b:	89 4a 0c             	mov    %ecx,0xc(%edx)
 804c61e:	8b 95 e8 ec ff ff    	mov    -0x1318(%ebp),%edx
 804c624:	8b 0a                	mov    (%edx),%ecx
 804c626:	8b 95 70 ed ff ff    	mov    -0x1290(%ebp),%edx
 804c62c:	83 c0 04             	add    $0x4,%eax
 804c62f:	89 0c 82             	mov    %ecx,(%edx,%eax,4)
 804c632:	8b 85 70 ed ff ff    	mov    -0x1290(%ebp),%eax
 804c638:	89 85 c8 ec ff ff    	mov    %eax,-0x1338(%ebp)
 804c63e:	e9 ee 17 00 00       	jmp    804de31 <yyparse+0x291d>
 804c643:	8b 85 04 ee ff ff    	mov    -0x11fc(%ebp),%eax
 804c649:	83 ec 04             	sub    $0x4,%esp
 804c64c:	6a 00                	push   $0x0
 804c64e:	50                   	push   %eax
 804c64f:	68 53 11 05 08       	push   $0x8051153
 804c654:	e8 01 1e 00 00       	call   804e45a <Syntax_Leaf_New>
 804c659:	83 c4 10             	add    $0x10,%esp
 804c65c:	89 85 74 ed ff ff    	mov    %eax,-0x128c(%ebp)
 804c662:	8b 85 74 ed ff ff    	mov    -0x128c(%ebp),%eax
 804c668:	8b 40 0c             	mov    0xc(%eax),%eax
 804c66b:	8d 48 01             	lea    0x1(%eax),%ecx
 804c66e:	8b 95 74 ed ff ff    	mov    -0x128c(%ebp),%edx
 804c674:	89 4a 0c             	mov    %ecx,0xc(%edx)
 804c677:	8b 95 e8 ec ff ff    	mov    -0x1318(%ebp),%edx
 804c67d:	8b 0a                	mov    (%edx),%ecx
 804c67f:	8b 95 74 ed ff ff    	mov    -0x128c(%ebp),%edx
 804c685:	83 c0 04             	add    $0x4,%eax
 804c688:	89 0c 82             	mov    %ecx,(%edx,%eax,4)
 804c68b:	8b 85 74 ed ff ff    	mov    -0x128c(%ebp),%eax
 804c691:	89 85 c8 ec ff ff    	mov    %eax,-0x1338(%ebp)
 804c697:	e9 95 17 00 00       	jmp    804de31 <yyparse+0x291d>
 804c69c:	8b 85 04 ee ff ff    	mov    -0x11fc(%ebp),%eax
 804c6a2:	83 ec 04             	sub    $0x4,%esp
 804c6a5:	6a 00                	push   $0x0
 804c6a7:	50                   	push   %eax
 804c6a8:	68 5b 11 05 08       	push   $0x805115b
 804c6ad:	e8 a8 1d 00 00       	call   804e45a <Syntax_Leaf_New>
 804c6b2:	83 c4 10             	add    $0x10,%esp
 804c6b5:	89 85 78 ed ff ff    	mov    %eax,-0x1288(%ebp)
 804c6bb:	8b 85 78 ed ff ff    	mov    -0x1288(%ebp),%eax
 804c6c1:	8b 40 0c             	mov    0xc(%eax),%eax
 804c6c4:	8d 48 01             	lea    0x1(%eax),%ecx
 804c6c7:	8b 95 78 ed ff ff    	mov    -0x1288(%ebp),%edx
 804c6cd:	89 4a 0c             	mov    %ecx,0xc(%edx)
 804c6d0:	8b 95 e8 ec ff ff    	mov    -0x1318(%ebp),%edx
 804c6d6:	83 ea 04             	sub    $0x4,%edx
 804c6d9:	8b 0a                	mov    (%edx),%ecx
 804c6db:	8b 95 78 ed ff ff    	mov    -0x1288(%ebp),%edx
 804c6e1:	83 c0 04             	add    $0x4,%eax
 804c6e4:	89 0c 82             	mov    %ecx,(%edx,%eax,4)
 804c6e7:	8b 85 78 ed ff ff    	mov    -0x1288(%ebp),%eax
 804c6ed:	8b 40 0c             	mov    0xc(%eax),%eax
 804c6f0:	8d 48 01             	lea    0x1(%eax),%ecx
 804c6f3:	8b 95 78 ed ff ff    	mov    -0x1288(%ebp),%edx
 804c6f9:	89 4a 0c             	mov    %ecx,0xc(%edx)
 804c6fc:	8b 95 e8 ec ff ff    	mov    -0x1318(%ebp),%edx
 804c702:	8b 0a                	mov    (%edx),%ecx
 804c704:	8b 95 78 ed ff ff    	mov    -0x1288(%ebp),%edx
 804c70a:	83 c0 04             	add    $0x4,%eax
 804c70d:	89 0c 82             	mov    %ecx,(%edx,%eax,4)
 804c710:	8b 85 78 ed ff ff    	mov    -0x1288(%ebp),%eax
 804c716:	89 85 c8 ec ff ff    	mov    %eax,-0x1338(%ebp)
 804c71c:	e9 10 17 00 00       	jmp    804de31 <yyparse+0x291d>
 804c721:	8b 85 04 ee ff ff    	mov    -0x11fc(%ebp),%eax
 804c727:	83 ec 04             	sub    $0x4,%esp
 804c72a:	6a 00                	push   $0x0
 804c72c:	50                   	push   %eax
 804c72d:	68 64 11 05 08       	push   $0x8051164
 804c732:	e8 23 1d 00 00       	call   804e45a <Syntax_Leaf_New>
 804c737:	83 c4 10             	add    $0x10,%esp
 804c73a:	89 85 7c ed ff ff    	mov    %eax,-0x1284(%ebp)
 804c740:	8b 85 7c ed ff ff    	mov    -0x1284(%ebp),%eax
 804c746:	8b 40 0c             	mov    0xc(%eax),%eax
 804c749:	8d 48 01             	lea    0x1(%eax),%ecx
 804c74c:	8b 95 7c ed ff ff    	mov    -0x1284(%ebp),%edx
 804c752:	89 4a 0c             	mov    %ecx,0xc(%edx)
 804c755:	8b 95 e8 ec ff ff    	mov    -0x1318(%ebp),%edx
 804c75b:	83 ea 0c             	sub    $0xc,%edx
 804c75e:	8b 0a                	mov    (%edx),%ecx
 804c760:	8b 95 7c ed ff ff    	mov    -0x1284(%ebp),%edx
 804c766:	83 c0 04             	add    $0x4,%eax
 804c769:	89 0c 82             	mov    %ecx,(%edx,%eax,4)
 804c76c:	8b 85 7c ed ff ff    	mov    -0x1284(%ebp),%eax
 804c772:	8b 40 0c             	mov    0xc(%eax),%eax
 804c775:	8d 48 01             	lea    0x1(%eax),%ecx
 804c778:	8b 95 7c ed ff ff    	mov    -0x1284(%ebp),%edx
 804c77e:	89 4a 0c             	mov    %ecx,0xc(%edx)
 804c781:	8b 95 e8 ec ff ff    	mov    -0x1318(%ebp),%edx
 804c787:	83 ea 08             	sub    $0x8,%edx
 804c78a:	8b 0a                	mov    (%edx),%ecx
 804c78c:	8b 95 7c ed ff ff    	mov    -0x1284(%ebp),%edx
 804c792:	83 c0 04             	add    $0x4,%eax
 804c795:	89 0c 82             	mov    %ecx,(%edx,%eax,4)
 804c798:	8b 85 7c ed ff ff    	mov    -0x1284(%ebp),%eax
 804c79e:	8b 40 0c             	mov    0xc(%eax),%eax
 804c7a1:	8d 48 01             	lea    0x1(%eax),%ecx
 804c7a4:	8b 95 7c ed ff ff    	mov    -0x1284(%ebp),%edx
 804c7aa:	89 4a 0c             	mov    %ecx,0xc(%edx)
 804c7ad:	8b 95 e8 ec ff ff    	mov    -0x1318(%ebp),%edx
 804c7b3:	83 ea 04             	sub    $0x4,%edx
 804c7b6:	8b 0a                	mov    (%edx),%ecx
 804c7b8:	8b 95 7c ed ff ff    	mov    -0x1284(%ebp),%edx
 804c7be:	83 c0 04             	add    $0x4,%eax
 804c7c1:	89 0c 82             	mov    %ecx,(%edx,%eax,4)
 804c7c4:	8b 85 7c ed ff ff    	mov    -0x1284(%ebp),%eax
 804c7ca:	8b 40 0c             	mov    0xc(%eax),%eax
 804c7cd:	8d 48 01             	lea    0x1(%eax),%ecx
 804c7d0:	8b 95 7c ed ff ff    	mov    -0x1284(%ebp),%edx
 804c7d6:	89 4a 0c             	mov    %ecx,0xc(%edx)
 804c7d9:	8b 95 e8 ec ff ff    	mov    -0x1318(%ebp),%edx
 804c7df:	8b 0a                	mov    (%edx),%ecx
 804c7e1:	8b 95 7c ed ff ff    	mov    -0x1284(%ebp),%edx
 804c7e7:	83 c0 04             	add    $0x4,%eax
 804c7ea:	89 0c 82             	mov    %ecx,(%edx,%eax,4)
 804c7ed:	8b 85 7c ed ff ff    	mov    -0x1284(%ebp),%eax
 804c7f3:	89 85 c8 ec ff ff    	mov    %eax,-0x1338(%ebp)
 804c7f9:	e9 33 16 00 00       	jmp    804de31 <yyparse+0x291d>
 804c7fe:	8b 85 04 ee ff ff    	mov    -0x11fc(%ebp),%eax
 804c804:	83 ec 04             	sub    $0x4,%esp
 804c807:	6a 00                	push   $0x0
 804c809:	50                   	push   %eax
 804c80a:	68 6b 11 05 08       	push   $0x805116b
 804c80f:	e8 46 1c 00 00       	call   804e45a <Syntax_Leaf_New>
 804c814:	83 c4 10             	add    $0x10,%esp
 804c817:	89 85 80 ed ff ff    	mov    %eax,-0x1280(%ebp)
 804c81d:	8b 85 80 ed ff ff    	mov    -0x1280(%ebp),%eax
 804c823:	8b 40 0c             	mov    0xc(%eax),%eax
 804c826:	8d 48 01             	lea    0x1(%eax),%ecx
 804c829:	8b 95 80 ed ff ff    	mov    -0x1280(%ebp),%edx
 804c82f:	89 4a 0c             	mov    %ecx,0xc(%edx)
 804c832:	8b 95 e8 ec ff ff    	mov    -0x1318(%ebp),%edx
 804c838:	83 ea 04             	sub    $0x4,%edx
 804c83b:	8b 0a                	mov    (%edx),%ecx
 804c83d:	8b 95 80 ed ff ff    	mov    -0x1280(%ebp),%edx
 804c843:	83 c0 04             	add    $0x4,%eax
 804c846:	89 0c 82             	mov    %ecx,(%edx,%eax,4)
 804c849:	8b 85 80 ed ff ff    	mov    -0x1280(%ebp),%eax
 804c84f:	8b 40 0c             	mov    0xc(%eax),%eax
 804c852:	8d 48 01             	lea    0x1(%eax),%ecx
 804c855:	8b 95 80 ed ff ff    	mov    -0x1280(%ebp),%edx
 804c85b:	89 4a 0c             	mov    %ecx,0xc(%edx)
 804c85e:	8b 95 e8 ec ff ff    	mov    -0x1318(%ebp),%edx
 804c864:	8b 0a                	mov    (%edx),%ecx
 804c866:	8b 95 80 ed ff ff    	mov    -0x1280(%ebp),%edx
 804c86c:	83 c0 04             	add    $0x4,%eax
 804c86f:	89 0c 82             	mov    %ecx,(%edx,%eax,4)
 804c872:	8b 85 80 ed ff ff    	mov    -0x1280(%ebp),%eax
 804c878:	89 85 c8 ec ff ff    	mov    %eax,-0x1338(%ebp)
 804c87e:	e9 ae 15 00 00       	jmp    804de31 <yyparse+0x291d>
 804c883:	c7 85 c8 ec ff ff 00 	movl   $0x0,-0x1338(%ebp)
 804c88a:	00 00 00 
 804c88d:	e9 9f 15 00 00       	jmp    804de31 <yyparse+0x291d>
 804c892:	8b 85 04 ee ff ff    	mov    -0x11fc(%ebp),%eax
 804c898:	83 ec 04             	sub    $0x4,%esp
 804c89b:	6a 00                	push   $0x0
 804c89d:	50                   	push   %eax
 804c89e:	68 74 11 05 08       	push   $0x8051174
 804c8a3:	e8 b2 1b 00 00       	call   804e45a <Syntax_Leaf_New>
 804c8a8:	83 c4 10             	add    $0x10,%esp
 804c8ab:	89 85 84 ed ff ff    	mov    %eax,-0x127c(%ebp)
 804c8b1:	8b 85 84 ed ff ff    	mov    -0x127c(%ebp),%eax
 804c8b7:	8b 40 0c             	mov    0xc(%eax),%eax
 804c8ba:	8d 48 01             	lea    0x1(%eax),%ecx
 804c8bd:	8b 95 84 ed ff ff    	mov    -0x127c(%ebp),%edx
 804c8c3:	89 4a 0c             	mov    %ecx,0xc(%edx)
 804c8c6:	8b 95 e8 ec ff ff    	mov    -0x1318(%ebp),%edx
 804c8cc:	83 ea 04             	sub    $0x4,%edx
 804c8cf:	8b 0a                	mov    (%edx),%ecx
 804c8d1:	8b 95 84 ed ff ff    	mov    -0x127c(%ebp),%edx
 804c8d7:	83 c0 04             	add    $0x4,%eax
 804c8da:	89 0c 82             	mov    %ecx,(%edx,%eax,4)
 804c8dd:	8b 85 84 ed ff ff    	mov    -0x127c(%ebp),%eax
 804c8e3:	8b 40 0c             	mov    0xc(%eax),%eax
 804c8e6:	8d 48 01             	lea    0x1(%eax),%ecx
 804c8e9:	8b 95 84 ed ff ff    	mov    -0x127c(%ebp),%edx
 804c8ef:	89 4a 0c             	mov    %ecx,0xc(%edx)
 804c8f2:	8b 95 e8 ec ff ff    	mov    -0x1318(%ebp),%edx
 804c8f8:	8b 0a                	mov    (%edx),%ecx
 804c8fa:	8b 95 84 ed ff ff    	mov    -0x127c(%ebp),%edx
 804c900:	83 c0 04             	add    $0x4,%eax
 804c903:	89 0c 82             	mov    %ecx,(%edx,%eax,4)
 804c906:	8b 85 84 ed ff ff    	mov    -0x127c(%ebp),%eax
 804c90c:	89 85 c8 ec ff ff    	mov    %eax,-0x1338(%ebp)
 804c912:	e9 1a 15 00 00       	jmp    804de31 <yyparse+0x291d>
 804c917:	8b 85 04 ee ff ff    	mov    -0x11fc(%ebp),%eax
 804c91d:	83 ec 04             	sub    $0x4,%esp
 804c920:	6a 00                	push   $0x0
 804c922:	50                   	push   %eax
 804c923:	68 74 11 05 08       	push   $0x8051174
 804c928:	e8 2d 1b 00 00       	call   804e45a <Syntax_Leaf_New>
 804c92d:	83 c4 10             	add    $0x10,%esp
 804c930:	89 85 88 ed ff ff    	mov    %eax,-0x1278(%ebp)
 804c936:	8b 85 88 ed ff ff    	mov    -0x1278(%ebp),%eax
 804c93c:	8b 40 0c             	mov    0xc(%eax),%eax
 804c93f:	8d 48 01             	lea    0x1(%eax),%ecx
 804c942:	8b 95 88 ed ff ff    	mov    -0x1278(%ebp),%edx
 804c948:	89 4a 0c             	mov    %ecx,0xc(%edx)
 804c94b:	8b 95 e8 ec ff ff    	mov    -0x1318(%ebp),%edx
 804c951:	8b 0a                	mov    (%edx),%ecx
 804c953:	8b 95 88 ed ff ff    	mov    -0x1278(%ebp),%edx
 804c959:	83 c0 04             	add    $0x4,%eax
 804c95c:	89 0c 82             	mov    %ecx,(%edx,%eax,4)
 804c95f:	8b 85 88 ed ff ff    	mov    -0x1278(%ebp),%eax
 804c965:	89 85 c8 ec ff ff    	mov    %eax,-0x1338(%ebp)
 804c96b:	e9 c1 14 00 00       	jmp    804de31 <yyparse+0x291d>
 804c970:	8b 85 04 ee ff ff    	mov    -0x11fc(%ebp),%eax
 804c976:	83 ec 04             	sub    $0x4,%esp
 804c979:	6a 00                	push   $0x0
 804c97b:	50                   	push   %eax
 804c97c:	68 74 11 05 08       	push   $0x8051174
 804c981:	e8 d4 1a 00 00       	call   804e45a <Syntax_Leaf_New>
 804c986:	83 c4 10             	add    $0x10,%esp
 804c989:	89 85 8c ed ff ff    	mov    %eax,-0x1274(%ebp)
 804c98f:	8b 85 8c ed ff ff    	mov    -0x1274(%ebp),%eax
 804c995:	8b 40 0c             	mov    0xc(%eax),%eax
 804c998:	8d 48 01             	lea    0x1(%eax),%ecx
 804c99b:	8b 95 8c ed ff ff    	mov    -0x1274(%ebp),%edx
 804c9a1:	89 4a 0c             	mov    %ecx,0xc(%edx)
 804c9a4:	8b 95 e8 ec ff ff    	mov    -0x1318(%ebp),%edx
 804c9aa:	83 ea 08             	sub    $0x8,%edx
 804c9ad:	8b 0a                	mov    (%edx),%ecx
 804c9af:	8b 95 8c ed ff ff    	mov    -0x1274(%ebp),%edx
 804c9b5:	83 c0 04             	add    $0x4,%eax
 804c9b8:	89 0c 82             	mov    %ecx,(%edx,%eax,4)
 804c9bb:	8b 85 8c ed ff ff    	mov    -0x1274(%ebp),%eax
 804c9c1:	8b 40 0c             	mov    0xc(%eax),%eax
 804c9c4:	8d 48 01             	lea    0x1(%eax),%ecx
 804c9c7:	8b 95 8c ed ff ff    	mov    -0x1274(%ebp),%edx
 804c9cd:	89 4a 0c             	mov    %ecx,0xc(%edx)
 804c9d0:	8b 95 e8 ec ff ff    	mov    -0x1318(%ebp),%edx
 804c9d6:	83 ea 04             	sub    $0x4,%edx
 804c9d9:	8b 0a                	mov    (%edx),%ecx
 804c9db:	8b 95 8c ed ff ff    	mov    -0x1274(%ebp),%edx
 804c9e1:	83 c0 04             	add    $0x4,%eax
 804c9e4:	89 0c 82             	mov    %ecx,(%edx,%eax,4)
 804c9e7:	8b 85 8c ed ff ff    	mov    -0x1274(%ebp),%eax
 804c9ed:	8b 40 0c             	mov    0xc(%eax),%eax
 804c9f0:	8d 48 01             	lea    0x1(%eax),%ecx
 804c9f3:	8b 95 8c ed ff ff    	mov    -0x1274(%ebp),%edx
 804c9f9:	89 4a 0c             	mov    %ecx,0xc(%edx)
 804c9fc:	8b 95 e8 ec ff ff    	mov    -0x1318(%ebp),%edx
 804ca02:	8b 0a                	mov    (%edx),%ecx
 804ca04:	8b 95 8c ed ff ff    	mov    -0x1274(%ebp),%edx
 804ca0a:	83 c0 04             	add    $0x4,%eax
 804ca0d:	89 0c 82             	mov    %ecx,(%edx,%eax,4)
 804ca10:	8b 85 8c ed ff ff    	mov    -0x1274(%ebp),%eax
 804ca16:	89 85 c8 ec ff ff    	mov    %eax,-0x1338(%ebp)
 804ca1c:	e9 10 14 00 00       	jmp    804de31 <yyparse+0x291d>
 804ca21:	8b 85 04 ee ff ff    	mov    -0x11fc(%ebp),%eax
 804ca27:	83 ec 04             	sub    $0x4,%esp
 804ca2a:	6a 00                	push   $0x0
 804ca2c:	50                   	push   %eax
 804ca2d:	68 74 11 05 08       	push   $0x8051174
 804ca32:	e8 23 1a 00 00       	call   804e45a <Syntax_Leaf_New>
 804ca37:	83 c4 10             	add    $0x10,%esp
 804ca3a:	89 85 90 ed ff ff    	mov    %eax,-0x1270(%ebp)
 804ca40:	8b 85 90 ed ff ff    	mov    -0x1270(%ebp),%eax
 804ca46:	8b 40 0c             	mov    0xc(%eax),%eax
 804ca49:	8d 48 01             	lea    0x1(%eax),%ecx
 804ca4c:	8b 95 90 ed ff ff    	mov    -0x1270(%ebp),%edx
 804ca52:	89 4a 0c             	mov    %ecx,0xc(%edx)
 804ca55:	8b 95 e8 ec ff ff    	mov    -0x1318(%ebp),%edx
 804ca5b:	83 ea 10             	sub    $0x10,%edx
 804ca5e:	8b 0a                	mov    (%edx),%ecx
 804ca60:	8b 95 90 ed ff ff    	mov    -0x1270(%ebp),%edx
 804ca66:	83 c0 04             	add    $0x4,%eax
 804ca69:	89 0c 82             	mov    %ecx,(%edx,%eax,4)
 804ca6c:	8b 85 90 ed ff ff    	mov    -0x1270(%ebp),%eax
 804ca72:	8b 40 0c             	mov    0xc(%eax),%eax
 804ca75:	8d 48 01             	lea    0x1(%eax),%ecx
 804ca78:	8b 95 90 ed ff ff    	mov    -0x1270(%ebp),%edx
 804ca7e:	89 4a 0c             	mov    %ecx,0xc(%edx)
 804ca81:	8b 95 e8 ec ff ff    	mov    -0x1318(%ebp),%edx
 804ca87:	83 ea 0c             	sub    $0xc,%edx
 804ca8a:	8b 0a                	mov    (%edx),%ecx
 804ca8c:	8b 95 90 ed ff ff    	mov    -0x1270(%ebp),%edx
 804ca92:	83 c0 04             	add    $0x4,%eax
 804ca95:	89 0c 82             	mov    %ecx,(%edx,%eax,4)
 804ca98:	8b 85 90 ed ff ff    	mov    -0x1270(%ebp),%eax
 804ca9e:	8b 40 0c             	mov    0xc(%eax),%eax
 804caa1:	8d 48 01             	lea    0x1(%eax),%ecx
 804caa4:	8b 95 90 ed ff ff    	mov    -0x1270(%ebp),%edx
 804caaa:	89 4a 0c             	mov    %ecx,0xc(%edx)
 804caad:	8b 95 e8 ec ff ff    	mov    -0x1318(%ebp),%edx
 804cab3:	83 ea 08             	sub    $0x8,%edx
 804cab6:	8b 0a                	mov    (%edx),%ecx
 804cab8:	8b 95 90 ed ff ff    	mov    -0x1270(%ebp),%edx
 804cabe:	83 c0 04             	add    $0x4,%eax
 804cac1:	89 0c 82             	mov    %ecx,(%edx,%eax,4)
 804cac4:	8b 85 90 ed ff ff    	mov    -0x1270(%ebp),%eax
 804caca:	8b 40 0c             	mov    0xc(%eax),%eax
 804cacd:	8d 48 01             	lea    0x1(%eax),%ecx
 804cad0:	8b 95 90 ed ff ff    	mov    -0x1270(%ebp),%edx
 804cad6:	89 4a 0c             	mov    %ecx,0xc(%edx)
 804cad9:	8b 95 e8 ec ff ff    	mov    -0x1318(%ebp),%edx
 804cadf:	83 ea 04             	sub    $0x4,%edx
 804cae2:	8b 0a                	mov    (%edx),%ecx
 804cae4:	8b 95 90 ed ff ff    	mov    -0x1270(%ebp),%edx
 804caea:	83 c0 04             	add    $0x4,%eax
 804caed:	89 0c 82             	mov    %ecx,(%edx,%eax,4)
 804caf0:	8b 85 90 ed ff ff    	mov    -0x1270(%ebp),%eax
 804caf6:	8b 40 0c             	mov    0xc(%eax),%eax
 804caf9:	8d 48 01             	lea    0x1(%eax),%ecx
 804cafc:	8b 95 90 ed ff ff    	mov    -0x1270(%ebp),%edx
 804cb02:	89 4a 0c             	mov    %ecx,0xc(%edx)
 804cb05:	8b 95 e8 ec ff ff    	mov    -0x1318(%ebp),%edx
 804cb0b:	8b 0a                	mov    (%edx),%ecx
 804cb0d:	8b 95 90 ed ff ff    	mov    -0x1270(%ebp),%edx
 804cb13:	83 c0 04             	add    $0x4,%eax
 804cb16:	89 0c 82             	mov    %ecx,(%edx,%eax,4)
 804cb19:	8b 85 90 ed ff ff    	mov    -0x1270(%ebp),%eax
 804cb1f:	89 85 c8 ec ff ff    	mov    %eax,-0x1338(%ebp)
 804cb25:	e9 07 13 00 00       	jmp    804de31 <yyparse+0x291d>
 804cb2a:	8b 85 04 ee ff ff    	mov    -0x11fc(%ebp),%eax
 804cb30:	83 ec 04             	sub    $0x4,%esp
 804cb33:	6a 00                	push   $0x0
 804cb35:	50                   	push   %eax
 804cb36:	68 74 11 05 08       	push   $0x8051174
 804cb3b:	e8 1a 19 00 00       	call   804e45a <Syntax_Leaf_New>
 804cb40:	83 c4 10             	add    $0x10,%esp
 804cb43:	89 85 94 ed ff ff    	mov    %eax,-0x126c(%ebp)
 804cb49:	8b 85 94 ed ff ff    	mov    -0x126c(%ebp),%eax
 804cb4f:	8b 40 0c             	mov    0xc(%eax),%eax
 804cb52:	8d 48 01             	lea    0x1(%eax),%ecx
 804cb55:	8b 95 94 ed ff ff    	mov    -0x126c(%ebp),%edx
 804cb5b:	89 4a 0c             	mov    %ecx,0xc(%edx)
 804cb5e:	8b 95 e8 ec ff ff    	mov    -0x1318(%ebp),%edx
 804cb64:	83 ea 18             	sub    $0x18,%edx
 804cb67:	8b 0a                	mov    (%edx),%ecx
 804cb69:	8b 95 94 ed ff ff    	mov    -0x126c(%ebp),%edx
 804cb6f:	83 c0 04             	add    $0x4,%eax
 804cb72:	89 0c 82             	mov    %ecx,(%edx,%eax,4)
 804cb75:	8b 85 94 ed ff ff    	mov    -0x126c(%ebp),%eax
 804cb7b:	8b 40 0c             	mov    0xc(%eax),%eax
 804cb7e:	8d 48 01             	lea    0x1(%eax),%ecx
 804cb81:	8b 95 94 ed ff ff    	mov    -0x126c(%ebp),%edx
 804cb87:	89 4a 0c             	mov    %ecx,0xc(%edx)
 804cb8a:	8b 95 e8 ec ff ff    	mov    -0x1318(%ebp),%edx
 804cb90:	83 ea 14             	sub    $0x14,%edx
 804cb93:	8b 0a                	mov    (%edx),%ecx
 804cb95:	8b 95 94 ed ff ff    	mov    -0x126c(%ebp),%edx
 804cb9b:	83 c0 04             	add    $0x4,%eax
 804cb9e:	89 0c 82             	mov    %ecx,(%edx,%eax,4)
 804cba1:	8b 85 94 ed ff ff    	mov    -0x126c(%ebp),%eax
 804cba7:	8b 40 0c             	mov    0xc(%eax),%eax
 804cbaa:	8d 48 01             	lea    0x1(%eax),%ecx
 804cbad:	8b 95 94 ed ff ff    	mov    -0x126c(%ebp),%edx
 804cbb3:	89 4a 0c             	mov    %ecx,0xc(%edx)
 804cbb6:	8b 95 e8 ec ff ff    	mov    -0x1318(%ebp),%edx
 804cbbc:	83 ea 10             	sub    $0x10,%edx
 804cbbf:	8b 0a                	mov    (%edx),%ecx
 804cbc1:	8b 95 94 ed ff ff    	mov    -0x126c(%ebp),%edx
 804cbc7:	83 c0 04             	add    $0x4,%eax
 804cbca:	89 0c 82             	mov    %ecx,(%edx,%eax,4)
 804cbcd:	8b 85 94 ed ff ff    	mov    -0x126c(%ebp),%eax
 804cbd3:	8b 40 0c             	mov    0xc(%eax),%eax
 804cbd6:	8d 48 01             	lea    0x1(%eax),%ecx
 804cbd9:	8b 95 94 ed ff ff    	mov    -0x126c(%ebp),%edx
 804cbdf:	89 4a 0c             	mov    %ecx,0xc(%edx)
 804cbe2:	8b 95 e8 ec ff ff    	mov    -0x1318(%ebp),%edx
 804cbe8:	83 ea 0c             	sub    $0xc,%edx
 804cbeb:	8b 0a                	mov    (%edx),%ecx
 804cbed:	8b 95 94 ed ff ff    	mov    -0x126c(%ebp),%edx
 804cbf3:	83 c0 04             	add    $0x4,%eax
 804cbf6:	89 0c 82             	mov    %ecx,(%edx,%eax,4)
 804cbf9:	8b 85 94 ed ff ff    	mov    -0x126c(%ebp),%eax
 804cbff:	8b 40 0c             	mov    0xc(%eax),%eax
 804cc02:	8d 48 01             	lea    0x1(%eax),%ecx
 804cc05:	8b 95 94 ed ff ff    	mov    -0x126c(%ebp),%edx
 804cc0b:	89 4a 0c             	mov    %ecx,0xc(%edx)
 804cc0e:	8b 95 e8 ec ff ff    	mov    -0x1318(%ebp),%edx
 804cc14:	83 ea 08             	sub    $0x8,%edx
 804cc17:	8b 0a                	mov    (%edx),%ecx
 804cc19:	8b 95 94 ed ff ff    	mov    -0x126c(%ebp),%edx
 804cc1f:	83 c0 04             	add    $0x4,%eax
 804cc22:	89 0c 82             	mov    %ecx,(%edx,%eax,4)
 804cc25:	8b 85 94 ed ff ff    	mov    -0x126c(%ebp),%eax
 804cc2b:	8b 40 0c             	mov    0xc(%eax),%eax
 804cc2e:	8d 48 01             	lea    0x1(%eax),%ecx
 804cc31:	8b 95 94 ed ff ff    	mov    -0x126c(%ebp),%edx
 804cc37:	89 4a 0c             	mov    %ecx,0xc(%edx)
 804cc3a:	8b 95 e8 ec ff ff    	mov    -0x1318(%ebp),%edx
 804cc40:	83 ea 04             	sub    $0x4,%edx
 804cc43:	8b 0a                	mov    (%edx),%ecx
 804cc45:	8b 95 94 ed ff ff    	mov    -0x126c(%ebp),%edx
 804cc4b:	83 c0 04             	add    $0x4,%eax
 804cc4e:	89 0c 82             	mov    %ecx,(%edx,%eax,4)
 804cc51:	8b 85 94 ed ff ff    	mov    -0x126c(%ebp),%eax
 804cc57:	8b 40 0c             	mov    0xc(%eax),%eax
 804cc5a:	8d 48 01             	lea    0x1(%eax),%ecx
 804cc5d:	8b 95 94 ed ff ff    	mov    -0x126c(%ebp),%edx
 804cc63:	89 4a 0c             	mov    %ecx,0xc(%edx)
 804cc66:	8b 95 e8 ec ff ff    	mov    -0x1318(%ebp),%edx
 804cc6c:	8b 0a                	mov    (%edx),%ecx
 804cc6e:	8b 95 94 ed ff ff    	mov    -0x126c(%ebp),%edx
 804cc74:	83 c0 04             	add    $0x4,%eax
 804cc77:	89 0c 82             	mov    %ecx,(%edx,%eax,4)
 804cc7a:	8b 85 94 ed ff ff    	mov    -0x126c(%ebp),%eax
 804cc80:	89 85 c8 ec ff ff    	mov    %eax,-0x1338(%ebp)
 804cc86:	e9 a6 11 00 00       	jmp    804de31 <yyparse+0x291d>
 804cc8b:	8b 85 04 ee ff ff    	mov    -0x11fc(%ebp),%eax
 804cc91:	83 ec 04             	sub    $0x4,%esp
 804cc94:	6a 00                	push   $0x0
 804cc96:	50                   	push   %eax
 804cc97:	68 74 11 05 08       	push   $0x8051174
 804cc9c:	e8 b9 17 00 00       	call   804e45a <Syntax_Leaf_New>
 804cca1:	83 c4 10             	add    $0x10,%esp
 804cca4:	89 85 98 ed ff ff    	mov    %eax,-0x1268(%ebp)
 804ccaa:	8b 85 98 ed ff ff    	mov    -0x1268(%ebp),%eax
 804ccb0:	8b 40 0c             	mov    0xc(%eax),%eax
 804ccb3:	8d 48 01             	lea    0x1(%eax),%ecx
 804ccb6:	8b 95 98 ed ff ff    	mov    -0x1268(%ebp),%edx
 804ccbc:	89 4a 0c             	mov    %ecx,0xc(%edx)
 804ccbf:	8b 95 e8 ec ff ff    	mov    -0x1318(%ebp),%edx
 804ccc5:	83 ea 10             	sub    $0x10,%edx
 804ccc8:	8b 0a                	mov    (%edx),%ecx
 804ccca:	8b 95 98 ed ff ff    	mov    -0x1268(%ebp),%edx
 804ccd0:	83 c0 04             	add    $0x4,%eax
 804ccd3:	89 0c 82             	mov    %ecx,(%edx,%eax,4)
 804ccd6:	8b 85 98 ed ff ff    	mov    -0x1268(%ebp),%eax
 804ccdc:	8b 40 0c             	mov    0xc(%eax),%eax
 804ccdf:	8d 48 01             	lea    0x1(%eax),%ecx
 804cce2:	8b 95 98 ed ff ff    	mov    -0x1268(%ebp),%edx
 804cce8:	89 4a 0c             	mov    %ecx,0xc(%edx)
 804cceb:	8b 95 e8 ec ff ff    	mov    -0x1318(%ebp),%edx
 804ccf1:	83 ea 0c             	sub    $0xc,%edx
 804ccf4:	8b 0a                	mov    (%edx),%ecx
 804ccf6:	8b 95 98 ed ff ff    	mov    -0x1268(%ebp),%edx
 804ccfc:	83 c0 04             	add    $0x4,%eax
 804ccff:	89 0c 82             	mov    %ecx,(%edx,%eax,4)
 804cd02:	8b 85 98 ed ff ff    	mov    -0x1268(%ebp),%eax
 804cd08:	8b 40 0c             	mov    0xc(%eax),%eax
 804cd0b:	8d 48 01             	lea    0x1(%eax),%ecx
 804cd0e:	8b 95 98 ed ff ff    	mov    -0x1268(%ebp),%edx
 804cd14:	89 4a 0c             	mov    %ecx,0xc(%edx)
 804cd17:	8b 95 e8 ec ff ff    	mov    -0x1318(%ebp),%edx
 804cd1d:	83 ea 08             	sub    $0x8,%edx
 804cd20:	8b 0a                	mov    (%edx),%ecx
 804cd22:	8b 95 98 ed ff ff    	mov    -0x1268(%ebp),%edx
 804cd28:	83 c0 04             	add    $0x4,%eax
 804cd2b:	89 0c 82             	mov    %ecx,(%edx,%eax,4)
 804cd2e:	8b 85 98 ed ff ff    	mov    -0x1268(%ebp),%eax
 804cd34:	8b 40 0c             	mov    0xc(%eax),%eax
 804cd37:	8d 48 01             	lea    0x1(%eax),%ecx
 804cd3a:	8b 95 98 ed ff ff    	mov    -0x1268(%ebp),%edx
 804cd40:	89 4a 0c             	mov    %ecx,0xc(%edx)
 804cd43:	8b 95 e8 ec ff ff    	mov    -0x1318(%ebp),%edx
 804cd49:	83 ea 04             	sub    $0x4,%edx
 804cd4c:	8b 0a                	mov    (%edx),%ecx
 804cd4e:	8b 95 98 ed ff ff    	mov    -0x1268(%ebp),%edx
 804cd54:	83 c0 04             	add    $0x4,%eax
 804cd57:	89 0c 82             	mov    %ecx,(%edx,%eax,4)
 804cd5a:	8b 85 98 ed ff ff    	mov    -0x1268(%ebp),%eax
 804cd60:	8b 40 0c             	mov    0xc(%eax),%eax
 804cd63:	8d 48 01             	lea    0x1(%eax),%ecx
 804cd66:	8b 95 98 ed ff ff    	mov    -0x1268(%ebp),%edx
 804cd6c:	89 4a 0c             	mov    %ecx,0xc(%edx)
 804cd6f:	8b 95 e8 ec ff ff    	mov    -0x1318(%ebp),%edx
 804cd75:	8b 0a                	mov    (%edx),%ecx
 804cd77:	8b 95 98 ed ff ff    	mov    -0x1268(%ebp),%edx
 804cd7d:	83 c0 04             	add    $0x4,%eax
 804cd80:	89 0c 82             	mov    %ecx,(%edx,%eax,4)
 804cd83:	8b 85 98 ed ff ff    	mov    -0x1268(%ebp),%eax
 804cd89:	89 85 c8 ec ff ff    	mov    %eax,-0x1338(%ebp)
 804cd8f:	e9 9d 10 00 00       	jmp    804de31 <yyparse+0x291d>
 804cd94:	8b 85 04 ee ff ff    	mov    -0x11fc(%ebp),%eax
 804cd9a:	83 ec 04             	sub    $0x4,%esp
 804cd9d:	6a 00                	push   $0x0
 804cd9f:	50                   	push   %eax
 804cda0:	68 79 11 05 08       	push   $0x8051179
 804cda5:	e8 b0 16 00 00       	call   804e45a <Syntax_Leaf_New>
 804cdaa:	83 c4 10             	add    $0x10,%esp
 804cdad:	89 85 9c ed ff ff    	mov    %eax,-0x1264(%ebp)
 804cdb3:	8b 85 9c ed ff ff    	mov    -0x1264(%ebp),%eax
 804cdb9:	8b 40 0c             	mov    0xc(%eax),%eax
 804cdbc:	8d 48 01             	lea    0x1(%eax),%ecx
 804cdbf:	8b 95 9c ed ff ff    	mov    -0x1264(%ebp),%edx
 804cdc5:	89 4a 0c             	mov    %ecx,0xc(%edx)
 804cdc8:	8b 95 e8 ec ff ff    	mov    -0x1318(%ebp),%edx
 804cdce:	83 ea 04             	sub    $0x4,%edx
 804cdd1:	8b 0a                	mov    (%edx),%ecx
 804cdd3:	8b 95 9c ed ff ff    	mov    -0x1264(%ebp),%edx
 804cdd9:	83 c0 04             	add    $0x4,%eax
 804cddc:	89 0c 82             	mov    %ecx,(%edx,%eax,4)
 804cddf:	8b 85 9c ed ff ff    	mov    -0x1264(%ebp),%eax
 804cde5:	8b 40 0c             	mov    0xc(%eax),%eax
 804cde8:	8d 48 01             	lea    0x1(%eax),%ecx
 804cdeb:	8b 95 9c ed ff ff    	mov    -0x1264(%ebp),%edx
 804cdf1:	89 4a 0c             	mov    %ecx,0xc(%edx)
 804cdf4:	8b 95 e8 ec ff ff    	mov    -0x1318(%ebp),%edx
 804cdfa:	8b 0a                	mov    (%edx),%ecx
 804cdfc:	8b 95 9c ed ff ff    	mov    -0x1264(%ebp),%edx
 804ce02:	83 c0 04             	add    $0x4,%eax
 804ce05:	89 0c 82             	mov    %ecx,(%edx,%eax,4)
 804ce08:	8b 85 9c ed ff ff    	mov    -0x1264(%ebp),%eax
 804ce0e:	89 85 c8 ec ff ff    	mov    %eax,-0x1338(%ebp)
 804ce14:	e9 18 10 00 00       	jmp    804de31 <yyparse+0x291d>
 804ce19:	c7 85 c8 ec ff ff 00 	movl   $0x0,-0x1338(%ebp)
 804ce20:	00 00 00 
 804ce23:	e9 09 10 00 00       	jmp    804de31 <yyparse+0x291d>
 804ce28:	8b 85 04 ee ff ff    	mov    -0x11fc(%ebp),%eax
 804ce2e:	83 ec 04             	sub    $0x4,%esp
 804ce31:	6a 00                	push   $0x0
 804ce33:	50                   	push   %eax
 804ce34:	68 81 11 05 08       	push   $0x8051181
 804ce39:	e8 1c 16 00 00       	call   804e45a <Syntax_Leaf_New>
 804ce3e:	83 c4 10             	add    $0x10,%esp
 804ce41:	89 85 a0 ed ff ff    	mov    %eax,-0x1260(%ebp)
 804ce47:	8b 85 a0 ed ff ff    	mov    -0x1260(%ebp),%eax
 804ce4d:	8b 40 0c             	mov    0xc(%eax),%eax
 804ce50:	8d 48 01             	lea    0x1(%eax),%ecx
 804ce53:	8b 95 a0 ed ff ff    	mov    -0x1260(%ebp),%edx
 804ce59:	89 4a 0c             	mov    %ecx,0xc(%edx)
 804ce5c:	8b 95 e8 ec ff ff    	mov    -0x1318(%ebp),%edx
 804ce62:	83 ea 08             	sub    $0x8,%edx
 804ce65:	8b 0a                	mov    (%edx),%ecx
 804ce67:	8b 95 a0 ed ff ff    	mov    -0x1260(%ebp),%edx
 804ce6d:	83 c0 04             	add    $0x4,%eax
 804ce70:	89 0c 82             	mov    %ecx,(%edx,%eax,4)
 804ce73:	8b 85 a0 ed ff ff    	mov    -0x1260(%ebp),%eax
 804ce79:	8b 40 0c             	mov    0xc(%eax),%eax
 804ce7c:	8d 48 01             	lea    0x1(%eax),%ecx
 804ce7f:	8b 95 a0 ed ff ff    	mov    -0x1260(%ebp),%edx
 804ce85:	89 4a 0c             	mov    %ecx,0xc(%edx)
 804ce88:	8b 95 e8 ec ff ff    	mov    -0x1318(%ebp),%edx
 804ce8e:	83 ea 04             	sub    $0x4,%edx
 804ce91:	8b 0a                	mov    (%edx),%ecx
 804ce93:	8b 95 a0 ed ff ff    	mov    -0x1260(%ebp),%edx
 804ce99:	83 c0 04             	add    $0x4,%eax
 804ce9c:	89 0c 82             	mov    %ecx,(%edx,%eax,4)
 804ce9f:	8b 85 a0 ed ff ff    	mov    -0x1260(%ebp),%eax
 804cea5:	8b 40 0c             	mov    0xc(%eax),%eax
 804cea8:	8d 48 01             	lea    0x1(%eax),%ecx
 804ceab:	8b 95 a0 ed ff ff    	mov    -0x1260(%ebp),%edx
 804ceb1:	89 4a 0c             	mov    %ecx,0xc(%edx)
 804ceb4:	8b 95 e8 ec ff ff    	mov    -0x1318(%ebp),%edx
 804ceba:	8b 0a                	mov    (%edx),%ecx
 804cebc:	8b 95 a0 ed ff ff    	mov    -0x1260(%ebp),%edx
 804cec2:	83 c0 04             	add    $0x4,%eax
 804cec5:	89 0c 82             	mov    %ecx,(%edx,%eax,4)
 804cec8:	8b 85 a0 ed ff ff    	mov    -0x1260(%ebp),%eax
 804cece:	89 85 c8 ec ff ff    	mov    %eax,-0x1338(%ebp)
 804ced4:	e9 58 0f 00 00       	jmp    804de31 <yyparse+0x291d>
 804ced9:	8b 85 04 ee ff ff    	mov    -0x11fc(%ebp),%eax
 804cedf:	83 ec 04             	sub    $0x4,%esp
 804cee2:	6a 00                	push   $0x0
 804cee4:	50                   	push   %eax
 804cee5:	68 85 11 05 08       	push   $0x8051185
 804ceea:	e8 6b 15 00 00       	call   804e45a <Syntax_Leaf_New>
 804ceef:	83 c4 10             	add    $0x10,%esp
 804cef2:	89 85 a4 ed ff ff    	mov    %eax,-0x125c(%ebp)
 804cef8:	8b 85 a4 ed ff ff    	mov    -0x125c(%ebp),%eax
 804cefe:	8b 40 0c             	mov    0xc(%eax),%eax
 804cf01:	8d 48 01             	lea    0x1(%eax),%ecx
 804cf04:	8b 95 a4 ed ff ff    	mov    -0x125c(%ebp),%edx
 804cf0a:	89 4a 0c             	mov    %ecx,0xc(%edx)
 804cf0d:	8b 95 e8 ec ff ff    	mov    -0x1318(%ebp),%edx
 804cf13:	8b 0a                	mov    (%edx),%ecx
 804cf15:	8b 95 a4 ed ff ff    	mov    -0x125c(%ebp),%edx
 804cf1b:	83 c0 04             	add    $0x4,%eax
 804cf1e:	89 0c 82             	mov    %ecx,(%edx,%eax,4)
 804cf21:	8b 85 a4 ed ff ff    	mov    -0x125c(%ebp),%eax
 804cf27:	89 85 c8 ec ff ff    	mov    %eax,-0x1338(%ebp)
 804cf2d:	e9 ff 0e 00 00       	jmp    804de31 <yyparse+0x291d>
 804cf32:	8b 85 04 ee ff ff    	mov    -0x11fc(%ebp),%eax
 804cf38:	83 ec 04             	sub    $0x4,%esp
 804cf3b:	6a 00                	push   $0x0
 804cf3d:	50                   	push   %eax
 804cf3e:	68 85 11 05 08       	push   $0x8051185
 804cf43:	e8 12 15 00 00       	call   804e45a <Syntax_Leaf_New>
 804cf48:	83 c4 10             	add    $0x10,%esp
 804cf4b:	89 85 a8 ed ff ff    	mov    %eax,-0x1258(%ebp)
 804cf51:	8b 85 a8 ed ff ff    	mov    -0x1258(%ebp),%eax
 804cf57:	8b 40 0c             	mov    0xc(%eax),%eax
 804cf5a:	8d 48 01             	lea    0x1(%eax),%ecx
 804cf5d:	8b 95 a8 ed ff ff    	mov    -0x1258(%ebp),%edx
 804cf63:	89 4a 0c             	mov    %ecx,0xc(%edx)
 804cf66:	8b 95 e8 ec ff ff    	mov    -0x1318(%ebp),%edx
 804cf6c:	83 ea 08             	sub    $0x8,%edx
 804cf6f:	8b 0a                	mov    (%edx),%ecx
 804cf71:	8b 95 a8 ed ff ff    	mov    -0x1258(%ebp),%edx
 804cf77:	83 c0 04             	add    $0x4,%eax
 804cf7a:	89 0c 82             	mov    %ecx,(%edx,%eax,4)
 804cf7d:	8b 85 a8 ed ff ff    	mov    -0x1258(%ebp),%eax
 804cf83:	8b 40 0c             	mov    0xc(%eax),%eax
 804cf86:	8d 48 01             	lea    0x1(%eax),%ecx
 804cf89:	8b 95 a8 ed ff ff    	mov    -0x1258(%ebp),%edx
 804cf8f:	89 4a 0c             	mov    %ecx,0xc(%edx)
 804cf92:	8b 95 e8 ec ff ff    	mov    -0x1318(%ebp),%edx
 804cf98:	83 ea 04             	sub    $0x4,%edx
 804cf9b:	8b 0a                	mov    (%edx),%ecx
 804cf9d:	8b 95 a8 ed ff ff    	mov    -0x1258(%ebp),%edx
 804cfa3:	83 c0 04             	add    $0x4,%eax
 804cfa6:	89 0c 82             	mov    %ecx,(%edx,%eax,4)
 804cfa9:	8b 85 a8 ed ff ff    	mov    -0x1258(%ebp),%eax
 804cfaf:	8b 40 0c             	mov    0xc(%eax),%eax
 804cfb2:	8d 48 01             	lea    0x1(%eax),%ecx
 804cfb5:	8b 95 a8 ed ff ff    	mov    -0x1258(%ebp),%edx
 804cfbb:	89 4a 0c             	mov    %ecx,0xc(%edx)
 804cfbe:	8b 95 e8 ec ff ff    	mov    -0x1318(%ebp),%edx
 804cfc4:	8b 0a                	mov    (%edx),%ecx
 804cfc6:	8b 95 a8 ed ff ff    	mov    -0x1258(%ebp),%edx
 804cfcc:	83 c0 04             	add    $0x4,%eax
 804cfcf:	89 0c 82             	mov    %ecx,(%edx,%eax,4)
 804cfd2:	8b 85 a8 ed ff ff    	mov    -0x1258(%ebp),%eax
 804cfd8:	89 85 c8 ec ff ff    	mov    %eax,-0x1338(%ebp)
 804cfde:	e9 4e 0e 00 00       	jmp    804de31 <yyparse+0x291d>
 804cfe3:	8b 85 04 ee ff ff    	mov    -0x11fc(%ebp),%eax
 804cfe9:	83 ec 04             	sub    $0x4,%esp
 804cfec:	6a 00                	push   $0x0
 804cfee:	50                   	push   %eax
 804cfef:	68 8d 11 05 08       	push   $0x805118d
 804cff4:	e8 61 14 00 00       	call   804e45a <Syntax_Leaf_New>
 804cff9:	83 c4 10             	add    $0x10,%esp
 804cffc:	89 85 ac ed ff ff    	mov    %eax,-0x1254(%ebp)
 804d002:	8b 85 ac ed ff ff    	mov    -0x1254(%ebp),%eax
 804d008:	8b 40 0c             	mov    0xc(%eax),%eax
 804d00b:	8d 48 01             	lea    0x1(%eax),%ecx
 804d00e:	8b 95 ac ed ff ff    	mov    -0x1254(%ebp),%edx
 804d014:	89 4a 0c             	mov    %ecx,0xc(%edx)
 804d017:	8b 95 e8 ec ff ff    	mov    -0x1318(%ebp),%edx
 804d01d:	8b 0a                	mov    (%edx),%ecx
 804d01f:	8b 95 ac ed ff ff    	mov    -0x1254(%ebp),%edx
 804d025:	83 c0 04             	add    $0x4,%eax
 804d028:	89 0c 82             	mov    %ecx,(%edx,%eax,4)
 804d02b:	8b 85 ac ed ff ff    	mov    -0x1254(%ebp),%eax
 804d031:	89 85 c8 ec ff ff    	mov    %eax,-0x1338(%ebp)
 804d037:	e9 f5 0d 00 00       	jmp    804de31 <yyparse+0x291d>
 804d03c:	8b 85 04 ee ff ff    	mov    -0x11fc(%ebp),%eax
 804d042:	83 ec 04             	sub    $0x4,%esp
 804d045:	6a 00                	push   $0x0
 804d047:	50                   	push   %eax
 804d048:	68 8d 11 05 08       	push   $0x805118d
 804d04d:	e8 08 14 00 00       	call   804e45a <Syntax_Leaf_New>
 804d052:	83 c4 10             	add    $0x10,%esp
 804d055:	89 85 b0 ed ff ff    	mov    %eax,-0x1250(%ebp)
 804d05b:	8b 85 b0 ed ff ff    	mov    -0x1250(%ebp),%eax
 804d061:	8b 40 0c             	mov    0xc(%eax),%eax
 804d064:	8d 48 01             	lea    0x1(%eax),%ecx
 804d067:	8b 95 b0 ed ff ff    	mov    -0x1250(%ebp),%edx
 804d06d:	89 4a 0c             	mov    %ecx,0xc(%edx)
 804d070:	8b 95 e8 ec ff ff    	mov    -0x1318(%ebp),%edx
 804d076:	83 ea 08             	sub    $0x8,%edx
 804d079:	8b 0a                	mov    (%edx),%ecx
 804d07b:	8b 95 b0 ed ff ff    	mov    -0x1250(%ebp),%edx
 804d081:	83 c0 04             	add    $0x4,%eax
 804d084:	89 0c 82             	mov    %ecx,(%edx,%eax,4)
 804d087:	8b 85 b0 ed ff ff    	mov    -0x1250(%ebp),%eax
 804d08d:	8b 40 0c             	mov    0xc(%eax),%eax
 804d090:	8d 48 01             	lea    0x1(%eax),%ecx
 804d093:	8b 95 b0 ed ff ff    	mov    -0x1250(%ebp),%edx
 804d099:	89 4a 0c             	mov    %ecx,0xc(%edx)
 804d09c:	8b 95 e8 ec ff ff    	mov    -0x1318(%ebp),%edx
 804d0a2:	83 ea 04             	sub    $0x4,%edx
 804d0a5:	8b 0a                	mov    (%edx),%ecx
 804d0a7:	8b 95 b0 ed ff ff    	mov    -0x1250(%ebp),%edx
 804d0ad:	83 c0 04             	add    $0x4,%eax
 804d0b0:	89 0c 82             	mov    %ecx,(%edx,%eax,4)
 804d0b3:	8b 85 b0 ed ff ff    	mov    -0x1250(%ebp),%eax
 804d0b9:	8b 40 0c             	mov    0xc(%eax),%eax
 804d0bc:	8d 48 01             	lea    0x1(%eax),%ecx
 804d0bf:	8b 95 b0 ed ff ff    	mov    -0x1250(%ebp),%edx
 804d0c5:	89 4a 0c             	mov    %ecx,0xc(%edx)
 804d0c8:	8b 95 e8 ec ff ff    	mov    -0x1318(%ebp),%edx
 804d0ce:	8b 0a                	mov    (%edx),%ecx
 804d0d0:	8b 95 b0 ed ff ff    	mov    -0x1250(%ebp),%edx
 804d0d6:	83 c0 04             	add    $0x4,%eax
 804d0d9:	89 0c 82             	mov    %ecx,(%edx,%eax,4)
 804d0dc:	8b 85 b0 ed ff ff    	mov    -0x1250(%ebp),%eax
 804d0e2:	89 85 c8 ec ff ff    	mov    %eax,-0x1338(%ebp)
 804d0e8:	e9 44 0d 00 00       	jmp    804de31 <yyparse+0x291d>
 804d0ed:	8b 85 04 ee ff ff    	mov    -0x11fc(%ebp),%eax
 804d0f3:	83 ec 04             	sub    $0x4,%esp
 804d0f6:	6a 00                	push   $0x0
 804d0f8:	50                   	push   %eax
 804d0f9:	68 91 11 05 08       	push   $0x8051191
 804d0fe:	e8 57 13 00 00       	call   804e45a <Syntax_Leaf_New>
 804d103:	83 c4 10             	add    $0x10,%esp
 804d106:	89 85 b4 ed ff ff    	mov    %eax,-0x124c(%ebp)
 804d10c:	8b 85 b4 ed ff ff    	mov    -0x124c(%ebp),%eax
 804d112:	8b 40 0c             	mov    0xc(%eax),%eax
 804d115:	8d 48 01             	lea    0x1(%eax),%ecx
 804d118:	8b 95 b4 ed ff ff    	mov    -0x124c(%ebp),%edx
 804d11e:	89 4a 0c             	mov    %ecx,0xc(%edx)
 804d121:	8b 95 e8 ec ff ff    	mov    -0x1318(%ebp),%edx
 804d127:	83 ea 08             	sub    $0x8,%edx
 804d12a:	8b 0a                	mov    (%edx),%ecx
 804d12c:	8b 95 b4 ed ff ff    	mov    -0x124c(%ebp),%edx
 804d132:	83 c0 04             	add    $0x4,%eax
 804d135:	89 0c 82             	mov    %ecx,(%edx,%eax,4)
 804d138:	8b 85 b4 ed ff ff    	mov    -0x124c(%ebp),%eax
 804d13e:	8b 40 0c             	mov    0xc(%eax),%eax
 804d141:	8d 48 01             	lea    0x1(%eax),%ecx
 804d144:	8b 95 b4 ed ff ff    	mov    -0x124c(%ebp),%edx
 804d14a:	89 4a 0c             	mov    %ecx,0xc(%edx)
 804d14d:	8b 95 e8 ec ff ff    	mov    -0x1318(%ebp),%edx
 804d153:	83 ea 04             	sub    $0x4,%edx
 804d156:	8b 0a                	mov    (%edx),%ecx
 804d158:	8b 95 b4 ed ff ff    	mov    -0x124c(%ebp),%edx
 804d15e:	83 c0 04             	add    $0x4,%eax
 804d161:	89 0c 82             	mov    %ecx,(%edx,%eax,4)
 804d164:	8b 85 b4 ed ff ff    	mov    -0x124c(%ebp),%eax
 804d16a:	8b 40 0c             	mov    0xc(%eax),%eax
 804d16d:	8d 48 01             	lea    0x1(%eax),%ecx
 804d170:	8b 95 b4 ed ff ff    	mov    -0x124c(%ebp),%edx
 804d176:	89 4a 0c             	mov    %ecx,0xc(%edx)
 804d179:	8b 95 e8 ec ff ff    	mov    -0x1318(%ebp),%edx
 804d17f:	8b 0a                	mov    (%edx),%ecx
 804d181:	8b 95 b4 ed ff ff    	mov    -0x124c(%ebp),%edx
 804d187:	83 c0 04             	add    $0x4,%eax
 804d18a:	89 0c 82             	mov    %ecx,(%edx,%eax,4)
 804d18d:	8b 85 b4 ed ff ff    	mov    -0x124c(%ebp),%eax
 804d193:	89 85 c8 ec ff ff    	mov    %eax,-0x1338(%ebp)
 804d199:	e9 93 0c 00 00       	jmp    804de31 <yyparse+0x291d>
 804d19e:	8b 85 04 ee ff ff    	mov    -0x11fc(%ebp),%eax
 804d1a4:	83 ec 04             	sub    $0x4,%esp
 804d1a7:	6a 00                	push   $0x0
 804d1a9:	50                   	push   %eax
 804d1aa:	68 91 11 05 08       	push   $0x8051191
 804d1af:	e8 a6 12 00 00       	call   804e45a <Syntax_Leaf_New>
 804d1b4:	83 c4 10             	add    $0x10,%esp
 804d1b7:	89 85 b8 ed ff ff    	mov    %eax,-0x1248(%ebp)
 804d1bd:	8b 85 b8 ed ff ff    	mov    -0x1248(%ebp),%eax
 804d1c3:	8b 40 0c             	mov    0xc(%eax),%eax
 804d1c6:	8d 48 01             	lea    0x1(%eax),%ecx
 804d1c9:	8b 95 b8 ed ff ff    	mov    -0x1248(%ebp),%edx
 804d1cf:	89 4a 0c             	mov    %ecx,0xc(%edx)
 804d1d2:	8b 95 e8 ec ff ff    	mov    -0x1318(%ebp),%edx
 804d1d8:	83 ea 08             	sub    $0x8,%edx
 804d1db:	8b 0a                	mov    (%edx),%ecx
 804d1dd:	8b 95 b8 ed ff ff    	mov    -0x1248(%ebp),%edx
 804d1e3:	83 c0 04             	add    $0x4,%eax
 804d1e6:	89 0c 82             	mov    %ecx,(%edx,%eax,4)
 804d1e9:	8b 85 b8 ed ff ff    	mov    -0x1248(%ebp),%eax
 804d1ef:	8b 40 0c             	mov    0xc(%eax),%eax
 804d1f2:	8d 48 01             	lea    0x1(%eax),%ecx
 804d1f5:	8b 95 b8 ed ff ff    	mov    -0x1248(%ebp),%edx
 804d1fb:	89 4a 0c             	mov    %ecx,0xc(%edx)
 804d1fe:	8b 95 e8 ec ff ff    	mov    -0x1318(%ebp),%edx
 804d204:	83 ea 04             	sub    $0x4,%edx
 804d207:	8b 0a                	mov    (%edx),%ecx
 804d209:	8b 95 b8 ed ff ff    	mov    -0x1248(%ebp),%edx
 804d20f:	83 c0 04             	add    $0x4,%eax
 804d212:	89 0c 82             	mov    %ecx,(%edx,%eax,4)
 804d215:	8b 85 b8 ed ff ff    	mov    -0x1248(%ebp),%eax
 804d21b:	8b 40 0c             	mov    0xc(%eax),%eax
 804d21e:	8d 48 01             	lea    0x1(%eax),%ecx
 804d221:	8b 95 b8 ed ff ff    	mov    -0x1248(%ebp),%edx
 804d227:	89 4a 0c             	mov    %ecx,0xc(%edx)
 804d22a:	8b 95 e8 ec ff ff    	mov    -0x1318(%ebp),%edx
 804d230:	8b 0a                	mov    (%edx),%ecx
 804d232:	8b 95 b8 ed ff ff    	mov    -0x1248(%ebp),%edx
 804d238:	83 c0 04             	add    $0x4,%eax
 804d23b:	89 0c 82             	mov    %ecx,(%edx,%eax,4)
 804d23e:	8b 85 b8 ed ff ff    	mov    -0x1248(%ebp),%eax
 804d244:	89 85 c8 ec ff ff    	mov    %eax,-0x1338(%ebp)
 804d24a:	e9 e2 0b 00 00       	jmp    804de31 <yyparse+0x291d>
 804d24f:	8b 85 04 ee ff ff    	mov    -0x11fc(%ebp),%eax
 804d255:	83 ec 04             	sub    $0x4,%esp
 804d258:	6a 00                	push   $0x0
 804d25a:	50                   	push   %eax
 804d25b:	68 91 11 05 08       	push   $0x8051191
 804d260:	e8 f5 11 00 00       	call   804e45a <Syntax_Leaf_New>
 804d265:	83 c4 10             	add    $0x10,%esp
 804d268:	89 85 bc ed ff ff    	mov    %eax,-0x1244(%ebp)
 804d26e:	8b 85 bc ed ff ff    	mov    -0x1244(%ebp),%eax
 804d274:	8b 40 0c             	mov    0xc(%eax),%eax
 804d277:	8d 48 01             	lea    0x1(%eax),%ecx
 804d27a:	8b 95 bc ed ff ff    	mov    -0x1244(%ebp),%edx
 804d280:	89 4a 0c             	mov    %ecx,0xc(%edx)
 804d283:	8b 95 e8 ec ff ff    	mov    -0x1318(%ebp),%edx
 804d289:	83 ea 08             	sub    $0x8,%edx
 804d28c:	8b 0a                	mov    (%edx),%ecx
 804d28e:	8b 95 bc ed ff ff    	mov    -0x1244(%ebp),%edx
 804d294:	83 c0 04             	add    $0x4,%eax
 804d297:	89 0c 82             	mov    %ecx,(%edx,%eax,4)
 804d29a:	8b 85 bc ed ff ff    	mov    -0x1244(%ebp),%eax
 804d2a0:	8b 40 0c             	mov    0xc(%eax),%eax
 804d2a3:	8d 48 01             	lea    0x1(%eax),%ecx
 804d2a6:	8b 95 bc ed ff ff    	mov    -0x1244(%ebp),%edx
 804d2ac:	89 4a 0c             	mov    %ecx,0xc(%edx)
 804d2af:	8b 95 e8 ec ff ff    	mov    -0x1318(%ebp),%edx
 804d2b5:	83 ea 04             	sub    $0x4,%edx
 804d2b8:	8b 0a                	mov    (%edx),%ecx
 804d2ba:	8b 95 bc ed ff ff    	mov    -0x1244(%ebp),%edx
 804d2c0:	83 c0 04             	add    $0x4,%eax
 804d2c3:	89 0c 82             	mov    %ecx,(%edx,%eax,4)
 804d2c6:	8b 85 bc ed ff ff    	mov    -0x1244(%ebp),%eax
 804d2cc:	8b 40 0c             	mov    0xc(%eax),%eax
 804d2cf:	8d 48 01             	lea    0x1(%eax),%ecx
 804d2d2:	8b 95 bc ed ff ff    	mov    -0x1244(%ebp),%edx
 804d2d8:	89 4a 0c             	mov    %ecx,0xc(%edx)
 804d2db:	8b 95 e8 ec ff ff    	mov    -0x1318(%ebp),%edx
 804d2e1:	8b 0a                	mov    (%edx),%ecx
 804d2e3:	8b 95 bc ed ff ff    	mov    -0x1244(%ebp),%edx
 804d2e9:	83 c0 04             	add    $0x4,%eax
 804d2ec:	89 0c 82             	mov    %ecx,(%edx,%eax,4)
 804d2ef:	8b 85 bc ed ff ff    	mov    -0x1244(%ebp),%eax
 804d2f5:	89 85 c8 ec ff ff    	mov    %eax,-0x1338(%ebp)
 804d2fb:	e9 31 0b 00 00       	jmp    804de31 <yyparse+0x291d>
 804d300:	8b 85 04 ee ff ff    	mov    -0x11fc(%ebp),%eax
 804d306:	83 ec 04             	sub    $0x4,%esp
 804d309:	6a 00                	push   $0x0
 804d30b:	50                   	push   %eax
 804d30c:	68 91 11 05 08       	push   $0x8051191
 804d311:	e8 44 11 00 00       	call   804e45a <Syntax_Leaf_New>
 804d316:	83 c4 10             	add    $0x10,%esp
 804d319:	89 85 c0 ed ff ff    	mov    %eax,-0x1240(%ebp)
 804d31f:	8b 85 c0 ed ff ff    	mov    -0x1240(%ebp),%eax
 804d325:	8b 40 0c             	mov    0xc(%eax),%eax
 804d328:	8d 48 01             	lea    0x1(%eax),%ecx
 804d32b:	8b 95 c0 ed ff ff    	mov    -0x1240(%ebp),%edx
 804d331:	89 4a 0c             	mov    %ecx,0xc(%edx)
 804d334:	8b 95 e8 ec ff ff    	mov    -0x1318(%ebp),%edx
 804d33a:	83 ea 08             	sub    $0x8,%edx
 804d33d:	8b 0a                	mov    (%edx),%ecx
 804d33f:	8b 95 c0 ed ff ff    	mov    -0x1240(%ebp),%edx
 804d345:	83 c0 04             	add    $0x4,%eax
 804d348:	89 0c 82             	mov    %ecx,(%edx,%eax,4)
 804d34b:	8b 85 c0 ed ff ff    	mov    -0x1240(%ebp),%eax
 804d351:	8b 40 0c             	mov    0xc(%eax),%eax
 804d354:	8d 48 01             	lea    0x1(%eax),%ecx
 804d357:	8b 95 c0 ed ff ff    	mov    -0x1240(%ebp),%edx
 804d35d:	89 4a 0c             	mov    %ecx,0xc(%edx)
 804d360:	8b 95 e8 ec ff ff    	mov    -0x1318(%ebp),%edx
 804d366:	83 ea 04             	sub    $0x4,%edx
 804d369:	8b 0a                	mov    (%edx),%ecx
 804d36b:	8b 95 c0 ed ff ff    	mov    -0x1240(%ebp),%edx
 804d371:	83 c0 04             	add    $0x4,%eax
 804d374:	89 0c 82             	mov    %ecx,(%edx,%eax,4)
 804d377:	8b 85 c0 ed ff ff    	mov    -0x1240(%ebp),%eax
 804d37d:	8b 40 0c             	mov    0xc(%eax),%eax
 804d380:	8d 48 01             	lea    0x1(%eax),%ecx
 804d383:	8b 95 c0 ed ff ff    	mov    -0x1240(%ebp),%edx
 804d389:	89 4a 0c             	mov    %ecx,0xc(%edx)
 804d38c:	8b 95 e8 ec ff ff    	mov    -0x1318(%ebp),%edx
 804d392:	8b 0a                	mov    (%edx),%ecx
 804d394:	8b 95 c0 ed ff ff    	mov    -0x1240(%ebp),%edx
 804d39a:	83 c0 04             	add    $0x4,%eax
 804d39d:	89 0c 82             	mov    %ecx,(%edx,%eax,4)
 804d3a0:	8b 85 c0 ed ff ff    	mov    -0x1240(%ebp),%eax
 804d3a6:	89 85 c8 ec ff ff    	mov    %eax,-0x1338(%ebp)
 804d3ac:	e9 80 0a 00 00       	jmp    804de31 <yyparse+0x291d>
 804d3b1:	8b 85 04 ee ff ff    	mov    -0x11fc(%ebp),%eax
 804d3b7:	83 ec 04             	sub    $0x4,%esp
 804d3ba:	6a 00                	push   $0x0
 804d3bc:	50                   	push   %eax
 804d3bd:	68 91 11 05 08       	push   $0x8051191
 804d3c2:	e8 93 10 00 00       	call   804e45a <Syntax_Leaf_New>
 804d3c7:	83 c4 10             	add    $0x10,%esp
 804d3ca:	89 85 c4 ed ff ff    	mov    %eax,-0x123c(%ebp)
 804d3d0:	8b 85 c4 ed ff ff    	mov    -0x123c(%ebp),%eax
 804d3d6:	8b 40 0c             	mov    0xc(%eax),%eax
 804d3d9:	8d 48 01             	lea    0x1(%eax),%ecx
 804d3dc:	8b 95 c4 ed ff ff    	mov    -0x123c(%ebp),%edx
 804d3e2:	89 4a 0c             	mov    %ecx,0xc(%edx)
 804d3e5:	8b 95 e8 ec ff ff    	mov    -0x1318(%ebp),%edx
 804d3eb:	83 ea 08             	sub    $0x8,%edx
 804d3ee:	8b 0a                	mov    (%edx),%ecx
 804d3f0:	8b 95 c4 ed ff ff    	mov    -0x123c(%ebp),%edx
 804d3f6:	83 c0 04             	add    $0x4,%eax
 804d3f9:	89 0c 82             	mov    %ecx,(%edx,%eax,4)
 804d3fc:	8b 85 c4 ed ff ff    	mov    -0x123c(%ebp),%eax
 804d402:	8b 40 0c             	mov    0xc(%eax),%eax
 804d405:	8d 48 01             	lea    0x1(%eax),%ecx
 804d408:	8b 95 c4 ed ff ff    	mov    -0x123c(%ebp),%edx
 804d40e:	89 4a 0c             	mov    %ecx,0xc(%edx)
 804d411:	8b 95 e8 ec ff ff    	mov    -0x1318(%ebp),%edx
 804d417:	83 ea 04             	sub    $0x4,%edx
 804d41a:	8b 0a                	mov    (%edx),%ecx
 804d41c:	8b 95 c4 ed ff ff    	mov    -0x123c(%ebp),%edx
 804d422:	83 c0 04             	add    $0x4,%eax
 804d425:	89 0c 82             	mov    %ecx,(%edx,%eax,4)
 804d428:	8b 85 c4 ed ff ff    	mov    -0x123c(%ebp),%eax
 804d42e:	8b 40 0c             	mov    0xc(%eax),%eax
 804d431:	8d 48 01             	lea    0x1(%eax),%ecx
 804d434:	8b 95 c4 ed ff ff    	mov    -0x123c(%ebp),%edx
 804d43a:	89 4a 0c             	mov    %ecx,0xc(%edx)
 804d43d:	8b 95 e8 ec ff ff    	mov    -0x1318(%ebp),%edx
 804d443:	8b 0a                	mov    (%edx),%ecx
 804d445:	8b 95 c4 ed ff ff    	mov    -0x123c(%ebp),%edx
 804d44b:	83 c0 04             	add    $0x4,%eax
 804d44e:	89 0c 82             	mov    %ecx,(%edx,%eax,4)
 804d451:	8b 85 c4 ed ff ff    	mov    -0x123c(%ebp),%eax
 804d457:	89 85 c8 ec ff ff    	mov    %eax,-0x1338(%ebp)
 804d45d:	e9 cf 09 00 00       	jmp    804de31 <yyparse+0x291d>
 804d462:	8b 85 04 ee ff ff    	mov    -0x11fc(%ebp),%eax
 804d468:	83 ec 04             	sub    $0x4,%esp
 804d46b:	6a 00                	push   $0x0
 804d46d:	50                   	push   %eax
 804d46e:	68 91 11 05 08       	push   $0x8051191
 804d473:	e8 e2 0f 00 00       	call   804e45a <Syntax_Leaf_New>
 804d478:	83 c4 10             	add    $0x10,%esp
 804d47b:	89 85 c8 ed ff ff    	mov    %eax,-0x1238(%ebp)
 804d481:	8b 85 c8 ed ff ff    	mov    -0x1238(%ebp),%eax
 804d487:	8b 40 0c             	mov    0xc(%eax),%eax
 804d48a:	8d 48 01             	lea    0x1(%eax),%ecx
 804d48d:	8b 95 c8 ed ff ff    	mov    -0x1238(%ebp),%edx
 804d493:	89 4a 0c             	mov    %ecx,0xc(%edx)
 804d496:	8b 95 e8 ec ff ff    	mov    -0x1318(%ebp),%edx
 804d49c:	83 ea 08             	sub    $0x8,%edx
 804d49f:	8b 0a                	mov    (%edx),%ecx
 804d4a1:	8b 95 c8 ed ff ff    	mov    -0x1238(%ebp),%edx
 804d4a7:	83 c0 04             	add    $0x4,%eax
 804d4aa:	89 0c 82             	mov    %ecx,(%edx,%eax,4)
 804d4ad:	8b 85 c8 ed ff ff    	mov    -0x1238(%ebp),%eax
 804d4b3:	8b 40 0c             	mov    0xc(%eax),%eax
 804d4b6:	8d 48 01             	lea    0x1(%eax),%ecx
 804d4b9:	8b 95 c8 ed ff ff    	mov    -0x1238(%ebp),%edx
 804d4bf:	89 4a 0c             	mov    %ecx,0xc(%edx)
 804d4c2:	8b 95 e8 ec ff ff    	mov    -0x1318(%ebp),%edx
 804d4c8:	83 ea 04             	sub    $0x4,%edx
 804d4cb:	8b 0a                	mov    (%edx),%ecx
 804d4cd:	8b 95 c8 ed ff ff    	mov    -0x1238(%ebp),%edx
 804d4d3:	83 c0 04             	add    $0x4,%eax
 804d4d6:	89 0c 82             	mov    %ecx,(%edx,%eax,4)
 804d4d9:	8b 85 c8 ed ff ff    	mov    -0x1238(%ebp),%eax
 804d4df:	8b 40 0c             	mov    0xc(%eax),%eax
 804d4e2:	8d 48 01             	lea    0x1(%eax),%ecx
 804d4e5:	8b 95 c8 ed ff ff    	mov    -0x1238(%ebp),%edx
 804d4eb:	89 4a 0c             	mov    %ecx,0xc(%edx)
 804d4ee:	8b 95 e8 ec ff ff    	mov    -0x1318(%ebp),%edx
 804d4f4:	8b 0a                	mov    (%edx),%ecx
 804d4f6:	8b 95 c8 ed ff ff    	mov    -0x1238(%ebp),%edx
 804d4fc:	83 c0 04             	add    $0x4,%eax
 804d4ff:	89 0c 82             	mov    %ecx,(%edx,%eax,4)
 804d502:	8b 85 c8 ed ff ff    	mov    -0x1238(%ebp),%eax
 804d508:	89 85 c8 ec ff ff    	mov    %eax,-0x1338(%ebp)
 804d50e:	e9 1e 09 00 00       	jmp    804de31 <yyparse+0x291d>
 804d513:	8b 85 04 ee ff ff    	mov    -0x11fc(%ebp),%eax
 804d519:	83 ec 04             	sub    $0x4,%esp
 804d51c:	6a 00                	push   $0x0
 804d51e:	50                   	push   %eax
 804d51f:	68 91 11 05 08       	push   $0x8051191
 804d524:	e8 31 0f 00 00       	call   804e45a <Syntax_Leaf_New>
 804d529:	83 c4 10             	add    $0x10,%esp
 804d52c:	89 85 cc ed ff ff    	mov    %eax,-0x1234(%ebp)
 804d532:	8b 85 cc ed ff ff    	mov    -0x1234(%ebp),%eax
 804d538:	8b 40 0c             	mov    0xc(%eax),%eax
 804d53b:	8d 48 01             	lea    0x1(%eax),%ecx
 804d53e:	8b 95 cc ed ff ff    	mov    -0x1234(%ebp),%edx
 804d544:	89 4a 0c             	mov    %ecx,0xc(%edx)
 804d547:	8b 95 e8 ec ff ff    	mov    -0x1318(%ebp),%edx
 804d54d:	83 ea 08             	sub    $0x8,%edx
 804d550:	8b 0a                	mov    (%edx),%ecx
 804d552:	8b 95 cc ed ff ff    	mov    -0x1234(%ebp),%edx
 804d558:	83 c0 04             	add    $0x4,%eax
 804d55b:	89 0c 82             	mov    %ecx,(%edx,%eax,4)
 804d55e:	8b 85 cc ed ff ff    	mov    -0x1234(%ebp),%eax
 804d564:	8b 40 0c             	mov    0xc(%eax),%eax
 804d567:	8d 48 01             	lea    0x1(%eax),%ecx
 804d56a:	8b 95 cc ed ff ff    	mov    -0x1234(%ebp),%edx
 804d570:	89 4a 0c             	mov    %ecx,0xc(%edx)
 804d573:	8b 95 e8 ec ff ff    	mov    -0x1318(%ebp),%edx
 804d579:	83 ea 04             	sub    $0x4,%edx
 804d57c:	8b 0a                	mov    (%edx),%ecx
 804d57e:	8b 95 cc ed ff ff    	mov    -0x1234(%ebp),%edx
 804d584:	83 c0 04             	add    $0x4,%eax
 804d587:	89 0c 82             	mov    %ecx,(%edx,%eax,4)
 804d58a:	8b 85 cc ed ff ff    	mov    -0x1234(%ebp),%eax
 804d590:	8b 40 0c             	mov    0xc(%eax),%eax
 804d593:	8d 48 01             	lea    0x1(%eax),%ecx
 804d596:	8b 95 cc ed ff ff    	mov    -0x1234(%ebp),%edx
 804d59c:	89 4a 0c             	mov    %ecx,0xc(%edx)
 804d59f:	8b 95 e8 ec ff ff    	mov    -0x1318(%ebp),%edx
 804d5a5:	8b 0a                	mov    (%edx),%ecx
 804d5a7:	8b 95 cc ed ff ff    	mov    -0x1234(%ebp),%edx
 804d5ad:	83 c0 04             	add    $0x4,%eax
 804d5b0:	89 0c 82             	mov    %ecx,(%edx,%eax,4)
 804d5b3:	8b 85 cc ed ff ff    	mov    -0x1234(%ebp),%eax
 804d5b9:	89 85 c8 ec ff ff    	mov    %eax,-0x1338(%ebp)
 804d5bf:	e9 6d 08 00 00       	jmp    804de31 <yyparse+0x291d>
 804d5c4:	8b 85 04 ee ff ff    	mov    -0x11fc(%ebp),%eax
 804d5ca:	83 ec 04             	sub    $0x4,%esp
 804d5cd:	6a 00                	push   $0x0
 804d5cf:	50                   	push   %eax
 804d5d0:	68 91 11 05 08       	push   $0x8051191
 804d5d5:	e8 80 0e 00 00       	call   804e45a <Syntax_Leaf_New>
 804d5da:	83 c4 10             	add    $0x10,%esp
 804d5dd:	89 85 d0 ed ff ff    	mov    %eax,-0x1230(%ebp)
 804d5e3:	8b 85 d0 ed ff ff    	mov    -0x1230(%ebp),%eax
 804d5e9:	8b 40 0c             	mov    0xc(%eax),%eax
 804d5ec:	8d 48 01             	lea    0x1(%eax),%ecx
 804d5ef:	8b 95 d0 ed ff ff    	mov    -0x1230(%ebp),%edx
 804d5f5:	89 4a 0c             	mov    %ecx,0xc(%edx)
 804d5f8:	8b 95 e8 ec ff ff    	mov    -0x1318(%ebp),%edx
 804d5fe:	83 ea 08             	sub    $0x8,%edx
 804d601:	8b 0a                	mov    (%edx),%ecx
 804d603:	8b 95 d0 ed ff ff    	mov    -0x1230(%ebp),%edx
 804d609:	83 c0 04             	add    $0x4,%eax
 804d60c:	89 0c 82             	mov    %ecx,(%edx,%eax,4)
 804d60f:	8b 85 d0 ed ff ff    	mov    -0x1230(%ebp),%eax
 804d615:	8b 40 0c             	mov    0xc(%eax),%eax
 804d618:	8d 48 01             	lea    0x1(%eax),%ecx
 804d61b:	8b 95 d0 ed ff ff    	mov    -0x1230(%ebp),%edx
 804d621:	89 4a 0c             	mov    %ecx,0xc(%edx)
 804d624:	8b 95 e8 ec ff ff    	mov    -0x1318(%ebp),%edx
 804d62a:	83 ea 04             	sub    $0x4,%edx
 804d62d:	8b 0a                	mov    (%edx),%ecx
 804d62f:	8b 95 d0 ed ff ff    	mov    -0x1230(%ebp),%edx
 804d635:	83 c0 04             	add    $0x4,%eax
 804d638:	89 0c 82             	mov    %ecx,(%edx,%eax,4)
 804d63b:	8b 85 d0 ed ff ff    	mov    -0x1230(%ebp),%eax
 804d641:	8b 40 0c             	mov    0xc(%eax),%eax
 804d644:	8d 48 01             	lea    0x1(%eax),%ecx
 804d647:	8b 95 d0 ed ff ff    	mov    -0x1230(%ebp),%edx
 804d64d:	89 4a 0c             	mov    %ecx,0xc(%edx)
 804d650:	8b 95 e8 ec ff ff    	mov    -0x1318(%ebp),%edx
 804d656:	8b 0a                	mov    (%edx),%ecx
 804d658:	8b 95 d0 ed ff ff    	mov    -0x1230(%ebp),%edx
 804d65e:	83 c0 04             	add    $0x4,%eax
 804d661:	89 0c 82             	mov    %ecx,(%edx,%eax,4)
 804d664:	8b 85 d0 ed ff ff    	mov    -0x1230(%ebp),%eax
 804d66a:	89 85 c8 ec ff ff    	mov    %eax,-0x1338(%ebp)
 804d670:	e9 bc 07 00 00       	jmp    804de31 <yyparse+0x291d>
 804d675:	8b 85 04 ee ff ff    	mov    -0x11fc(%ebp),%eax
 804d67b:	83 ec 04             	sub    $0x4,%esp
 804d67e:	6a 00                	push   $0x0
 804d680:	50                   	push   %eax
 804d681:	68 91 11 05 08       	push   $0x8051191
 804d686:	e8 cf 0d 00 00       	call   804e45a <Syntax_Leaf_New>
 804d68b:	83 c4 10             	add    $0x10,%esp
 804d68e:	89 85 d4 ed ff ff    	mov    %eax,-0x122c(%ebp)
 804d694:	8b 85 d4 ed ff ff    	mov    -0x122c(%ebp),%eax
 804d69a:	8b 40 0c             	mov    0xc(%eax),%eax
 804d69d:	8d 48 01             	lea    0x1(%eax),%ecx
 804d6a0:	8b 95 d4 ed ff ff    	mov    -0x122c(%ebp),%edx
 804d6a6:	89 4a 0c             	mov    %ecx,0xc(%edx)
 804d6a9:	8b 95 e8 ec ff ff    	mov    -0x1318(%ebp),%edx
 804d6af:	83 ea 08             	sub    $0x8,%edx
 804d6b2:	8b 0a                	mov    (%edx),%ecx
 804d6b4:	8b 95 d4 ed ff ff    	mov    -0x122c(%ebp),%edx
 804d6ba:	83 c0 04             	add    $0x4,%eax
 804d6bd:	89 0c 82             	mov    %ecx,(%edx,%eax,4)
 804d6c0:	8b 85 d4 ed ff ff    	mov    -0x122c(%ebp),%eax
 804d6c6:	8b 40 0c             	mov    0xc(%eax),%eax
 804d6c9:	8d 48 01             	lea    0x1(%eax),%ecx
 804d6cc:	8b 95 d4 ed ff ff    	mov    -0x122c(%ebp),%edx
 804d6d2:	89 4a 0c             	mov    %ecx,0xc(%edx)
 804d6d5:	8b 95 e8 ec ff ff    	mov    -0x1318(%ebp),%edx
 804d6db:	83 ea 04             	sub    $0x4,%edx
 804d6de:	8b 0a                	mov    (%edx),%ecx
 804d6e0:	8b 95 d4 ed ff ff    	mov    -0x122c(%ebp),%edx
 804d6e6:	83 c0 04             	add    $0x4,%eax
 804d6e9:	89 0c 82             	mov    %ecx,(%edx,%eax,4)
 804d6ec:	8b 85 d4 ed ff ff    	mov    -0x122c(%ebp),%eax
 804d6f2:	8b 40 0c             	mov    0xc(%eax),%eax
 804d6f5:	8d 48 01             	lea    0x1(%eax),%ecx
 804d6f8:	8b 95 d4 ed ff ff    	mov    -0x122c(%ebp),%edx
 804d6fe:	89 4a 0c             	mov    %ecx,0xc(%edx)
 804d701:	8b 95 e8 ec ff ff    	mov    -0x1318(%ebp),%edx
 804d707:	8b 0a                	mov    (%edx),%ecx
 804d709:	8b 95 d4 ed ff ff    	mov    -0x122c(%ebp),%edx
 804d70f:	83 c0 04             	add    $0x4,%eax
 804d712:	89 0c 82             	mov    %ecx,(%edx,%eax,4)
 804d715:	8b 85 d4 ed ff ff    	mov    -0x122c(%ebp),%eax
 804d71b:	89 85 c8 ec ff ff    	mov    %eax,-0x1338(%ebp)
 804d721:	e9 0b 07 00 00       	jmp    804de31 <yyparse+0x291d>
 804d726:	8b 85 04 ee ff ff    	mov    -0x11fc(%ebp),%eax
 804d72c:	83 ec 04             	sub    $0x4,%esp
 804d72f:	6a 00                	push   $0x0
 804d731:	50                   	push   %eax
 804d732:	68 91 11 05 08       	push   $0x8051191
 804d737:	e8 1e 0d 00 00       	call   804e45a <Syntax_Leaf_New>
 804d73c:	83 c4 10             	add    $0x10,%esp
 804d73f:	89 85 d8 ed ff ff    	mov    %eax,-0x1228(%ebp)
 804d745:	8b 85 d8 ed ff ff    	mov    -0x1228(%ebp),%eax
 804d74b:	8b 40 0c             	mov    0xc(%eax),%eax
 804d74e:	8d 48 01             	lea    0x1(%eax),%ecx
 804d751:	8b 95 d8 ed ff ff    	mov    -0x1228(%ebp),%edx
 804d757:	89 4a 0c             	mov    %ecx,0xc(%edx)
 804d75a:	8b 95 e8 ec ff ff    	mov    -0x1318(%ebp),%edx
 804d760:	83 ea 04             	sub    $0x4,%edx
 804d763:	8b 0a                	mov    (%edx),%ecx
 804d765:	8b 95 d8 ed ff ff    	mov    -0x1228(%ebp),%edx
 804d76b:	83 c0 04             	add    $0x4,%eax
 804d76e:	89 0c 82             	mov    %ecx,(%edx,%eax,4)
 804d771:	8b 85 d8 ed ff ff    	mov    -0x1228(%ebp),%eax
 804d777:	8b 40 0c             	mov    0xc(%eax),%eax
 804d77a:	8d 48 01             	lea    0x1(%eax),%ecx
 804d77d:	8b 95 d8 ed ff ff    	mov    -0x1228(%ebp),%edx
 804d783:	89 4a 0c             	mov    %ecx,0xc(%edx)
 804d786:	8b 95 e8 ec ff ff    	mov    -0x1318(%ebp),%edx
 804d78c:	8b 0a                	mov    (%edx),%ecx
 804d78e:	8b 95 d8 ed ff ff    	mov    -0x1228(%ebp),%edx
 804d794:	83 c0 04             	add    $0x4,%eax
 804d797:	89 0c 82             	mov    %ecx,(%edx,%eax,4)
 804d79a:	8b 85 d8 ed ff ff    	mov    -0x1228(%ebp),%eax
 804d7a0:	89 85 c8 ec ff ff    	mov    %eax,-0x1338(%ebp)
 804d7a6:	e9 86 06 00 00       	jmp    804de31 <yyparse+0x291d>
 804d7ab:	8b 85 04 ee ff ff    	mov    -0x11fc(%ebp),%eax
 804d7b1:	83 ec 04             	sub    $0x4,%esp
 804d7b4:	6a 00                	push   $0x0
 804d7b6:	50                   	push   %eax
 804d7b7:	68 91 11 05 08       	push   $0x8051191
 804d7bc:	e8 99 0c 00 00       	call   804e45a <Syntax_Leaf_New>
 804d7c1:	83 c4 10             	add    $0x10,%esp
 804d7c4:	89 85 dc ed ff ff    	mov    %eax,-0x1224(%ebp)
 804d7ca:	8b 85 dc ed ff ff    	mov    -0x1224(%ebp),%eax
 804d7d0:	8b 40 0c             	mov    0xc(%eax),%eax
 804d7d3:	8d 48 01             	lea    0x1(%eax),%ecx
 804d7d6:	8b 95 dc ed ff ff    	mov    -0x1224(%ebp),%edx
 804d7dc:	89 4a 0c             	mov    %ecx,0xc(%edx)
 804d7df:	8b 95 e8 ec ff ff    	mov    -0x1318(%ebp),%edx
 804d7e5:	83 ea 04             	sub    $0x4,%edx
 804d7e8:	8b 0a                	mov    (%edx),%ecx
 804d7ea:	8b 95 dc ed ff ff    	mov    -0x1224(%ebp),%edx
 804d7f0:	83 c0 04             	add    $0x4,%eax
 804d7f3:	89 0c 82             	mov    %ecx,(%edx,%eax,4)
 804d7f6:	8b 85 dc ed ff ff    	mov    -0x1224(%ebp),%eax
 804d7fc:	8b 40 0c             	mov    0xc(%eax),%eax
 804d7ff:	8d 48 01             	lea    0x1(%eax),%ecx
 804d802:	8b 95 dc ed ff ff    	mov    -0x1224(%ebp),%edx
 804d808:	89 4a 0c             	mov    %ecx,0xc(%edx)
 804d80b:	8b 95 e8 ec ff ff    	mov    -0x1318(%ebp),%edx
 804d811:	8b 0a                	mov    (%edx),%ecx
 804d813:	8b 95 dc ed ff ff    	mov    -0x1224(%ebp),%edx
 804d819:	83 c0 04             	add    $0x4,%eax
 804d81c:	89 0c 82             	mov    %ecx,(%edx,%eax,4)
 804d81f:	8b 85 dc ed ff ff    	mov    -0x1224(%ebp),%eax
 804d825:	89 85 c8 ec ff ff    	mov    %eax,-0x1338(%ebp)
 804d82b:	e9 01 06 00 00       	jmp    804de31 <yyparse+0x291d>
 804d830:	8b 85 04 ee ff ff    	mov    -0x11fc(%ebp),%eax
 804d836:	83 ec 04             	sub    $0x4,%esp
 804d839:	6a 00                	push   $0x0
 804d83b:	50                   	push   %eax
 804d83c:	68 91 11 05 08       	push   $0x8051191
 804d841:	e8 14 0c 00 00       	call   804e45a <Syntax_Leaf_New>
 804d846:	83 c4 10             	add    $0x10,%esp
 804d849:	89 85 e0 ed ff ff    	mov    %eax,-0x1220(%ebp)
 804d84f:	8b 85 e0 ed ff ff    	mov    -0x1220(%ebp),%eax
 804d855:	8b 40 0c             	mov    0xc(%eax),%eax
 804d858:	8d 48 01             	lea    0x1(%eax),%ecx
 804d85b:	8b 95 e0 ed ff ff    	mov    -0x1220(%ebp),%edx
 804d861:	89 4a 0c             	mov    %ecx,0xc(%edx)
 804d864:	8b 95 e8 ec ff ff    	mov    -0x1318(%ebp),%edx
 804d86a:	83 ea 0c             	sub    $0xc,%edx
 804d86d:	8b 0a                	mov    (%edx),%ecx
 804d86f:	8b 95 e0 ed ff ff    	mov    -0x1220(%ebp),%edx
 804d875:	83 c0 04             	add    $0x4,%eax
 804d878:	89 0c 82             	mov    %ecx,(%edx,%eax,4)
 804d87b:	8b 85 e0 ed ff ff    	mov    -0x1220(%ebp),%eax
 804d881:	8b 40 0c             	mov    0xc(%eax),%eax
 804d884:	8d 48 01             	lea    0x1(%eax),%ecx
 804d887:	8b 95 e0 ed ff ff    	mov    -0x1220(%ebp),%edx
 804d88d:	89 4a 0c             	mov    %ecx,0xc(%edx)
 804d890:	8b 95 e8 ec ff ff    	mov    -0x1318(%ebp),%edx
 804d896:	83 ea 08             	sub    $0x8,%edx
 804d899:	8b 0a                	mov    (%edx),%ecx
 804d89b:	8b 95 e0 ed ff ff    	mov    -0x1220(%ebp),%edx
 804d8a1:	83 c0 04             	add    $0x4,%eax
 804d8a4:	89 0c 82             	mov    %ecx,(%edx,%eax,4)
 804d8a7:	8b 85 e0 ed ff ff    	mov    -0x1220(%ebp),%eax
 804d8ad:	8b 40 0c             	mov    0xc(%eax),%eax
 804d8b0:	8d 48 01             	lea    0x1(%eax),%ecx
 804d8b3:	8b 95 e0 ed ff ff    	mov    -0x1220(%ebp),%edx
 804d8b9:	89 4a 0c             	mov    %ecx,0xc(%edx)
 804d8bc:	8b 95 e8 ec ff ff    	mov    -0x1318(%ebp),%edx
 804d8c2:	83 ea 04             	sub    $0x4,%edx
 804d8c5:	8b 0a                	mov    (%edx),%ecx
 804d8c7:	8b 95 e0 ed ff ff    	mov    -0x1220(%ebp),%edx
 804d8cd:	83 c0 04             	add    $0x4,%eax
 804d8d0:	89 0c 82             	mov    %ecx,(%edx,%eax,4)
 804d8d3:	8b 85 e0 ed ff ff    	mov    -0x1220(%ebp),%eax
 804d8d9:	8b 40 0c             	mov    0xc(%eax),%eax
 804d8dc:	8d 48 01             	lea    0x1(%eax),%ecx
 804d8df:	8b 95 e0 ed ff ff    	mov    -0x1220(%ebp),%edx
 804d8e5:	89 4a 0c             	mov    %ecx,0xc(%edx)
 804d8e8:	8b 95 e8 ec ff ff    	mov    -0x1318(%ebp),%edx
 804d8ee:	8b 0a                	mov    (%edx),%ecx
 804d8f0:	8b 95 e0 ed ff ff    	mov    -0x1220(%ebp),%edx
 804d8f6:	83 c0 04             	add    $0x4,%eax
 804d8f9:	89 0c 82             	mov    %ecx,(%edx,%eax,4)
 804d8fc:	8b 85 e0 ed ff ff    	mov    -0x1220(%ebp),%eax
 804d902:	89 85 c8 ec ff ff    	mov    %eax,-0x1338(%ebp)
 804d908:	e9 24 05 00 00       	jmp    804de31 <yyparse+0x291d>
 804d90d:	8b 85 04 ee ff ff    	mov    -0x11fc(%ebp),%eax
 804d913:	83 ec 04             	sub    $0x4,%esp
 804d916:	6a 00                	push   $0x0
 804d918:	50                   	push   %eax
 804d919:	68 91 11 05 08       	push   $0x8051191
 804d91e:	e8 37 0b 00 00       	call   804e45a <Syntax_Leaf_New>
 804d923:	83 c4 10             	add    $0x10,%esp
 804d926:	89 85 e4 ed ff ff    	mov    %eax,-0x121c(%ebp)
 804d92c:	8b 85 e4 ed ff ff    	mov    -0x121c(%ebp),%eax
 804d932:	8b 40 0c             	mov    0xc(%eax),%eax
 804d935:	8d 48 01             	lea    0x1(%eax),%ecx
 804d938:	8b 95 e4 ed ff ff    	mov    -0x121c(%ebp),%edx
 804d93e:	89 4a 0c             	mov    %ecx,0xc(%edx)
 804d941:	8b 95 e8 ec ff ff    	mov    -0x1318(%ebp),%edx
 804d947:	83 ea 08             	sub    $0x8,%edx
 804d94a:	8b 0a                	mov    (%edx),%ecx
 804d94c:	8b 95 e4 ed ff ff    	mov    -0x121c(%ebp),%edx
 804d952:	83 c0 04             	add    $0x4,%eax
 804d955:	89 0c 82             	mov    %ecx,(%edx,%eax,4)
 804d958:	8b 85 e4 ed ff ff    	mov    -0x121c(%ebp),%eax
 804d95e:	8b 40 0c             	mov    0xc(%eax),%eax
 804d961:	8d 48 01             	lea    0x1(%eax),%ecx
 804d964:	8b 95 e4 ed ff ff    	mov    -0x121c(%ebp),%edx
 804d96a:	89 4a 0c             	mov    %ecx,0xc(%edx)
 804d96d:	8b 95 e8 ec ff ff    	mov    -0x1318(%ebp),%edx
 804d973:	83 ea 04             	sub    $0x4,%edx
 804d976:	8b 0a                	mov    (%edx),%ecx
 804d978:	8b 95 e4 ed ff ff    	mov    -0x121c(%ebp),%edx
 804d97e:	83 c0 04             	add    $0x4,%eax
 804d981:	89 0c 82             	mov    %ecx,(%edx,%eax,4)
 804d984:	8b 85 e4 ed ff ff    	mov    -0x121c(%ebp),%eax
 804d98a:	8b 40 0c             	mov    0xc(%eax),%eax
 804d98d:	8d 48 01             	lea    0x1(%eax),%ecx
 804d990:	8b 95 e4 ed ff ff    	mov    -0x121c(%ebp),%edx
 804d996:	89 4a 0c             	mov    %ecx,0xc(%edx)
 804d999:	8b 95 e8 ec ff ff    	mov    -0x1318(%ebp),%edx
 804d99f:	8b 0a                	mov    (%edx),%ecx
 804d9a1:	8b 95 e4 ed ff ff    	mov    -0x121c(%ebp),%edx
 804d9a7:	83 c0 04             	add    $0x4,%eax
 804d9aa:	89 0c 82             	mov    %ecx,(%edx,%eax,4)
 804d9ad:	8b 85 e4 ed ff ff    	mov    -0x121c(%ebp),%eax
 804d9b3:	89 85 c8 ec ff ff    	mov    %eax,-0x1338(%ebp)
 804d9b9:	e9 73 04 00 00       	jmp    804de31 <yyparse+0x291d>
 804d9be:	8b 85 04 ee ff ff    	mov    -0x11fc(%ebp),%eax
 804d9c4:	83 ec 04             	sub    $0x4,%esp
 804d9c7:	6a 00                	push   $0x0
 804d9c9:	50                   	push   %eax
 804d9ca:	68 91 11 05 08       	push   $0x8051191
 804d9cf:	e8 86 0a 00 00       	call   804e45a <Syntax_Leaf_New>
 804d9d4:	83 c4 10             	add    $0x10,%esp
 804d9d7:	89 85 e8 ed ff ff    	mov    %eax,-0x1218(%ebp)
 804d9dd:	8b 85 e8 ed ff ff    	mov    -0x1218(%ebp),%eax
 804d9e3:	8b 40 0c             	mov    0xc(%eax),%eax
 804d9e6:	8d 48 01             	lea    0x1(%eax),%ecx
 804d9e9:	8b 95 e8 ed ff ff    	mov    -0x1218(%ebp),%edx
 804d9ef:	89 4a 0c             	mov    %ecx,0xc(%edx)
 804d9f2:	8b 95 e8 ec ff ff    	mov    -0x1318(%ebp),%edx
 804d9f8:	83 ea 0c             	sub    $0xc,%edx
 804d9fb:	8b 0a                	mov    (%edx),%ecx
 804d9fd:	8b 95 e8 ed ff ff    	mov    -0x1218(%ebp),%edx
 804da03:	83 c0 04             	add    $0x4,%eax
 804da06:	89 0c 82             	mov    %ecx,(%edx,%eax,4)
 804da09:	8b 85 e8 ed ff ff    	mov    -0x1218(%ebp),%eax
 804da0f:	8b 40 0c             	mov    0xc(%eax),%eax
 804da12:	8d 48 01             	lea    0x1(%eax),%ecx
 804da15:	8b 95 e8 ed ff ff    	mov    -0x1218(%ebp),%edx
 804da1b:	89 4a 0c             	mov    %ecx,0xc(%edx)
 804da1e:	8b 95 e8 ec ff ff    	mov    -0x1318(%ebp),%edx
 804da24:	83 ea 08             	sub    $0x8,%edx
 804da27:	8b 0a                	mov    (%edx),%ecx
 804da29:	8b 95 e8 ed ff ff    	mov    -0x1218(%ebp),%edx
 804da2f:	83 c0 04             	add    $0x4,%eax
 804da32:	89 0c 82             	mov    %ecx,(%edx,%eax,4)
 804da35:	8b 85 e8 ed ff ff    	mov    -0x1218(%ebp),%eax
 804da3b:	8b 40 0c             	mov    0xc(%eax),%eax
 804da3e:	8d 48 01             	lea    0x1(%eax),%ecx
 804da41:	8b 95 e8 ed ff ff    	mov    -0x1218(%ebp),%edx
 804da47:	89 4a 0c             	mov    %ecx,0xc(%edx)
 804da4a:	8b 95 e8 ec ff ff    	mov    -0x1318(%ebp),%edx
 804da50:	83 ea 04             	sub    $0x4,%edx
 804da53:	8b 0a                	mov    (%edx),%ecx
 804da55:	8b 95 e8 ed ff ff    	mov    -0x1218(%ebp),%edx
 804da5b:	83 c0 04             	add    $0x4,%eax
 804da5e:	89 0c 82             	mov    %ecx,(%edx,%eax,4)
 804da61:	8b 85 e8 ed ff ff    	mov    -0x1218(%ebp),%eax
 804da67:	8b 40 0c             	mov    0xc(%eax),%eax
 804da6a:	8d 48 01             	lea    0x1(%eax),%ecx
 804da6d:	8b 95 e8 ed ff ff    	mov    -0x1218(%ebp),%edx
 804da73:	89 4a 0c             	mov    %ecx,0xc(%edx)
 804da76:	8b 95 e8 ec ff ff    	mov    -0x1318(%ebp),%edx
 804da7c:	8b 0a                	mov    (%edx),%ecx
 804da7e:	8b 95 e8 ed ff ff    	mov    -0x1218(%ebp),%edx
 804da84:	83 c0 04             	add    $0x4,%eax
 804da87:	89 0c 82             	mov    %ecx,(%edx,%eax,4)
 804da8a:	8b 85 e8 ed ff ff    	mov    -0x1218(%ebp),%eax
 804da90:	89 85 c8 ec ff ff    	mov    %eax,-0x1338(%ebp)
 804da96:	e9 96 03 00 00       	jmp    804de31 <yyparse+0x291d>
 804da9b:	8b 85 04 ee ff ff    	mov    -0x11fc(%ebp),%eax
 804daa1:	83 ec 04             	sub    $0x4,%esp
 804daa4:	6a 00                	push   $0x0
 804daa6:	50                   	push   %eax
 804daa7:	68 91 11 05 08       	push   $0x8051191
 804daac:	e8 a9 09 00 00       	call   804e45a <Syntax_Leaf_New>
 804dab1:	83 c4 10             	add    $0x10,%esp
 804dab4:	89 85 ec ed ff ff    	mov    %eax,-0x1214(%ebp)
 804daba:	8b 85 ec ed ff ff    	mov    -0x1214(%ebp),%eax
 804dac0:	8b 40 0c             	mov    0xc(%eax),%eax
 804dac3:	8d 48 01             	lea    0x1(%eax),%ecx
 804dac6:	8b 95 ec ed ff ff    	mov    -0x1214(%ebp),%edx
 804dacc:	89 4a 0c             	mov    %ecx,0xc(%edx)
 804dacf:	8b 95 e8 ec ff ff    	mov    -0x1318(%ebp),%edx
 804dad5:	83 ea 08             	sub    $0x8,%edx
 804dad8:	8b 0a                	mov    (%edx),%ecx
 804dada:	8b 95 ec ed ff ff    	mov    -0x1214(%ebp),%edx
 804dae0:	83 c0 04             	add    $0x4,%eax
 804dae3:	89 0c 82             	mov    %ecx,(%edx,%eax,4)
 804dae6:	8b 85 ec ed ff ff    	mov    -0x1214(%ebp),%eax
 804daec:	8b 40 0c             	mov    0xc(%eax),%eax
 804daef:	8d 48 01             	lea    0x1(%eax),%ecx
 804daf2:	8b 95 ec ed ff ff    	mov    -0x1214(%ebp),%edx
 804daf8:	89 4a 0c             	mov    %ecx,0xc(%edx)
 804dafb:	8b 95 e8 ec ff ff    	mov    -0x1318(%ebp),%edx
 804db01:	83 ea 04             	sub    $0x4,%edx
 804db04:	8b 0a                	mov    (%edx),%ecx
 804db06:	8b 95 ec ed ff ff    	mov    -0x1214(%ebp),%edx
 804db0c:	83 c0 04             	add    $0x4,%eax
 804db0f:	89 0c 82             	mov    %ecx,(%edx,%eax,4)
 804db12:	8b 85 ec ed ff ff    	mov    -0x1214(%ebp),%eax
 804db18:	8b 40 0c             	mov    0xc(%eax),%eax
 804db1b:	8d 48 01             	lea    0x1(%eax),%ecx
 804db1e:	8b 95 ec ed ff ff    	mov    -0x1214(%ebp),%edx
 804db24:	89 4a 0c             	mov    %ecx,0xc(%edx)
 804db27:	8b 95 e8 ec ff ff    	mov    -0x1318(%ebp),%edx
 804db2d:	8b 0a                	mov    (%edx),%ecx
 804db2f:	8b 95 ec ed ff ff    	mov    -0x1214(%ebp),%edx
 804db35:	83 c0 04             	add    $0x4,%eax
 804db38:	89 0c 82             	mov    %ecx,(%edx,%eax,4)
 804db3b:	8b 85 ec ed ff ff    	mov    -0x1214(%ebp),%eax
 804db41:	89 85 c8 ec ff ff    	mov    %eax,-0x1338(%ebp)
 804db47:	e9 e5 02 00 00       	jmp    804de31 <yyparse+0x291d>
 804db4c:	8b 85 04 ee ff ff    	mov    -0x11fc(%ebp),%eax
 804db52:	83 ec 04             	sub    $0x4,%esp
 804db55:	6a 00                	push   $0x0
 804db57:	50                   	push   %eax
 804db58:	68 91 11 05 08       	push   $0x8051191
 804db5d:	e8 f8 08 00 00       	call   804e45a <Syntax_Leaf_New>
 804db62:	83 c4 10             	add    $0x10,%esp
 804db65:	89 85 f0 ed ff ff    	mov    %eax,-0x1210(%ebp)
 804db6b:	8b 85 f0 ed ff ff    	mov    -0x1210(%ebp),%eax
 804db71:	8b 40 0c             	mov    0xc(%eax),%eax
 804db74:	8d 48 01             	lea    0x1(%eax),%ecx
 804db77:	8b 95 f0 ed ff ff    	mov    -0x1210(%ebp),%edx
 804db7d:	89 4a 0c             	mov    %ecx,0xc(%edx)
 804db80:	8b 95 e8 ec ff ff    	mov    -0x1318(%ebp),%edx
 804db86:	8b 0a                	mov    (%edx),%ecx
 804db88:	8b 95 f0 ed ff ff    	mov    -0x1210(%ebp),%edx
 804db8e:	83 c0 04             	add    $0x4,%eax
 804db91:	89 0c 82             	mov    %ecx,(%edx,%eax,4)
 804db94:	8b 85 f0 ed ff ff    	mov    -0x1210(%ebp),%eax
 804db9a:	89 85 c8 ec ff ff    	mov    %eax,-0x1338(%ebp)
 804dba0:	e9 8c 02 00 00       	jmp    804de31 <yyparse+0x291d>
 804dba5:	8b 85 04 ee ff ff    	mov    -0x11fc(%ebp),%eax
 804dbab:	83 ec 04             	sub    $0x4,%esp
 804dbae:	6a 00                	push   $0x0
 804dbb0:	50                   	push   %eax
 804dbb1:	68 91 11 05 08       	push   $0x8051191
 804dbb6:	e8 9f 08 00 00       	call   804e45a <Syntax_Leaf_New>
 804dbbb:	83 c4 10             	add    $0x10,%esp
 804dbbe:	89 85 f4 ed ff ff    	mov    %eax,-0x120c(%ebp)
 804dbc4:	8b 85 f4 ed ff ff    	mov    -0x120c(%ebp),%eax
 804dbca:	8b 40 0c             	mov    0xc(%eax),%eax
 804dbcd:	8d 48 01             	lea    0x1(%eax),%ecx
 804dbd0:	8b 95 f4 ed ff ff    	mov    -0x120c(%ebp),%edx
 804dbd6:	89 4a 0c             	mov    %ecx,0xc(%edx)
 804dbd9:	8b 95 e8 ec ff ff    	mov    -0x1318(%ebp),%edx
 804dbdf:	8b 0a                	mov    (%edx),%ecx
 804dbe1:	8b 95 f4 ed ff ff    	mov    -0x120c(%ebp),%edx
 804dbe7:	83 c0 04             	add    $0x4,%eax
 804dbea:	89 0c 82             	mov    %ecx,(%edx,%eax,4)
 804dbed:	8b 85 f4 ed ff ff    	mov    -0x120c(%ebp),%eax
 804dbf3:	89 85 c8 ec ff ff    	mov    %eax,-0x1338(%ebp)
 804dbf9:	e9 33 02 00 00       	jmp    804de31 <yyparse+0x291d>
 804dbfe:	8b 85 04 ee ff ff    	mov    -0x11fc(%ebp),%eax
 804dc04:	83 ec 04             	sub    $0x4,%esp
 804dc07:	6a 00                	push   $0x0
 804dc09:	50                   	push   %eax
 804dc0a:	68 91 11 05 08       	push   $0x8051191
 804dc0f:	e8 46 08 00 00       	call   804e45a <Syntax_Leaf_New>
 804dc14:	83 c4 10             	add    $0x10,%esp
 804dc17:	89 85 f8 ed ff ff    	mov    %eax,-0x1208(%ebp)
 804dc1d:	8b 85 f8 ed ff ff    	mov    -0x1208(%ebp),%eax
 804dc23:	8b 40 0c             	mov    0xc(%eax),%eax
 804dc26:	8d 48 01             	lea    0x1(%eax),%ecx
 804dc29:	8b 95 f8 ed ff ff    	mov    -0x1208(%ebp),%edx
 804dc2f:	89 4a 0c             	mov    %ecx,0xc(%edx)
 804dc32:	8b 95 e8 ec ff ff    	mov    -0x1318(%ebp),%edx
 804dc38:	8b 0a                	mov    (%edx),%ecx
 804dc3a:	8b 95 f8 ed ff ff    	mov    -0x1208(%ebp),%edx
 804dc40:	83 c0 04             	add    $0x4,%eax
 804dc43:	89 0c 82             	mov    %ecx,(%edx,%eax,4)
 804dc46:	8b 85 f8 ed ff ff    	mov    -0x1208(%ebp),%eax
 804dc4c:	89 85 c8 ec ff ff    	mov    %eax,-0x1338(%ebp)
 804dc52:	e9 da 01 00 00       	jmp    804de31 <yyparse+0x291d>
 804dc57:	8b 85 04 ee ff ff    	mov    -0x11fc(%ebp),%eax
 804dc5d:	83 ec 04             	sub    $0x4,%esp
 804dc60:	6a 00                	push   $0x0
 804dc62:	50                   	push   %eax
 804dc63:	68 95 11 05 08       	push   $0x8051195
 804dc68:	e8 ed 07 00 00       	call   804e45a <Syntax_Leaf_New>
 804dc6d:	83 c4 10             	add    $0x10,%esp
 804dc70:	89 85 fc ed ff ff    	mov    %eax,-0x1204(%ebp)
 804dc76:	8b 85 fc ed ff ff    	mov    -0x1204(%ebp),%eax
 804dc7c:	8b 40 0c             	mov    0xc(%eax),%eax
 804dc7f:	8d 48 01             	lea    0x1(%eax),%ecx
 804dc82:	8b 95 fc ed ff ff    	mov    -0x1204(%ebp),%edx
 804dc88:	89 4a 0c             	mov    %ecx,0xc(%edx)
 804dc8b:	8b 95 e8 ec ff ff    	mov    -0x1318(%ebp),%edx
 804dc91:	83 ea 08             	sub    $0x8,%edx
 804dc94:	8b 0a                	mov    (%edx),%ecx
 804dc96:	8b 95 fc ed ff ff    	mov    -0x1204(%ebp),%edx
 804dc9c:	83 c0 04             	add    $0x4,%eax
 804dc9f:	89 0c 82             	mov    %ecx,(%edx,%eax,4)
 804dca2:	8b 85 fc ed ff ff    	mov    -0x1204(%ebp),%eax
 804dca8:	8b 40 0c             	mov    0xc(%eax),%eax
 804dcab:	8d 48 01             	lea    0x1(%eax),%ecx
 804dcae:	8b 95 fc ed ff ff    	mov    -0x1204(%ebp),%edx
 804dcb4:	89 4a 0c             	mov    %ecx,0xc(%edx)
 804dcb7:	8b 95 e8 ec ff ff    	mov    -0x1318(%ebp),%edx
 804dcbd:	83 ea 04             	sub    $0x4,%edx
 804dcc0:	8b 0a                	mov    (%edx),%ecx
 804dcc2:	8b 95 fc ed ff ff    	mov    -0x1204(%ebp),%edx
 804dcc8:	83 c0 04             	add    $0x4,%eax
 804dccb:	89 0c 82             	mov    %ecx,(%edx,%eax,4)
 804dcce:	8b 85 fc ed ff ff    	mov    -0x1204(%ebp),%eax
 804dcd4:	8b 40 0c             	mov    0xc(%eax),%eax
 804dcd7:	8d 48 01             	lea    0x1(%eax),%ecx
 804dcda:	8b 95 fc ed ff ff    	mov    -0x1204(%ebp),%edx
 804dce0:	89 4a 0c             	mov    %ecx,0xc(%edx)
 804dce3:	8b 95 e8 ec ff ff    	mov    -0x1318(%ebp),%edx
 804dce9:	8b 0a                	mov    (%edx),%ecx
 804dceb:	8b 95 fc ed ff ff    	mov    -0x1204(%ebp),%edx
 804dcf1:	83 c0 04             	add    $0x4,%eax
 804dcf4:	89 0c 82             	mov    %ecx,(%edx,%eax,4)
 804dcf7:	8b 85 fc ed ff ff    	mov    -0x1204(%ebp),%eax
 804dcfd:	89 85 c8 ec ff ff    	mov    %eax,-0x1338(%ebp)
 804dd03:	e9 29 01 00 00       	jmp    804de31 <yyparse+0x291d>
 804dd08:	8b 85 04 ee ff ff    	mov    -0x11fc(%ebp),%eax
 804dd0e:	83 ec 04             	sub    $0x4,%esp
 804dd11:	6a 00                	push   $0x0
 804dd13:	50                   	push   %eax
 804dd14:	68 91 11 05 08       	push   $0x8051191
 804dd19:	e8 3c 07 00 00       	call   804e45a <Syntax_Leaf_New>
 804dd1e:	83 c4 10             	add    $0x10,%esp
 804dd21:	89 85 00 ee ff ff    	mov    %eax,-0x1200(%ebp)
 804dd27:	8b 85 00 ee ff ff    	mov    -0x1200(%ebp),%eax
 804dd2d:	8b 40 0c             	mov    0xc(%eax),%eax
 804dd30:	8d 48 01             	lea    0x1(%eax),%ecx
 804dd33:	8b 95 00 ee ff ff    	mov    -0x1200(%ebp),%edx
 804dd39:	89 4a 0c             	mov    %ecx,0xc(%edx)
 804dd3c:	8b 95 e8 ec ff ff    	mov    -0x1318(%ebp),%edx
 804dd42:	8b 0a                	mov    (%edx),%ecx
 804dd44:	8b 95 00 ee ff ff    	mov    -0x1200(%ebp),%edx
 804dd4a:	83 c0 04             	add    $0x4,%eax
 804dd4d:	89 0c 82             	mov    %ecx,(%edx,%eax,4)
 804dd50:	8b 85 00 ee ff ff    	mov    -0x1200(%ebp),%eax
 804dd56:	89 85 c8 ec ff ff    	mov    %eax,-0x1338(%ebp)
 804dd5c:	e9 d0 00 00 00       	jmp    804de31 <yyparse+0x291d>
 804dd61:	83 ec 0c             	sub    $0xc,%esp
 804dd64:	68 85 1c 05 08       	push   $0x8051c85
 804dd69:	e8 12 aa ff ff       	call   8048780 <puts@plt>
 804dd6e:	83 c4 10             	add    $0x10,%esp
 804dd71:	e9 bb 00 00 00       	jmp    804de31 <yyparse+0x291d>
 804dd76:	83 ec 0c             	sub    $0xc,%esp
 804dd79:	68 9a 1c 05 08       	push   $0x8051c9a
 804dd7e:	e8 fd a9 ff ff       	call   8048780 <puts@plt>
 804dd83:	83 c4 10             	add    $0x10,%esp
 804dd86:	e9 a6 00 00 00       	jmp    804de31 <yyparse+0x291d>
 804dd8b:	83 ec 0c             	sub    $0xc,%esp
 804dd8e:	68 af 1c 05 08       	push   $0x8051caf
 804dd93:	e8 e8 a9 ff ff       	call   8048780 <puts@plt>
 804dd98:	83 c4 10             	add    $0x10,%esp
 804dd9b:	e9 91 00 00 00       	jmp    804de31 <yyparse+0x291d>
 804dda0:	83 ec 0c             	sub    $0xc,%esp
 804dda3:	68 c4 1c 05 08       	push   $0x8051cc4
 804dda8:	e8 d3 a9 ff ff       	call   8048780 <puts@plt>
 804ddad:	83 c4 10             	add    $0x10,%esp
 804ddb0:	eb 7f                	jmp    804de31 <yyparse+0x291d>
 804ddb2:	83 ec 0c             	sub    $0xc,%esp
 804ddb5:	68 d9 1c 05 08       	push   $0x8051cd9
 804ddba:	e8 c1 a9 ff ff       	call   8048780 <puts@plt>
 804ddbf:	83 c4 10             	add    $0x10,%esp
 804ddc2:	eb 6d                	jmp    804de31 <yyparse+0x291d>
 804ddc4:	83 ec 0c             	sub    $0xc,%esp
 804ddc7:	68 ee 1c 05 08       	push   $0x8051cee
 804ddcc:	e8 af a9 ff ff       	call   8048780 <puts@plt>
 804ddd1:	83 c4 10             	add    $0x10,%esp
 804ddd4:	eb 5b                	jmp    804de31 <yyparse+0x291d>
 804ddd6:	83 ec 0c             	sub    $0xc,%esp
 804ddd9:	68 03 1d 05 08       	push   $0x8051d03
 804ddde:	e8 9d a9 ff ff       	call   8048780 <puts@plt>
 804dde3:	83 c4 10             	add    $0x10,%esp
 804dde6:	eb 49                	jmp    804de31 <yyparse+0x291d>
 804dde8:	83 ec 0c             	sub    $0xc,%esp
 804ddeb:	68 18 1d 05 08       	push   $0x8051d18
 804ddf0:	e8 8b a9 ff ff       	call   8048780 <puts@plt>
 804ddf5:	83 c4 10             	add    $0x10,%esp
 804ddf8:	eb 37                	jmp    804de31 <yyparse+0x291d>
 804ddfa:	83 ec 0c             	sub    $0xc,%esp
 804ddfd:	68 2e 1d 05 08       	push   $0x8051d2e
 804de02:	e8 79 a9 ff ff       	call   8048780 <puts@plt>
 804de07:	83 c4 10             	add    $0x10,%esp
 804de0a:	eb 25                	jmp    804de31 <yyparse+0x291d>
 804de0c:	83 ec 0c             	sub    $0xc,%esp
 804de0f:	68 44 1d 05 08       	push   $0x8051d44
 804de14:	e8 67 a9 ff ff       	call   8048780 <puts@plt>
 804de19:	83 c4 10             	add    $0x10,%esp
 804de1c:	eb 13                	jmp    804de31 <yyparse+0x291d>
 804de1e:	83 ec 0c             	sub    $0xc,%esp
 804de21:	68 5a 1d 05 08       	push   $0x8051d5a
 804de26:	e8 55 a9 ff ff       	call   8048780 <puts@plt>
 804de2b:	83 c4 10             	add    $0x10,%esp
 804de2e:	eb 01                	jmp    804de31 <yyparse+0x291d>
 804de30:	90                   	nop
 804de31:	8b 85 04 ed ff ff    	mov    -0x12fc(%ebp),%eax
 804de37:	c1 e0 02             	shl    $0x2,%eax
 804de3a:	f7 d8                	neg    %eax
 804de3c:	01 85 e8 ec ff ff    	add    %eax,-0x1318(%ebp)
 804de42:	8b 85 04 ed ff ff    	mov    -0x12fc(%ebp),%eax
 804de48:	01 c0                	add    %eax,%eax
 804de4a:	f7 d8                	neg    %eax
 804de4c:	01 85 e0 ec ff ff    	add    %eax,-0x1320(%ebp)
 804de52:	8b 85 04 ed ff ff    	mov    -0x12fc(%ebp),%eax
 804de58:	c1 e0 04             	shl    $0x4,%eax
 804de5b:	f7 d8                	neg    %eax
 804de5d:	01 85 f0 ec ff ff    	add    %eax,-0x1310(%ebp)
 804de63:	c7 85 04 ed ff ff 00 	movl   $0x0,-0x12fc(%ebp)
 804de6a:	00 00 00 
 804de6d:	83 85 e8 ec ff ff 04 	addl   $0x4,-0x1318(%ebp)
 804de74:	8b 85 e8 ec ff ff    	mov    -0x1318(%ebp),%eax
 804de7a:	8b 95 c8 ec ff ff    	mov    -0x1338(%ebp),%edx
 804de80:	89 10                	mov    %edx,(%eax)
 804de82:	83 85 f0 ec ff ff 10 	addl   $0x10,-0x1310(%ebp)
 804de89:	8b 85 f0 ec ff ff    	mov    -0x1310(%ebp),%eax
 804de8f:	8b 95 04 ee ff ff    	mov    -0x11fc(%ebp),%edx
 804de95:	89 10                	mov    %edx,(%eax)
 804de97:	8b 95 08 ee ff ff    	mov    -0x11f8(%ebp),%edx
 804de9d:	89 50 04             	mov    %edx,0x4(%eax)
 804dea0:	8b 95 0c ee ff ff    	mov    -0x11f4(%ebp),%edx
 804dea6:	89 50 08             	mov    %edx,0x8(%eax)
 804dea9:	8b 95 10 ee ff ff    	mov    -0x11f0(%ebp),%edx
 804deaf:	89 50 0c             	mov    %edx,0xc(%eax)
 804deb2:	8b 85 f8 ec ff ff    	mov    -0x1308(%ebp),%eax
 804deb8:	05 c0 1a 05 08       	add    $0x8051ac0,%eax
 804debd:	0f b6 00             	movzbl (%eax),%eax
 804dec0:	0f b6 c0             	movzbl %al,%eax
 804dec3:	89 85 f8 ec ff ff    	mov    %eax,-0x1308(%ebp)
 804dec9:	8b 85 f8 ec ff ff    	mov    -0x1308(%ebp),%eax
 804decf:	83 e8 1e             	sub    $0x1e,%eax
 804ded2:	0f b7 84 00 40 14 05 	movzwl 0x8051440(%eax,%eax,1),%eax
 804ded9:	08 
 804deda:	0f bf d0             	movswl %ax,%edx
 804dedd:	8b 85 e0 ec ff ff    	mov    -0x1320(%ebp),%eax
 804dee3:	0f b7 00             	movzwl (%eax),%eax
 804dee6:	98                   	cwtl   
 804dee7:	01 d0                	add    %edx,%eax
 804dee9:	89 85 d4 ec ff ff    	mov    %eax,-0x132c(%ebp)
 804deef:	83 bd d4 ec ff ff 00 	cmpl   $0x0,-0x132c(%ebp)
 804def6:	78 42                	js     804df3a <yyparse+0x2a26>
 804def8:	81 bd d4 ec ff ff 55 	cmpl   $0x155,-0x132c(%ebp)
 804deff:	01 00 00 
 804df02:	7f 36                	jg     804df3a <yyparse+0x2a26>
 804df04:	8b 85 d4 ec ff ff    	mov    -0x132c(%ebp),%eax
 804df0a:	0f b7 94 00 60 17 05 	movzwl 0x8051760(%eax,%eax,1),%edx
 804df11:	08 
 804df12:	8b 85 e0 ec ff ff    	mov    -0x1320(%ebp),%eax
 804df18:	0f b7 00             	movzwl (%eax),%eax
 804df1b:	66 39 c2             	cmp    %ax,%dx
 804df1e:	75 1a                	jne    804df3a <yyparse+0x2a26>
 804df20:	8b 85 d4 ec ff ff    	mov    -0x132c(%ebp),%eax
 804df26:	0f b7 84 00 a0 14 05 	movzwl 0x80514a0(%eax,%eax,1),%eax
 804df2d:	08 
 804df2e:	98                   	cwtl   
 804df2f:	89 85 d4 ec ff ff    	mov    %eax,-0x132c(%ebp)
 804df35:	e9 bd d6 ff ff       	jmp    804b5f7 <yyparse+0xe3>
 804df3a:	8b 85 f8 ec ff ff    	mov    -0x1308(%ebp),%eax
 804df40:	83 e8 1e             	sub    $0x1e,%eax
 804df43:	0f b6 80 6c 14 05 08 	movzbl 0x805146c(%eax),%eax
 804df4a:	0f be c0             	movsbl %al,%eax
 804df4d:	89 85 d4 ec ff ff    	mov    %eax,-0x132c(%ebp)
 804df53:	e9 9f d6 ff ff       	jmp    804b5f7 <yyparse+0xe3>
 804df58:	90                   	nop
 804df59:	a1 40 51 05 08       	mov    0x8055140,%eax
 804df5e:	83 f8 fe             	cmp    $0xfffffffe,%eax
 804df61:	74 24                	je     804df87 <yyparse+0x2a73>
 804df63:	a1 40 51 05 08       	mov    0x8055140,%eax
 804df68:	3d 1c 01 00 00       	cmp    $0x11c,%eax
 804df6d:	77 11                	ja     804df80 <yyparse+0x2a6c>
 804df6f:	a1 40 51 05 08       	mov    0x8055140,%eax
 804df74:	0f b6 80 c0 0f 05 08 	movzbl 0x8050fc0(%eax),%eax
 804df7b:	0f b6 c0             	movzbl %al,%eax
 804df7e:	eb 0c                	jmp    804df8c <yyparse+0x2a78>
 804df80:	b8 02 00 00 00       	mov    $0x2,%eax
 804df85:	eb 05                	jmp    804df8c <yyparse+0x2a78>
 804df87:	b8 fe ff ff ff       	mov    $0xfffffffe,%eax
 804df8c:	89 85 00 ed ff ff    	mov    %eax,-0x1300(%ebp)
 804df92:	83 bd d8 ec ff ff 00 	cmpl   $0x0,-0x1328(%ebp)
 804df99:	0f 85 1e 01 00 00    	jne    804e0bd <yyparse+0x2ba9>
 804df9f:	a1 34 51 05 08       	mov    0x8055134,%eax
 804dfa4:	83 c0 01             	add    $0x1,%eax
 804dfa7:	a3 34 51 05 08       	mov    %eax,0x8055134
 804dfac:	c7 85 08 ed ff ff 68 	movl   $0x8051b68,-0x12f8(%ebp)
 804dfb3:	1b 05 08 
 804dfb6:	ff b5 00 ed ff ff    	pushl  -0x1300(%ebp)
 804dfbc:	ff b5 e0 ec ff ff    	pushl  -0x1320(%ebp)
 804dfc2:	8d 85 cc ec ff ff    	lea    -0x1334(%ebp),%eax
 804dfc8:	50                   	push   %eax
 804dfc9:	8d 85 d0 ec ff ff    	lea    -0x1330(%ebp),%eax
 804dfcf:	50                   	push   %eax
 804dfd0:	e8 9c d2 ff ff       	call   804b271 <yysyntax_error>
 804dfd5:	83 c4 10             	add    $0x10,%esp
 804dfd8:	89 85 0c ed ff ff    	mov    %eax,-0x12f4(%ebp)
 804dfde:	83 bd 0c ed ff ff 00 	cmpl   $0x0,-0x12f4(%ebp)
 804dfe5:	75 11                	jne    804dff8 <yyparse+0x2ae4>
 804dfe7:	8b 85 cc ec ff ff    	mov    -0x1334(%ebp),%eax
 804dfed:	89 85 08 ed ff ff    	mov    %eax,-0x12f8(%ebp)
 804dff3:	e9 a7 00 00 00       	jmp    804e09f <yyparse+0x2b8b>
 804dff8:	83 bd 0c ed ff ff 01 	cmpl   $0x1,-0x12f4(%ebp)
 804dfff:	0f 85 9a 00 00 00    	jne    804e09f <yyparse+0x2b8b>
 804e005:	8b 95 cc ec ff ff    	mov    -0x1334(%ebp),%edx
 804e00b:	8d 85 74 ff ff ff    	lea    -0x8c(%ebp),%eax
 804e011:	39 c2                	cmp    %eax,%edx
 804e013:	74 12                	je     804e027 <yyparse+0x2b13>
 804e015:	8b 85 cc ec ff ff    	mov    -0x1334(%ebp),%eax
 804e01b:	83 ec 0c             	sub    $0xc,%esp
 804e01e:	50                   	push   %eax
 804e01f:	e8 ac a6 ff ff       	call   80486d0 <free@plt>
 804e024:	83 c4 10             	add    $0x10,%esp
 804e027:	8b 85 d0 ec ff ff    	mov    -0x1330(%ebp),%eax
 804e02d:	83 ec 0c             	sub    $0xc,%esp
 804e030:	50                   	push   %eax
 804e031:	e8 3a a7 ff ff       	call   8048770 <malloc@plt>
 804e036:	83 c4 10             	add    $0x10,%esp
 804e039:	89 85 cc ec ff ff    	mov    %eax,-0x1334(%ebp)
 804e03f:	8b 85 cc ec ff ff    	mov    -0x1334(%ebp),%eax
 804e045:	85 c0                	test   %eax,%eax
 804e047:	75 22                	jne    804e06b <yyparse+0x2b57>
 804e049:	8d 85 74 ff ff ff    	lea    -0x8c(%ebp),%eax
 804e04f:	89 85 cc ec ff ff    	mov    %eax,-0x1334(%ebp)
 804e055:	c7 85 d0 ec ff ff 80 	movl   $0x80,-0x1330(%ebp)
 804e05c:	00 00 00 
 804e05f:	c7 85 0c ed ff ff 02 	movl   $0x2,-0x12f4(%ebp)
 804e066:	00 00 00 
 804e069:	eb 34                	jmp    804e09f <yyparse+0x2b8b>
 804e06b:	ff b5 00 ed ff ff    	pushl  -0x1300(%ebp)
 804e071:	ff b5 e0 ec ff ff    	pushl  -0x1320(%ebp)
 804e077:	8d 85 cc ec ff ff    	lea    -0x1334(%ebp),%eax
 804e07d:	50                   	push   %eax
 804e07e:	8d 85 d0 ec ff ff    	lea    -0x1330(%ebp),%eax
 804e084:	50                   	push   %eax
 804e085:	e8 e7 d1 ff ff       	call   804b271 <yysyntax_error>
 804e08a:	83 c4 10             	add    $0x10,%esp
 804e08d:	89 85 0c ed ff ff    	mov    %eax,-0x12f4(%ebp)
 804e093:	8b 85 cc ec ff ff    	mov    -0x1334(%ebp),%eax
 804e099:	89 85 08 ed ff ff    	mov    %eax,-0x12f8(%ebp)
 804e09f:	83 ec 0c             	sub    $0xc,%esp
 804e0a2:	ff b5 08 ed ff ff    	pushl  -0x12f8(%ebp)
 804e0a8:	e8 9c d0 ff ff       	call   804b149 <yyerror>
 804e0ad:	83 c4 10             	add    $0x10,%esp
 804e0b0:	83 bd 0c ed ff ff 02 	cmpl   $0x2,-0x12f4(%ebp)
 804e0b7:	0f 84 54 02 00 00    	je     804e311 <yyparse+0x2dfd>
 804e0bd:	a1 84 50 05 08       	mov    0x8055084,%eax
 804e0c2:	89 85 24 ee ff ff    	mov    %eax,-0x11dc(%ebp)
 804e0c8:	a1 88 50 05 08       	mov    0x8055088,%eax
 804e0cd:	89 85 28 ee ff ff    	mov    %eax,-0x11d8(%ebp)
 804e0d3:	a1 8c 50 05 08       	mov    0x805508c,%eax
 804e0d8:	89 85 2c ee ff ff    	mov    %eax,-0x11d4(%ebp)
 804e0de:	a1 90 50 05 08       	mov    0x8055090,%eax
 804e0e3:	89 85 30 ee ff ff    	mov    %eax,-0x11d0(%ebp)
 804e0e9:	83 bd d8 ec ff ff 03 	cmpl   $0x3,-0x1328(%ebp)
 804e0f0:	75 3e                	jne    804e130 <yyparse+0x2c1c>
 804e0f2:	a1 40 51 05 08       	mov    0x8055140,%eax
 804e0f7:	85 c0                	test   %eax,%eax
 804e0f9:	7f 0e                	jg     804e109 <yyparse+0x2bf5>
 804e0fb:	a1 40 51 05 08       	mov    0x8055140,%eax
 804e100:	85 c0                	test   %eax,%eax
 804e102:	75 2c                	jne    804e130 <yyparse+0x2c1c>
 804e104:	e9 f6 01 00 00       	jmp    804e2ff <yyparse+0x2deb>
 804e109:	68 84 50 05 08       	push   $0x8055084
 804e10e:	68 4c 51 05 08       	push   $0x805514c
 804e113:	ff b5 00 ed ff ff    	pushl  -0x1300(%ebp)
 804e119:	68 70 1d 05 08       	push   $0x8051d70
 804e11e:	e8 de d3 ff ff       	call   804b501 <yydestruct>
 804e123:	83 c4 10             	add    $0x10,%esp
 804e126:	c7 05 40 51 05 08 fe 	movl   $0xfffffffe,0x8055140
 804e12d:	ff ff ff 
 804e130:	90                   	nop
 804e131:	c7 85 d8 ec ff ff 03 	movl   $0x3,-0x1328(%ebp)
 804e138:	00 00 00 
 804e13b:	8b 85 d4 ec ff ff    	mov    -0x132c(%ebp),%eax
 804e141:	0f b7 84 00 80 12 05 	movzwl 0x8051280(%eax,%eax,1),%eax
 804e148:	08 
 804e149:	98                   	cwtl   
 804e14a:	89 85 f8 ec ff ff    	mov    %eax,-0x1308(%ebp)
 804e150:	83 bd f8 ec ff ff c1 	cmpl   $0xffffffc1,-0x1308(%ebp)
 804e157:	74 52                	je     804e1ab <yyparse+0x2c97>
 804e159:	83 85 f8 ec ff ff 01 	addl   $0x1,-0x1308(%ebp)
 804e160:	83 bd f8 ec ff ff 00 	cmpl   $0x0,-0x1308(%ebp)
 804e167:	78 42                	js     804e1ab <yyparse+0x2c97>
 804e169:	81 bd f8 ec ff ff 55 	cmpl   $0x155,-0x1308(%ebp)
 804e170:	01 00 00 
 804e173:	7f 36                	jg     804e1ab <yyparse+0x2c97>
 804e175:	8b 85 f8 ec ff ff    	mov    -0x1308(%ebp),%eax
 804e17b:	0f b7 84 00 60 17 05 	movzwl 0x8051760(%eax,%eax,1),%eax
 804e182:	08 
 804e183:	66 83 f8 01          	cmp    $0x1,%ax
 804e187:	75 22                	jne    804e1ab <yyparse+0x2c97>
 804e189:	8b 85 f8 ec ff ff    	mov    -0x1308(%ebp),%eax
 804e18f:	0f b7 84 00 a0 14 05 	movzwl 0x80514a0(%eax,%eax,1),%eax
 804e196:	08 
 804e197:	98                   	cwtl   
 804e198:	89 85 f8 ec ff ff    	mov    %eax,-0x1308(%ebp)
 804e19e:	83 bd f8 ec ff ff 00 	cmpl   $0x0,-0x1308(%ebp)
 804e1a5:	0f 8f 90 00 00 00    	jg     804e23b <yyparse+0x2d27>
 804e1ab:	8b 85 e0 ec ff ff    	mov    -0x1320(%ebp),%eax
 804e1b1:	3b 85 dc ec ff ff    	cmp    -0x1324(%ebp),%eax
 804e1b7:	0f 84 41 01 00 00    	je     804e2fe <yyparse+0x2dea>
 804e1bd:	8b 85 f0 ec ff ff    	mov    -0x1310(%ebp),%eax
 804e1c3:	8b 10                	mov    (%eax),%edx
 804e1c5:	89 95 24 ee ff ff    	mov    %edx,-0x11dc(%ebp)
 804e1cb:	8b 50 04             	mov    0x4(%eax),%edx
 804e1ce:	89 95 28 ee ff ff    	mov    %edx,-0x11d8(%ebp)
 804e1d4:	8b 50 08             	mov    0x8(%eax),%edx
 804e1d7:	89 95 2c ee ff ff    	mov    %edx,-0x11d4(%ebp)
 804e1dd:	8b 40 0c             	mov    0xc(%eax),%eax
 804e1e0:	89 85 30 ee ff ff    	mov    %eax,-0x11d0(%ebp)
 804e1e6:	8b 85 d4 ec ff ff    	mov    -0x132c(%ebp),%eax
 804e1ec:	05 20 1a 05 08       	add    $0x8051a20,%eax
 804e1f1:	0f b6 00             	movzbl (%eax),%eax
 804e1f4:	0f b6 c0             	movzbl %al,%eax
 804e1f7:	ff b5 f0 ec ff ff    	pushl  -0x1310(%ebp)
 804e1fd:	ff b5 e8 ec ff ff    	pushl  -0x1318(%ebp)
 804e203:	50                   	push   %eax
 804e204:	68 82 1d 05 08       	push   $0x8051d82
 804e209:	e8 f3 d2 ff ff       	call   804b501 <yydestruct>
 804e20e:	83 c4 10             	add    $0x10,%esp
 804e211:	83 ad e8 ec ff ff 04 	subl   $0x4,-0x1318(%ebp)
 804e218:	83 ad e0 ec ff ff 02 	subl   $0x2,-0x1320(%ebp)
 804e21f:	83 ad f0 ec ff ff 10 	subl   $0x10,-0x1310(%ebp)
 804e226:	8b 85 e0 ec ff ff    	mov    -0x1320(%ebp),%eax
 804e22c:	0f b7 00             	movzwl (%eax),%eax
 804e22f:	98                   	cwtl   
 804e230:	89 85 d4 ec ff ff    	mov    %eax,-0x132c(%ebp)
 804e236:	e9 00 ff ff ff       	jmp    804e13b <yyparse+0x2c27>
 804e23b:	90                   	nop
 804e23c:	83 85 e8 ec ff ff 04 	addl   $0x4,-0x1318(%ebp)
 804e243:	8b 85 e8 ec ff ff    	mov    -0x1318(%ebp),%eax
 804e249:	8b 15 4c 51 05 08    	mov    0x805514c,%edx
 804e24f:	89 10                	mov    %edx,(%eax)
 804e251:	a1 84 50 05 08       	mov    0x8055084,%eax
 804e256:	89 85 34 ee ff ff    	mov    %eax,-0x11cc(%ebp)
 804e25c:	a1 88 50 05 08       	mov    0x8055088,%eax
 804e261:	89 85 38 ee ff ff    	mov    %eax,-0x11c8(%ebp)
 804e267:	a1 8c 50 05 08       	mov    0x805508c,%eax
 804e26c:	89 85 3c ee ff ff    	mov    %eax,-0x11c4(%ebp)
 804e272:	a1 90 50 05 08       	mov    0x8055090,%eax
 804e277:	89 85 40 ee ff ff    	mov    %eax,-0x11c0(%ebp)
 804e27d:	8b 85 24 ee ff ff    	mov    -0x11dc(%ebp),%eax
 804e283:	89 85 04 ee ff ff    	mov    %eax,-0x11fc(%ebp)
 804e289:	8b 85 28 ee ff ff    	mov    -0x11d8(%ebp),%eax
 804e28f:	89 85 08 ee ff ff    	mov    %eax,-0x11f8(%ebp)
 804e295:	8b 85 3c ee ff ff    	mov    -0x11c4(%ebp),%eax
 804e29b:	89 85 0c ee ff ff    	mov    %eax,-0x11f4(%ebp)
 804e2a1:	8b 85 40 ee ff ff    	mov    -0x11c0(%ebp),%eax
 804e2a7:	89 85 10 ee ff ff    	mov    %eax,-0x11f0(%ebp)
 804e2ad:	83 85 f0 ec ff ff 10 	addl   $0x10,-0x1310(%ebp)
 804e2b4:	8b 85 f0 ec ff ff    	mov    -0x1310(%ebp),%eax
 804e2ba:	8b 95 04 ee ff ff    	mov    -0x11fc(%ebp),%edx
 804e2c0:	89 10                	mov    %edx,(%eax)
 804e2c2:	8b 95 08 ee ff ff    	mov    -0x11f8(%ebp),%edx
 804e2c8:	89 50 04             	mov    %edx,0x4(%eax)
 804e2cb:	8b 95 0c ee ff ff    	mov    -0x11f4(%ebp),%edx
 804e2d1:	89 50 08             	mov    %edx,0x8(%eax)
 804e2d4:	8b 95 10 ee ff ff    	mov    -0x11f0(%ebp),%edx
 804e2da:	89 50 0c             	mov    %edx,0xc(%eax)
 804e2dd:	8b 85 f8 ec ff ff    	mov    -0x1308(%ebp),%eax
 804e2e3:	89 85 d4 ec ff ff    	mov    %eax,-0x132c(%ebp)
 804e2e9:	e9 09 d3 ff ff       	jmp    804b5f7 <yyparse+0xe3>
 804e2ee:	90                   	nop
 804e2ef:	c7 85 fc ec ff ff 00 	movl   $0x0,-0x1304(%ebp)
 804e2f6:	00 00 00 
 804e2f9:	eb 31                	jmp    804e32c <yyparse+0x2e18>
 804e2fb:	90                   	nop
 804e2fc:	eb 01                	jmp    804e2ff <yyparse+0x2deb>
 804e2fe:	90                   	nop
 804e2ff:	c7 85 fc ec ff ff 01 	movl   $0x1,-0x1304(%ebp)
 804e306:	00 00 00 
 804e309:	eb 21                	jmp    804e32c <yyparse+0x2e18>
 804e30b:	90                   	nop
 804e30c:	eb 04                	jmp    804e312 <yyparse+0x2dfe>
 804e30e:	90                   	nop
 804e30f:	eb 01                	jmp    804e312 <yyparse+0x2dfe>
 804e311:	90                   	nop
 804e312:	83 ec 0c             	sub    $0xc,%esp
 804e315:	68 91 1d 05 08       	push   $0x8051d91
 804e31a:	e8 2a ce ff ff       	call   804b149 <yyerror>
 804e31f:	83 c4 10             	add    $0x10,%esp
 804e322:	c7 85 fc ec ff ff 02 	movl   $0x2,-0x1304(%ebp)
 804e329:	00 00 00 
 804e32c:	a1 40 51 05 08       	mov    0x8055140,%eax
 804e331:	83 f8 fe             	cmp    $0xfffffffe,%eax
 804e334:	74 45                	je     804e37b <yyparse+0x2e67>
 804e336:	a1 40 51 05 08       	mov    0x8055140,%eax
 804e33b:	3d 1c 01 00 00       	cmp    $0x11c,%eax
 804e340:	77 11                	ja     804e353 <yyparse+0x2e3f>
 804e342:	a1 40 51 05 08       	mov    0x8055140,%eax
 804e347:	0f b6 80 c0 0f 05 08 	movzbl 0x8050fc0(%eax),%eax
 804e34e:	0f b6 c0             	movzbl %al,%eax
 804e351:	eb 05                	jmp    804e358 <yyparse+0x2e44>
 804e353:	b8 02 00 00 00       	mov    $0x2,%eax
 804e358:	89 85 00 ed ff ff    	mov    %eax,-0x1300(%ebp)
 804e35e:	68 84 50 05 08       	push   $0x8055084
 804e363:	68 4c 51 05 08       	push   $0x805514c
 804e368:	ff b5 00 ed ff ff    	pushl  -0x1300(%ebp)
 804e36e:	68 a2 1d 05 08       	push   $0x8051da2
 804e373:	e8 89 d1 ff ff       	call   804b501 <yydestruct>
 804e378:	83 c4 10             	add    $0x10,%esp
 804e37b:	8b 85 04 ed ff ff    	mov    -0x12fc(%ebp),%eax
 804e381:	c1 e0 02             	shl    $0x2,%eax
 804e384:	f7 d8                	neg    %eax
 804e386:	01 85 e8 ec ff ff    	add    %eax,-0x1318(%ebp)
 804e38c:	8b 85 04 ed ff ff    	mov    -0x12fc(%ebp),%eax
 804e392:	01 c0                	add    %eax,%eax
 804e394:	f7 d8                	neg    %eax
 804e396:	01 85 e0 ec ff ff    	add    %eax,-0x1320(%ebp)
 804e39c:	8b 85 04 ed ff ff    	mov    -0x12fc(%ebp),%eax
 804e3a2:	c1 e0 04             	shl    $0x4,%eax
 804e3a5:	f7 d8                	neg    %eax
 804e3a7:	01 85 f0 ec ff ff    	add    %eax,-0x1310(%ebp)
 804e3ad:	eb 43                	jmp    804e3f2 <yyparse+0x2ede>
 804e3af:	8b 85 e0 ec ff ff    	mov    -0x1320(%ebp),%eax
 804e3b5:	0f b7 00             	movzwl (%eax),%eax
 804e3b8:	98                   	cwtl   
 804e3b9:	0f b6 80 20 1a 05 08 	movzbl 0x8051a20(%eax),%eax
 804e3c0:	0f b6 c0             	movzbl %al,%eax
 804e3c3:	ff b5 f0 ec ff ff    	pushl  -0x1310(%ebp)
 804e3c9:	ff b5 e8 ec ff ff    	pushl  -0x1318(%ebp)
 804e3cf:	50                   	push   %eax
 804e3d0:	68 c0 1d 05 08       	push   $0x8051dc0
 804e3d5:	e8 27 d1 ff ff       	call   804b501 <yydestruct>
 804e3da:	83 c4 10             	add    $0x10,%esp
 804e3dd:	83 ad e8 ec ff ff 04 	subl   $0x4,-0x1318(%ebp)
 804e3e4:	83 ad e0 ec ff ff 02 	subl   $0x2,-0x1320(%ebp)
 804e3eb:	83 ad f0 ec ff ff 10 	subl   $0x10,-0x1310(%ebp)
 804e3f2:	8b 85 e0 ec ff ff    	mov    -0x1320(%ebp),%eax
 804e3f8:	3b 85 dc ec ff ff    	cmp    -0x1324(%ebp),%eax
 804e3fe:	75 af                	jne    804e3af <yyparse+0x2e9b>
 804e400:	8d 85 44 ee ff ff    	lea    -0x11bc(%ebp),%eax
 804e406:	39 85 dc ec ff ff    	cmp    %eax,-0x1324(%ebp)
 804e40c:	74 11                	je     804e41f <yyparse+0x2f0b>
 804e40e:	83 ec 0c             	sub    $0xc,%esp
 804e411:	ff b5 dc ec ff ff    	pushl  -0x1324(%ebp)
 804e417:	e8 b4 a2 ff ff       	call   80486d0 <free@plt>
 804e41c:	83 c4 10             	add    $0x10,%esp
 804e41f:	8b 95 cc ec ff ff    	mov    -0x1334(%ebp),%edx
 804e425:	8d 85 74 ff ff ff    	lea    -0x8c(%ebp),%eax
 804e42b:	39 c2                	cmp    %eax,%edx
 804e42d:	74 12                	je     804e441 <yyparse+0x2f2d>
 804e42f:	8b 85 cc ec ff ff    	mov    -0x1334(%ebp),%eax
 804e435:	83 ec 0c             	sub    $0xc,%esp
 804e438:	50                   	push   %eax
 804e439:	e8 92 a2 ff ff       	call   80486d0 <free@plt>
 804e43e:	83 c4 10             	add    $0x10,%esp
 804e441:	8b 85 fc ec ff ff    	mov    -0x1304(%ebp),%eax
 804e447:	8b 4d f4             	mov    -0xc(%ebp),%ecx
 804e44a:	65 33 0d 14 00 00 00 	xor    %gs:0x14,%ecx
 804e451:	74 05                	je     804e458 <yyparse+0x2f44>
 804e453:	e8 a8 a2 ff ff       	call   8048700 <__stack_chk_fail@plt>
 804e458:	c9                   	leave  
 804e459:	c3                   	ret    

0804e45a <Syntax_Leaf_New>:
 804e45a:	55                   	push   %ebp
 804e45b:	89 e5                	mov    %esp,%ebp
 804e45d:	83 ec 18             	sub    $0x18,%esp
 804e460:	83 ec 0c             	sub    $0xc,%esp
 804e463:	6a 50                	push   $0x50
 804e465:	e8 06 a3 ff ff       	call   8048770 <malloc@plt>
 804e46a:	83 c4 10             	add    $0x10,%esp
 804e46d:	89 45 f4             	mov    %eax,-0xc(%ebp)
 804e470:	83 ec 04             	sub    $0x4,%esp
 804e473:	6a 50                	push   $0x50
 804e475:	6a 00                	push   $0x0
 804e477:	ff 75 f4             	pushl  -0xc(%ebp)
 804e47a:	e8 61 a3 ff ff       	call   80487e0 <memset@plt>
 804e47f:	83 c4 10             	add    $0x10,%esp
 804e482:	8b 45 f4             	mov    -0xc(%ebp),%eax
 804e485:	8b 55 08             	mov    0x8(%ebp),%edx
 804e488:	89 10                	mov    %edx,(%eax)
 804e48a:	8b 45 f4             	mov    -0xc(%ebp),%eax
 804e48d:	8b 55 0c             	mov    0xc(%ebp),%edx
 804e490:	89 50 04             	mov    %edx,0x4(%eax)
 804e493:	8b 45 f4             	mov    -0xc(%ebp),%eax
 804e496:	8b 55 10             	mov    0x10(%ebp),%edx
 804e499:	89 50 08             	mov    %edx,0x8(%eax)
 804e49c:	8b 45 f4             	mov    -0xc(%ebp),%eax
 804e49f:	c9                   	leave  
 804e4a0:	c3                   	ret    

0804e4a1 <Syntax_Tree_Print>:
 804e4a1:	55                   	push   %ebp
 804e4a2:	89 e5                	mov    %esp,%ebp
 804e4a4:	83 ec 18             	sub    $0x18,%esp
 804e4a7:	83 7d 08 00          	cmpl   $0x0,0x8(%ebp)
 804e4ab:	0f 84 11 01 00 00    	je     804e5c2 <Syntax_Tree_Print+0x121>
 804e4b1:	c7 45 f0 00 00 00 00 	movl   $0x0,-0x10(%ebp)
 804e4b8:	c7 45 f4 00 00 00 00 	movl   $0x0,-0xc(%ebp)
 804e4bf:	eb 14                	jmp    804e4d5 <Syntax_Tree_Print+0x34>
 804e4c1:	83 ec 0c             	sub    $0xc,%esp
 804e4c4:	68 f4 1e 05 08       	push   $0x8051ef4
 804e4c9:	e8 f2 a1 ff ff       	call   80486c0 <printf@plt>
 804e4ce:	83 c4 10             	add    $0x10,%esp
 804e4d1:	83 45 f4 01          	addl   $0x1,-0xc(%ebp)
 804e4d5:	a1 24 51 05 08       	mov    0x8055124,%eax
 804e4da:	39 45 f4             	cmp    %eax,-0xc(%ebp)
 804e4dd:	7c e2                	jl     804e4c1 <Syntax_Tree_Print+0x20>
 804e4df:	8b 45 08             	mov    0x8(%ebp),%eax
 804e4e2:	8b 40 08             	mov    0x8(%eax),%eax
 804e4e5:	83 f8 02             	cmp    $0x2,%eax
 804e4e8:	74 21                	je     804e50b <Syntax_Tree_Print+0x6a>
 804e4ea:	8b 45 08             	mov    0x8(%ebp),%eax
 804e4ed:	8b 40 08             	mov    0x8(%eax),%eax
 804e4f0:	83 f8 03             	cmp    $0x3,%eax
 804e4f3:	74 16                	je     804e50b <Syntax_Tree_Print+0x6a>
 804e4f5:	8b 45 08             	mov    0x8(%ebp),%eax
 804e4f8:	8b 40 08             	mov    0x8(%eax),%eax
 804e4fb:	83 f8 04             	cmp    $0x4,%eax
 804e4fe:	74 0b                	je     804e50b <Syntax_Tree_Print+0x6a>
 804e500:	8b 45 08             	mov    0x8(%ebp),%eax
 804e503:	8b 40 08             	mov    0x8(%eax),%eax
 804e506:	83 f8 05             	cmp    $0x5,%eax
 804e509:	75 1f                	jne    804e52a <Syntax_Tree_Print+0x89>
 804e50b:	8b 45 08             	mov    0x8(%ebp),%eax
 804e50e:	8d 50 30             	lea    0x30(%eax),%edx
 804e511:	8b 45 08             	mov    0x8(%ebp),%eax
 804e514:	8b 00                	mov    (%eax),%eax
 804e516:	83 ec 04             	sub    $0x4,%esp
 804e519:	52                   	push   %edx
 804e51a:	50                   	push   %eax
 804e51b:	68 f7 1e 05 08       	push   $0x8051ef7
 804e520:	e8 9b a1 ff ff       	call   80486c0 <printf@plt>
 804e525:	83 c4 10             	add    $0x10,%esp
 804e528:	eb 3b                	jmp    804e565 <Syntax_Tree_Print+0xc4>
 804e52a:	8b 45 08             	mov    0x8(%ebp),%eax
 804e52d:	8b 40 08             	mov    0x8(%eax),%eax
 804e530:	83 f8 01             	cmp    $0x1,%eax
 804e533:	75 13                	jne    804e548 <Syntax_Tree_Print+0xa7>
 804e535:	8b 45 08             	mov    0x8(%ebp),%eax
 804e538:	8b 00                	mov    (%eax),%eax
 804e53a:	83 ec 0c             	sub    $0xc,%esp
 804e53d:	50                   	push   %eax
 804e53e:	e8 3d a2 ff ff       	call   8048780 <puts@plt>
 804e543:	83 c4 10             	add    $0x10,%esp
 804e546:	eb 1d                	jmp    804e565 <Syntax_Tree_Print+0xc4>
 804e548:	8b 45 08             	mov    0x8(%ebp),%eax
 804e54b:	8b 50 04             	mov    0x4(%eax),%edx
 804e54e:	8b 45 08             	mov    0x8(%ebp),%eax
 804e551:	8b 00                	mov    (%eax),%eax
 804e553:	83 ec 04             	sub    $0x4,%esp
 804e556:	52                   	push   %edx
 804e557:	50                   	push   %eax
 804e558:	68 ff 1e 05 08       	push   $0x8051eff
 804e55d:	e8 5e a1 ff ff       	call   80486c0 <printf@plt>
 804e562:	83 c4 10             	add    $0x10,%esp
 804e565:	a1 24 51 05 08       	mov    0x8055124,%eax
 804e56a:	83 c0 01             	add    $0x1,%eax
 804e56d:	a3 24 51 05 08       	mov    %eax,0x8055124
 804e572:	eb 34                	jmp    804e5a8 <Syntax_Tree_Print+0x107>
 804e574:	8b 45 08             	mov    0x8(%ebp),%eax
 804e577:	8b 55 f0             	mov    -0x10(%ebp),%edx
 804e57a:	83 c2 04             	add    $0x4,%edx
 804e57d:	8b 04 90             	mov    (%eax,%edx,4),%eax
 804e580:	85 c0                	test   %eax,%eax
 804e582:	75 06                	jne    804e58a <Syntax_Tree_Print+0xe9>
 804e584:	83 45 f0 01          	addl   $0x1,-0x10(%ebp)
 804e588:	eb 1e                	jmp    804e5a8 <Syntax_Tree_Print+0x107>
 804e58a:	8b 45 f0             	mov    -0x10(%ebp),%eax
 804e58d:	8d 50 01             	lea    0x1(%eax),%edx
 804e590:	89 55 f0             	mov    %edx,-0x10(%ebp)
 804e593:	8b 55 08             	mov    0x8(%ebp),%edx
 804e596:	83 c0 04             	add    $0x4,%eax
 804e599:	8b 04 82             	mov    (%edx,%eax,4),%eax
 804e59c:	83 ec 0c             	sub    $0xc,%esp
 804e59f:	50                   	push   %eax
 804e5a0:	e8 fc fe ff ff       	call   804e4a1 <Syntax_Tree_Print>
 804e5a5:	83 c4 10             	add    $0x10,%esp
 804e5a8:	8b 45 08             	mov    0x8(%ebp),%eax
 804e5ab:	8b 40 0c             	mov    0xc(%eax),%eax
 804e5ae:	3b 45 f0             	cmp    -0x10(%ebp),%eax
 804e5b1:	7f c1                	jg     804e574 <Syntax_Tree_Print+0xd3>
 804e5b3:	a1 24 51 05 08       	mov    0x8055124,%eax
 804e5b8:	83 e8 01             	sub    $0x1,%eax
 804e5bb:	a3 24 51 05 08       	mov    %eax,0x8055124
 804e5c0:	eb 01                	jmp    804e5c3 <Syntax_Tree_Print+0x122>
 804e5c2:	90                   	nop
 804e5c3:	c9                   	leave  
 804e5c4:	c3                   	ret    

0804e5c5 <Syntax_Tree_Free>:
 804e5c5:	55                   	push   %ebp
 804e5c6:	89 e5                	mov    %esp,%ebp
 804e5c8:	83 ec 18             	sub    $0x18,%esp
 804e5cb:	c7 45 f4 00 00 00 00 	movl   $0x0,-0xc(%ebp)
 804e5d2:	eb 1e                	jmp    804e5f2 <Syntax_Tree_Free+0x2d>
 804e5d4:	8b 45 f4             	mov    -0xc(%ebp),%eax
 804e5d7:	8d 50 01             	lea    0x1(%eax),%edx
 804e5da:	89 55 f4             	mov    %edx,-0xc(%ebp)
 804e5dd:	8b 55 08             	mov    0x8(%ebp),%edx
 804e5e0:	83 c0 04             	add    $0x4,%eax
 804e5e3:	8b 04 82             	mov    (%edx,%eax,4),%eax
 804e5e6:	83 ec 0c             	sub    $0xc,%esp
 804e5e9:	50                   	push   %eax
 804e5ea:	e8 d6 ff ff ff       	call   804e5c5 <Syntax_Tree_Free>
 804e5ef:	83 c4 10             	add    $0x10,%esp
 804e5f2:	8b 45 08             	mov    0x8(%ebp),%eax
 804e5f5:	8b 55 f4             	mov    -0xc(%ebp),%edx
 804e5f8:	83 c2 04             	add    $0x4,%edx
 804e5fb:	8b 04 90             	mov    (%eax,%edx,4),%eax
 804e5fe:	85 c0                	test   %eax,%eax
 804e600:	75 d2                	jne    804e5d4 <Syntax_Tree_Free+0xf>
 804e602:	83 ec 0c             	sub    $0xc,%esp
 804e605:	ff 75 08             	pushl  0x8(%ebp)
 804e608:	e8 c3 a0 ff ff       	call   80486d0 <free@plt>
 804e60d:	83 c4 10             	add    $0x10,%esp
 804e610:	90                   	nop
 804e611:	c9                   	leave  
 804e612:	c3                   	ret    

0804e613 <main>:
 804e613:	8d 4c 24 04          	lea    0x4(%esp),%ecx
 804e617:	83 e4 f0             	and    $0xfffffff0,%esp
 804e61a:	ff 71 fc             	pushl  -0x4(%ecx)
 804e61d:	55                   	push   %ebp
 804e61e:	89 e5                	mov    %esp,%ebp
 804e620:	53                   	push   %ebx
 804e621:	51                   	push   %ecx
 804e622:	83 ec 10             	sub    $0x10,%esp
 804e625:	89 cb                	mov    %ecx,%ebx
 804e627:	83 3b 01             	cmpl   $0x1,(%ebx)
 804e62a:	7f 0a                	jg     804e636 <main+0x23>
 804e62c:	b8 01 00 00 00       	mov    $0x1,%eax
 804e631:	e9 a7 00 00 00       	jmp    804e6dd <main+0xca>
 804e636:	8b 43 04             	mov    0x4(%ebx),%eax
 804e639:	83 c0 04             	add    $0x4,%eax
 804e63c:	8b 00                	mov    (%eax),%eax
 804e63e:	83 ec 08             	sub    $0x8,%esp
 804e641:	68 08 1f 05 08       	push   $0x8051f08
 804e646:	50                   	push   %eax
 804e647:	e8 84 a1 ff ff       	call   80487d0 <fopen@plt>
 804e64c:	83 c4 10             	add    $0x10,%esp
 804e64f:	89 45 f0             	mov    %eax,-0x10(%ebp)
 804e652:	83 7d f0 00          	cmpl   $0x0,-0x10(%ebp)
 804e656:	75 1b                	jne    804e673 <main+0x60>
 804e658:	8b 43 04             	mov    0x4(%ebx),%eax
 804e65b:	83 c0 04             	add    $0x4,%eax
 804e65e:	8b 00                	mov    (%eax),%eax
 804e660:	83 ec 0c             	sub    $0xc,%esp
 804e663:	50                   	push   %eax
 804e664:	e8 b7 a0 ff ff       	call   8048720 <perror@plt>
 804e669:	83 c4 10             	add    $0x10,%esp
 804e66c:	b8 01 00 00 00       	mov    $0x1,%eax
 804e671:	eb 6a                	jmp    804e6dd <main+0xca>
 804e673:	83 ec 0c             	sub    $0xc,%esp
 804e676:	ff 75 f0             	pushl  -0x10(%ebp)
 804e679:	e8 ce c0 ff ff       	call   804a74c <yyrestart>
 804e67e:	83 c4 10             	add    $0x10,%esp
 804e681:	e8 8e ce ff ff       	call   804b514 <yyparse>
 804e686:	89 45 f4             	mov    %eax,-0xc(%ebp)
 804e689:	a1 38 51 05 08       	mov    0x8055138,%eax
 804e68e:	83 f8 01             	cmp    $0x1,%eax
 804e691:	74 45                	je     804e6d8 <main+0xc5>
 804e693:	a1 48 51 05 08       	mov    0x8055148,%eax
 804e698:	83 ec 0c             	sub    $0xc,%esp
 804e69b:	50                   	push   %eax
 804e69c:	e8 00 fe ff ff       	call   804e4a1 <Syntax_Tree_Print>
 804e6a1:	83 c4 10             	add    $0x10,%esp
 804e6a4:	a1 48 51 05 08       	mov    0x8055148,%eax
 804e6a9:	83 ec 0c             	sub    $0xc,%esp
 804e6ac:	50                   	push   %eax
 804e6ad:	e8 a6 04 00 00       	call   804eb58 <SymbolTable_Create>
 804e6b2:	83 c4 10             	add    $0x10,%esp
 804e6b5:	83 ec 08             	sub    $0x8,%esp
 804e6b8:	6a 01                	push   $0x1
 804e6ba:	68 60 51 05 08       	push   $0x8055160
 804e6bf:	e8 dc 03 00 00       	call   804eaa0 <SymbolTable_Print>
 804e6c4:	83 c4 10             	add    $0x10,%esp
 804e6c7:	a1 48 51 05 08       	mov    0x8055148,%eax
 804e6cc:	83 ec 0c             	sub    $0xc,%esp
 804e6cf:	50                   	push   %eax
 804e6d0:	e8 f0 fe ff ff       	call   804e5c5 <Syntax_Tree_Free>
 804e6d5:	83 c4 10             	add    $0x10,%esp
 804e6d8:	b8 00 00 00 00       	mov    $0x0,%eax
 804e6dd:	8d 65 f8             	lea    -0x8(%ebp),%esp
 804e6e0:	59                   	pop    %ecx
 804e6e1:	5b                   	pop    %ebx
 804e6e2:	5d                   	pop    %ebp
 804e6e3:	8d 61 fc             	lea    -0x4(%ecx),%esp
 804e6e6:	c3                   	ret    

0804e6e7 <hash_pjw>:
 804e6e7:	55                   	push   %ebp
 804e6e8:	89 e5                	mov    %esp,%ebp
 804e6ea:	83 ec 10             	sub    $0x10,%esp
 804e6ed:	c7 45 f8 00 00 00 00 	movl   $0x0,-0x8(%ebp)
 804e6f4:	eb 3e                	jmp    804e734 <hash_pjw+0x4d>
 804e6f6:	8b 45 f8             	mov    -0x8(%ebp),%eax
 804e6f9:	8d 14 85 00 00 00 00 	lea    0x0(,%eax,4),%edx
 804e700:	8b 45 08             	mov    0x8(%ebp),%eax
 804e703:	0f b6 00             	movzbl (%eax),%eax
 804e706:	0f be c0             	movsbl %al,%eax
 804e709:	01 d0                	add    %edx,%eax
 804e70b:	89 45 f8             	mov    %eax,-0x8(%ebp)
 804e70e:	8b 45 f8             	mov    -0x8(%ebp),%eax
 804e711:	25 00 fc ff ff       	and    $0xfffffc00,%eax
 804e716:	89 45 fc             	mov    %eax,-0x4(%ebp)
 804e719:	83 7d fc 00          	cmpl   $0x0,-0x4(%ebp)
 804e71d:	74 11                	je     804e730 <hash_pjw+0x49>
 804e71f:	8b 45 fc             	mov    -0x4(%ebp),%eax
 804e722:	c1 e8 0c             	shr    $0xc,%eax
 804e725:	33 45 f8             	xor    -0x8(%ebp),%eax
 804e728:	25 ff 03 00 00       	and    $0x3ff,%eax
 804e72d:	89 45 f8             	mov    %eax,-0x8(%ebp)
 804e730:	83 45 08 01          	addl   $0x1,0x8(%ebp)
 804e734:	8b 45 08             	mov    0x8(%ebp),%eax
 804e737:	0f b6 00             	movzbl (%eax),%eax
 804e73a:	84 c0                	test   %al,%al
 804e73c:	75 b8                	jne    804e6f6 <hash_pjw+0xf>
 804e73e:	8b 45 f8             	mov    -0x8(%ebp),%eax
 804e741:	c9                   	leave  
 804e742:	c3                   	ret    

0804e743 <SymbolTable_Find>:
 804e743:	55                   	push   %ebp
 804e744:	89 e5                	mov    %esp,%ebp
 804e746:	83 ec 18             	sub    $0x18,%esp
 804e749:	ff 75 0c             	pushl  0xc(%ebp)
 804e74c:	e8 96 ff ff ff       	call   804e6e7 <hash_pjw>
 804e751:	83 c4 04             	add    $0x4,%esp
 804e754:	89 45 f4             	mov    %eax,-0xc(%ebp)
 804e757:	c7 45 f0 00 00 00 00 	movl   $0x0,-0x10(%ebp)
 804e75e:	8b 45 f4             	mov    -0xc(%ebp),%eax
 804e761:	8d 14 85 00 00 00 00 	lea    0x0(,%eax,4),%edx
 804e768:	8b 45 08             	mov    0x8(%ebp),%eax
 804e76b:	01 d0                	add    %edx,%eax
 804e76d:	8b 00                	mov    (%eax),%eax
 804e76f:	89 45 f0             	mov    %eax,-0x10(%ebp)
 804e772:	eb 27                	jmp    804e79b <SymbolTable_Find+0x58>
 804e774:	8b 45 f0             	mov    -0x10(%ebp),%eax
 804e777:	8b 40 04             	mov    0x4(%eax),%eax
 804e77a:	83 ec 08             	sub    $0x8,%esp
 804e77d:	ff 75 0c             	pushl  0xc(%ebp)
 804e780:	50                   	push   %eax
 804e781:	e8 2a 9f ff ff       	call   80486b0 <strcmp@plt>
 804e786:	83 c4 10             	add    $0x10,%esp
 804e789:	85 c0                	test   %eax,%eax
 804e78b:	75 05                	jne    804e792 <SymbolTable_Find+0x4f>
 804e78d:	8b 45 f0             	mov    -0x10(%ebp),%eax
 804e790:	eb 14                	jmp    804e7a6 <SymbolTable_Find+0x63>
 804e792:	8b 45 f0             	mov    -0x10(%ebp),%eax
 804e795:	8b 40 08             	mov    0x8(%eax),%eax
 804e798:	89 45 f0             	mov    %eax,-0x10(%ebp)
 804e79b:	83 7d f0 00          	cmpl   $0x0,-0x10(%ebp)
 804e79f:	75 d3                	jne    804e774 <SymbolTable_Find+0x31>
 804e7a1:	b8 00 00 00 00       	mov    $0x0,%eax
 804e7a6:	c9                   	leave  
 804e7a7:	c3                   	ret    

0804e7a8 <SymbolTable_Add>:
 804e7a8:	55                   	push   %ebp
 804e7a9:	89 e5                	mov    %esp,%ebp
 804e7ab:	83 ec 28             	sub    $0x28,%esp
 804e7ae:	c7 45 e0 00 00 00 00 	movl   $0x0,-0x20(%ebp)
 804e7b5:	8b 45 0c             	mov    0xc(%ebp),%eax
 804e7b8:	50                   	push   %eax
 804e7b9:	e8 29 ff ff ff       	call   804e6e7 <hash_pjw>
 804e7be:	83 c4 04             	add    $0x4,%esp
 804e7c1:	89 45 e4             	mov    %eax,-0x1c(%ebp)
 804e7c4:	8b 45 e4             	mov    -0x1c(%ebp),%eax
 804e7c7:	8d 14 85 00 00 00 00 	lea    0x0(,%eax,4),%edx
 804e7ce:	8b 45 08             	mov    0x8(%ebp),%eax
 804e7d1:	01 d0                	add    %edx,%eax
 804e7d3:	8b 00                	mov    (%eax),%eax
 804e7d5:	89 45 dc             	mov    %eax,-0x24(%ebp)
 804e7d8:	8b 45 0c             	mov    0xc(%ebp),%eax
 804e7db:	83 ec 08             	sub    $0x8,%esp
 804e7de:	50                   	push   %eax
 804e7df:	ff 75 08             	pushl  0x8(%ebp)
 804e7e2:	e8 5c ff ff ff       	call   804e743 <SymbolTable_Find>
 804e7e7:	83 c4 10             	add    $0x10,%esp
 804e7ea:	89 45 e8             	mov    %eax,-0x18(%ebp)
 804e7ed:	83 7d e8 00          	cmpl   $0x0,-0x18(%ebp)
 804e7f1:	0f 85 71 01 00 00    	jne    804e968 <SymbolTable_Add+0x1c0>
 804e7f7:	83 7d dc 00          	cmpl   $0x0,-0x24(%ebp)
 804e7fb:	0f 85 5b 01 00 00    	jne    804e95c <SymbolTable_Add+0x1b4>
 804e801:	83 ec 0c             	sub    $0xc,%esp
 804e804:	6a 0c                	push   $0xc
 804e806:	e8 65 9f ff ff       	call   8048770 <malloc@plt>
 804e80b:	83 c4 10             	add    $0x10,%esp
 804e80e:	89 45 f4             	mov    %eax,-0xc(%ebp)
 804e811:	83 ec 04             	sub    $0x4,%esp
 804e814:	6a 0c                	push   $0xc
 804e816:	6a 00                	push   $0x0
 804e818:	ff 75 f4             	pushl  -0xc(%ebp)
 804e81b:	e8 c0 9f ff ff       	call   80487e0 <memset@plt>
 804e820:	83 c4 10             	add    $0x10,%esp
 804e823:	8b 45 f4             	mov    -0xc(%ebp),%eax
 804e826:	8b 55 0c             	mov    0xc(%ebp),%edx
 804e829:	89 50 04             	mov    %edx,0x4(%eax)
 804e82c:	8b 45 e4             	mov    -0x1c(%ebp),%eax
 804e82f:	8d 14 85 00 00 00 00 	lea    0x0(,%eax,4),%edx
 804e836:	8b 45 08             	mov    0x8(%ebp),%eax
 804e839:	01 c2                	add    %eax,%edx
 804e83b:	8b 45 f4             	mov    -0xc(%ebp),%eax
 804e83e:	89 02                	mov    %eax,(%edx)
 804e840:	b8 01 00 00 00       	mov    $0x1,%eax
 804e845:	e9 25 01 00 00       	jmp    804e96f <SymbolTable_Add+0x1c7>
 804e84a:	8b 45 dc             	mov    -0x24(%ebp),%eax
 804e84d:	8b 40 04             	mov    0x4(%eax),%eax
 804e850:	89 c2                	mov    %eax,%edx
 804e852:	8b 45 0c             	mov    0xc(%ebp),%eax
 804e855:	83 ec 08             	sub    $0x8,%esp
 804e858:	52                   	push   %edx
 804e859:	50                   	push   %eax
 804e85a:	e8 51 9e ff ff       	call   80486b0 <strcmp@plt>
 804e85f:	83 c4 10             	add    $0x10,%esp
 804e862:	85 c0                	test   %eax,%eax
 804e864:	79 6b                	jns    804e8d1 <SymbolTable_Add+0x129>
 804e866:	8b 45 dc             	mov    -0x24(%ebp),%eax
 804e869:	8b 40 08             	mov    0x8(%eax),%eax
 804e86c:	85 c0                	test   %eax,%eax
 804e86e:	74 23                	je     804e893 <SymbolTable_Add+0xeb>
 804e870:	8b 45 dc             	mov    -0x24(%ebp),%eax
 804e873:	8b 40 08             	mov    0x8(%eax),%eax
 804e876:	8b 40 04             	mov    0x4(%eax),%eax
 804e879:	89 c2                	mov    %eax,%edx
 804e87b:	8b 45 0c             	mov    0xc(%ebp),%eax
 804e87e:	83 ec 08             	sub    $0x8,%esp
 804e881:	52                   	push   %edx
 804e882:	50                   	push   %eax
 804e883:	e8 28 9e ff ff       	call   80486b0 <strcmp@plt>
 804e888:	83 c4 10             	add    $0x10,%esp
 804e88b:	85 c0                	test   %eax,%eax
 804e88d:	0f 8e c0 00 00 00    	jle    804e953 <SymbolTable_Add+0x1ab>
 804e893:	83 ec 0c             	sub    $0xc,%esp
 804e896:	6a 0c                	push   $0xc
 804e898:	e8 d3 9e ff ff       	call   8048770 <malloc@plt>
 804e89d:	83 c4 10             	add    $0x10,%esp
 804e8a0:	89 45 ec             	mov    %eax,-0x14(%ebp)
 804e8a3:	83 ec 04             	sub    $0x4,%esp
 804e8a6:	6a 0c                	push   $0xc
 804e8a8:	6a 00                	push   $0x0
 804e8aa:	ff 75 ec             	pushl  -0x14(%ebp)
 804e8ad:	e8 2e 9f ff ff       	call   80487e0 <memset@plt>
 804e8b2:	83 c4 10             	add    $0x10,%esp
 804e8b5:	8b 45 ec             	mov    -0x14(%ebp),%eax
 804e8b8:	8b 55 0c             	mov    0xc(%ebp),%edx
 804e8bb:	89 50 04             	mov    %edx,0x4(%eax)
 804e8be:	8b 45 dc             	mov    -0x24(%ebp),%eax
 804e8c1:	8b 55 ec             	mov    -0x14(%ebp),%edx
 804e8c4:	89 50 08             	mov    %edx,0x8(%eax)
 804e8c7:	b8 01 00 00 00       	mov    $0x1,%eax
 804e8cc:	e9 9e 00 00 00       	jmp    804e96f <SymbolTable_Add+0x1c7>
 804e8d1:	8b 45 dc             	mov    -0x24(%ebp),%eax
 804e8d4:	8b 40 04             	mov    0x4(%eax),%eax
 804e8d7:	89 c2                	mov    %eax,%edx
 804e8d9:	8b 45 0c             	mov    0xc(%ebp),%eax
 804e8dc:	83 ec 08             	sub    $0x8,%esp
 804e8df:	52                   	push   %edx
 804e8e0:	50                   	push   %eax
 804e8e1:	e8 ca 9d ff ff       	call   80486b0 <strcmp@plt>
 804e8e6:	83 c4 10             	add    $0x10,%esp
 804e8e9:	85 c0                	test   %eax,%eax
 804e8eb:	7e 4f                	jle    804e93c <SymbolTable_Add+0x194>
 804e8ed:	83 ec 0c             	sub    $0xc,%esp
 804e8f0:	6a 0c                	push   $0xc
 804e8f2:	e8 79 9e ff ff       	call   8048770 <malloc@plt>
 804e8f7:	83 c4 10             	add    $0x10,%esp
 804e8fa:	89 45 f0             	mov    %eax,-0x10(%ebp)
 804e8fd:	83 ec 04             	sub    $0x4,%esp
 804e900:	6a 0c                	push   $0xc
 804e902:	6a 00                	push   $0x0
 804e904:	ff 75 f0             	pushl  -0x10(%ebp)
 804e907:	e8 d4 9e ff ff       	call   80487e0 <memset@plt>
 804e90c:	83 c4 10             	add    $0x10,%esp
 804e90f:	8b 45 f0             	mov    -0x10(%ebp),%eax
 804e912:	8b 55 0c             	mov    0xc(%ebp),%edx
 804e915:	89 50 04             	mov    %edx,0x4(%eax)
 804e918:	8b 45 f0             	mov    -0x10(%ebp),%eax
 804e91b:	8b 55 dc             	mov    -0x24(%ebp),%edx
 804e91e:	89 50 08             	mov    %edx,0x8(%eax)
 804e921:	8b 45 e4             	mov    -0x1c(%ebp),%eax
 804e924:	8d 14 85 00 00 00 00 	lea    0x0(,%eax,4),%edx
 804e92b:	8b 45 08             	mov    0x8(%ebp),%eax
 804e92e:	01 c2                	add    %eax,%edx
 804e930:	8b 45 f0             	mov    -0x10(%ebp),%eax
 804e933:	89 02                	mov    %eax,(%edx)
 804e935:	b8 01 00 00 00       	mov    $0x1,%eax
 804e93a:	eb 33                	jmp    804e96f <SymbolTable_Add+0x1c7>
 804e93c:	83 ec 0c             	sub    $0xc,%esp
 804e93f:	68 0c 1f 05 08       	push   $0x8051f0c
 804e944:	e8 37 9e ff ff       	call   8048780 <puts@plt>
 804e949:	83 c4 10             	add    $0x10,%esp
 804e94c:	c7 45 e0 03 00 00 00 	movl   $0x3,-0x20(%ebp)
 804e953:	8b 45 dc             	mov    -0x24(%ebp),%eax
 804e956:	8b 40 08             	mov    0x8(%eax),%eax
 804e959:	89 45 dc             	mov    %eax,-0x24(%ebp)
 804e95c:	83 7d dc 00          	cmpl   $0x0,-0x24(%ebp)
 804e960:	0f 85 e4 fe ff ff    	jne    804e84a <SymbolTable_Add+0xa2>
 804e966:	eb 07                	jmp    804e96f <SymbolTable_Add+0x1c7>
 804e968:	b8 02 00 00 00       	mov    $0x2,%eax
 804e96d:	eb 00                	jmp    804e96f <SymbolTable_Add+0x1c7>
 804e96f:	c9                   	leave  
 804e970:	c3                   	ret    

0804e971 <SymbolItem_Print>:
 804e971:	55                   	push   %ebp
 804e972:	89 e5                	mov    %esp,%ebp
 804e974:	83 ec 08             	sub    $0x8,%esp
 804e977:	8b 45 08             	mov    0x8(%ebp),%eax
 804e97a:	83 ec 08             	sub    $0x8,%esp
 804e97d:	50                   	push   %eax
 804e97e:	68 20 1f 05 08       	push   $0x8051f20
 804e983:	e8 38 9d ff ff       	call   80486c0 <printf@plt>
 804e988:	83 c4 10             	add    $0x10,%esp
 804e98b:	8b 45 08             	mov    0x8(%ebp),%eax
 804e98e:	8b 40 28             	mov    0x28(%eax),%eax
 804e991:	83 f8 05             	cmp    $0x5,%eax
 804e994:	77 75                	ja     804ea0b <SymbolItem_Print+0x9a>
 804e996:	8b 04 85 88 1f 05 08 	mov    0x8051f88(,%eax,4),%eax
 804e99d:	ff e0                	jmp    *%eax
 804e99f:	83 ec 0c             	sub    $0xc,%esp
 804e9a2:	68 24 1f 05 08       	push   $0x8051f24
 804e9a7:	e8 14 9d ff ff       	call   80486c0 <printf@plt>
 804e9ac:	83 c4 10             	add    $0x10,%esp
 804e9af:	eb 71                	jmp    804ea22 <SymbolItem_Print+0xb1>
 804e9b1:	83 ec 0c             	sub    $0xc,%esp
 804e9b4:	68 29 1f 05 08       	push   $0x8051f29
 804e9b9:	e8 02 9d ff ff       	call   80486c0 <printf@plt>
 804e9be:	83 c4 10             	add    $0x10,%esp
 804e9c1:	eb 5f                	jmp    804ea22 <SymbolItem_Print+0xb1>
 804e9c3:	83 ec 0c             	sub    $0xc,%esp
 804e9c6:	68 31 1f 05 08       	push   $0x8051f31
 804e9cb:	e8 f0 9c ff ff       	call   80486c0 <printf@plt>
 804e9d0:	83 c4 10             	add    $0x10,%esp
 804e9d3:	eb 4d                	jmp    804ea22 <SymbolItem_Print+0xb1>
 804e9d5:	83 ec 0c             	sub    $0xc,%esp
 804e9d8:	68 38 1f 05 08       	push   $0x8051f38
 804e9dd:	e8 de 9c ff ff       	call   80486c0 <printf@plt>
 804e9e2:	83 c4 10             	add    $0x10,%esp
 804e9e5:	eb 3b                	jmp    804ea22 <SymbolItem_Print+0xb1>
 804e9e7:	83 ec 0c             	sub    $0xc,%esp
 804e9ea:	68 3e 1f 05 08       	push   $0x8051f3e
 804e9ef:	e8 cc 9c ff ff       	call   80486c0 <printf@plt>
 804e9f4:	83 c4 10             	add    $0x10,%esp
 804e9f7:	eb 29                	jmp    804ea22 <SymbolItem_Print+0xb1>
 804e9f9:	83 ec 0c             	sub    $0xc,%esp
 804e9fc:	68 4c 1f 05 08       	push   $0x8051f4c
 804ea01:	e8 ba 9c ff ff       	call   80486c0 <printf@plt>
 804ea06:	83 c4 10             	add    $0x10,%esp
 804ea09:	eb 17                	jmp    804ea22 <SymbolItem_Print+0xb1>
 804ea0b:	8b 45 08             	mov    0x8(%ebp),%eax
 804ea0e:	8b 40 28             	mov    0x28(%eax),%eax
 804ea11:	83 ec 08             	sub    $0x8,%esp
 804ea14:	50                   	push   %eax
 804ea15:	68 5a 1f 05 08       	push   $0x8051f5a
 804ea1a:	e8 a1 9c ff ff       	call   80486c0 <printf@plt>
 804ea1f:	83 c4 10             	add    $0x10,%esp
 804ea22:	8b 45 08             	mov    0x8(%ebp),%eax
 804ea25:	8b 40 20             	mov    0x20(%eax),%eax
 804ea28:	8b 00                	mov    (%eax),%eax
 804ea2a:	83 f8 01             	cmp    $0x1,%eax
 804ea2d:	74 3e                	je     804ea6d <SymbolItem_Print+0xfc>
 804ea2f:	83 f8 01             	cmp    $0x1,%eax
 804ea32:	72 07                	jb     804ea3b <SymbolItem_Print+0xca>
 804ea34:	83 f8 02             	cmp    $0x2,%eax
 804ea37:	74 46                	je     804ea7f <SymbolItem_Print+0x10e>
 804ea39:	eb 55                	jmp    804ea90 <SymbolItem_Print+0x11f>
 804ea3b:	8b 45 08             	mov    0x8(%ebp),%eax
 804ea3e:	8b 40 20             	mov    0x20(%eax),%eax
 804ea41:	8b 40 04             	mov    0x4(%eax),%eax
 804ea44:	83 f8 01             	cmp    $0x1,%eax
 804ea47:	75 12                	jne    804ea5b <SymbolItem_Print+0xea>
 804ea49:	83 ec 0c             	sub    $0xc,%esp
 804ea4c:	68 68 1f 05 08       	push   $0x8051f68
 804ea51:	e8 6a 9c ff ff       	call   80486c0 <printf@plt>
 804ea56:	83 c4 10             	add    $0x10,%esp
 804ea59:	eb 35                	jmp    804ea90 <SymbolItem_Print+0x11f>
 804ea5b:	83 ec 0c             	sub    $0xc,%esp
 804ea5e:	68 6f 1f 05 08       	push   $0x8051f6f
 804ea63:	e8 58 9c ff ff       	call   80486c0 <printf@plt>
 804ea68:	83 c4 10             	add    $0x10,%esp
 804ea6b:	eb 23                	jmp    804ea90 <SymbolItem_Print+0x11f>
 804ea6d:	83 ec 0c             	sub    $0xc,%esp
 804ea70:	68 74 1f 05 08       	push   $0x8051f74
 804ea75:	e8 46 9c ff ff       	call   80486c0 <printf@plt>
 804ea7a:	83 c4 10             	add    $0x10,%esp
 804ea7d:	eb 11                	jmp    804ea90 <SymbolItem_Print+0x11f>
 804ea7f:	83 ec 0c             	sub    $0xc,%esp
 804ea82:	68 7b 1f 05 08       	push   $0x8051f7b
 804ea87:	e8 34 9c ff ff       	call   80486c0 <printf@plt>
 804ea8c:	83 c4 10             	add    $0x10,%esp
 804ea8f:	90                   	nop
 804ea90:	83 ec 0c             	sub    $0xc,%esp
 804ea93:	6a 0a                	push   $0xa
 804ea95:	e8 56 9d ff ff       	call   80487f0 <putchar@plt>
 804ea9a:	83 c4 10             	add    $0x10,%esp
 804ea9d:	90                   	nop
 804ea9e:	c9                   	leave  
 804ea9f:	c3                   	ret    

0804eaa0 <SymbolTable_Print>:
 804eaa0:	55                   	push   %ebp
 804eaa1:	89 e5                	mov    %esp,%ebp
 804eaa3:	83 ec 18             	sub    $0x18,%esp
 804eaa6:	83 7d 0c 01          	cmpl   $0x1,0xc(%ebp)
 804eaaa:	75 10                	jne    804eabc <SymbolTable_Print+0x1c>
 804eaac:	83 ec 0c             	sub    $0xc,%esp
 804eaaf:	68 a0 1f 05 08       	push   $0x8051fa0
 804eab4:	e8 c7 9c ff ff       	call   8048780 <puts@plt>
 804eab9:	83 c4 10             	add    $0x10,%esp
 804eabc:	c7 45 f0 00 00 00 00 	movl   $0x0,-0x10(%ebp)
 804eac3:	e9 80 00 00 00       	jmp    804eb48 <SymbolTable_Print+0xa8>
 804eac8:	8b 45 f0             	mov    -0x10(%ebp),%eax
 804eacb:	8d 14 85 00 00 00 00 	lea    0x0(,%eax,4),%edx
 804ead2:	8b 45 08             	mov    0x8(%ebp),%eax
 804ead5:	01 d0                	add    %edx,%eax
 804ead7:	8b 00                	mov    (%eax),%eax
 804ead9:	89 45 f4             	mov    %eax,-0xc(%ebp)
 804eadc:	eb 60                	jmp    804eb3e <SymbolTable_Print+0x9e>
 804eade:	8b 45 f4             	mov    -0xc(%ebp),%eax
 804eae1:	8b 40 04             	mov    0x4(%eax),%eax
 804eae4:	8b 40 28             	mov    0x28(%eax),%eax
 804eae7:	83 f8 03             	cmp    $0x3,%eax
 804eaea:	75 31                	jne    804eb1d <SymbolTable_Print+0x7d>
 804eaec:	8b 45 f4             	mov    -0xc(%ebp),%eax
 804eaef:	8b 40 04             	mov    0x4(%eax),%eax
 804eaf2:	8b 40 24             	mov    0x24(%eax),%eax
 804eaf5:	83 f8 01             	cmp    $0x1,%eax
 804eaf8:	74 23                	je     804eb1d <SymbolTable_Print+0x7d>
 804eafa:	8b 45 f4             	mov    -0xc(%ebp),%eax
 804eafd:	8b 40 04             	mov    0x4(%eax),%eax
 804eb00:	89 c2                	mov    %eax,%edx
 804eb02:	8b 45 f4             	mov    -0xc(%ebp),%eax
 804eb05:	8b 40 04             	mov    0x4(%eax),%eax
 804eb08:	8b 40 2c             	mov    0x2c(%eax),%eax
 804eb0b:	83 ec 04             	sub    $0x4,%esp
 804eb0e:	52                   	push   %edx
 804eb0f:	50                   	push   %eax
 804eb10:	68 b0 1f 05 08       	push   $0x8051fb0
 804eb15:	e8 a6 9b ff ff       	call   80486c0 <printf@plt>
 804eb1a:	83 c4 10             	add    $0x10,%esp
 804eb1d:	83 7d 0c 01          	cmpl   $0x1,0xc(%ebp)
 804eb21:	75 12                	jne    804eb35 <SymbolTable_Print+0x95>
 804eb23:	8b 45 f4             	mov    -0xc(%ebp),%eax
 804eb26:	8b 40 04             	mov    0x4(%eax),%eax
 804eb29:	83 ec 0c             	sub    $0xc,%esp
 804eb2c:	50                   	push   %eax
 804eb2d:	e8 3f fe ff ff       	call   804e971 <SymbolItem_Print>
 804eb32:	83 c4 10             	add    $0x10,%esp
 804eb35:	8b 45 f4             	mov    -0xc(%ebp),%eax
 804eb38:	8b 40 08             	mov    0x8(%eax),%eax
 804eb3b:	89 45 f4             	mov    %eax,-0xc(%ebp)
 804eb3e:	83 7d f4 00          	cmpl   $0x0,-0xc(%ebp)
 804eb42:	75 9a                	jne    804eade <SymbolTable_Print+0x3e>
 804eb44:	83 45 f0 01          	addl   $0x1,-0x10(%ebp)
 804eb48:	81 7d f0 fe 03 00 00 	cmpl   $0x3fe,-0x10(%ebp)
 804eb4f:	0f 8e 73 ff ff ff    	jle    804eac8 <SymbolTable_Print+0x28>
 804eb55:	90                   	nop
 804eb56:	c9                   	leave  
 804eb57:	c3                   	ret    

0804eb58 <SymbolTable_Create>:
 804eb58:	55                   	push   %ebp
 804eb59:	89 e5                	mov    %esp,%ebp
 804eb5b:	83 ec 18             	sub    $0x18,%esp
 804eb5e:	83 7d 08 00          	cmpl   $0x0,0x8(%ebp)
 804eb62:	74 74                	je     804ebd8 <SymbolTable_Create+0x80>
 804eb64:	8b 45 08             	mov    0x8(%ebp),%eax
 804eb67:	8b 00                	mov    (%eax),%eax
 804eb69:	83 ec 08             	sub    $0x8,%esp
 804eb6c:	68 e4 1f 05 08       	push   $0x8051fe4
 804eb71:	50                   	push   %eax
 804eb72:	e8 39 9b ff ff       	call   80486b0 <strcmp@plt>
 804eb77:	83 c4 10             	add    $0x10,%esp
 804eb7a:	85 c0                	test   %eax,%eax
 804eb7c:	75 10                	jne    804eb8e <SymbolTable_Create+0x36>
 804eb7e:	83 ec 0c             	sub    $0xc,%esp
 804eb81:	ff 75 08             	pushl  0x8(%ebp)
 804eb84:	e8 4f 0b 00 00       	call   804f6d8 <HandleExtDef>
 804eb89:	83 c4 10             	add    $0x10,%esp
 804eb8c:	eb 4b                	jmp    804ebd9 <SymbolTable_Create+0x81>
 804eb8e:	c7 45 f4 00 00 00 00 	movl   $0x0,-0xc(%ebp)
 804eb95:	eb 34                	jmp    804ebcb <SymbolTable_Create+0x73>
 804eb97:	8b 45 08             	mov    0x8(%ebp),%eax
 804eb9a:	8b 55 f4             	mov    -0xc(%ebp),%edx
 804eb9d:	83 c2 04             	add    $0x4,%edx
 804eba0:	8b 04 90             	mov    (%eax,%edx,4),%eax
 804eba3:	85 c0                	test   %eax,%eax
 804eba5:	75 06                	jne    804ebad <SymbolTable_Create+0x55>
 804eba7:	83 45 f4 01          	addl   $0x1,-0xc(%ebp)
 804ebab:	eb 1e                	jmp    804ebcb <SymbolTable_Create+0x73>
 804ebad:	8b 45 f4             	mov    -0xc(%ebp),%eax
 804ebb0:	8d 50 01             	lea    0x1(%eax),%edx
 804ebb3:	89 55 f4             	mov    %edx,-0xc(%ebp)
 804ebb6:	8b 55 08             	mov    0x8(%ebp),%edx
 804ebb9:	83 c0 04             	add    $0x4,%eax
 804ebbc:	8b 04 82             	mov    (%edx,%eax,4),%eax
 804ebbf:	83 ec 0c             	sub    $0xc,%esp
 804ebc2:	50                   	push   %eax
 804ebc3:	e8 90 ff ff ff       	call   804eb58 <SymbolTable_Create>
 804ebc8:	83 c4 10             	add    $0x10,%esp
 804ebcb:	8b 45 08             	mov    0x8(%ebp),%eax
 804ebce:	8b 40 0c             	mov    0xc(%eax),%eax
 804ebd1:	3b 45 f4             	cmp    -0xc(%ebp),%eax
 804ebd4:	7f c1                	jg     804eb97 <SymbolTable_Create+0x3f>
 804ebd6:	eb 01                	jmp    804ebd9 <SymbolTable_Create+0x81>
 804ebd8:	90                   	nop
 804ebd9:	c9                   	leave  
 804ebda:	c3                   	ret    

0804ebdb <CheckTypeEq>:
 804ebdb:	55                   	push   %ebp
 804ebdc:	89 e5                	mov    %esp,%ebp
 804ebde:	83 ec 28             	sub    $0x28,%esp
 804ebe1:	83 7d 08 00          	cmpl   $0x0,0x8(%ebp)
 804ebe5:	75 10                	jne    804ebf7 <CheckTypeEq+0x1c>
 804ebe7:	83 7d 0c 00          	cmpl   $0x0,0xc(%ebp)
 804ebeb:	75 0a                	jne    804ebf7 <CheckTypeEq+0x1c>
 804ebed:	b8 01 00 00 00       	mov    $0x1,%eax
 804ebf2:	e9 99 01 00 00       	jmp    804ed90 <CheckTypeEq+0x1b5>
 804ebf7:	8b 45 08             	mov    0x8(%ebp),%eax
 804ebfa:	8b 10                	mov    (%eax),%edx
 804ebfc:	8b 45 0c             	mov    0xc(%ebp),%eax
 804ebff:	8b 00                	mov    (%eax),%eax
 804ec01:	39 c2                	cmp    %eax,%edx
 804ec03:	74 0a                	je     804ec0f <CheckTypeEq+0x34>
 804ec05:	b8 00 00 00 00       	mov    $0x0,%eax
 804ec0a:	e9 81 01 00 00       	jmp    804ed90 <CheckTypeEq+0x1b5>
 804ec0f:	8b 45 08             	mov    0x8(%ebp),%eax
 804ec12:	8b 00                	mov    (%eax),%eax
 804ec14:	85 c0                	test   %eax,%eax
 804ec16:	75 42                	jne    804ec5a <CheckTypeEq+0x7f>
 804ec18:	8b 45 0c             	mov    0xc(%ebp),%eax
 804ec1b:	8b 50 04             	mov    0x4(%eax),%edx
 804ec1e:	8b 45 08             	mov    0x8(%ebp),%eax
 804ec21:	8b 40 04             	mov    0x4(%eax),%eax
 804ec24:	83 ec 04             	sub    $0x4,%esp
 804ec27:	52                   	push   %edx
 804ec28:	50                   	push   %eax
 804ec29:	68 eb 1f 05 08       	push   $0x8051feb
 804ec2e:	e8 8d 9a ff ff       	call   80486c0 <printf@plt>
 804ec33:	83 c4 10             	add    $0x10,%esp
 804ec36:	8b 45 08             	mov    0x8(%ebp),%eax
 804ec39:	8b 50 04             	mov    0x4(%eax),%edx
 804ec3c:	8b 45 0c             	mov    0xc(%ebp),%eax
 804ec3f:	8b 40 04             	mov    0x4(%eax),%eax
 804ec42:	39 c2                	cmp    %eax,%edx
 804ec44:	75 0a                	jne    804ec50 <CheckTypeEq+0x75>
 804ec46:	b8 01 00 00 00       	mov    $0x1,%eax
 804ec4b:	e9 40 01 00 00       	jmp    804ed90 <CheckTypeEq+0x1b5>
 804ec50:	b8 00 00 00 00       	mov    $0x0,%eax
 804ec55:	e9 36 01 00 00       	jmp    804ed90 <CheckTypeEq+0x1b5>
 804ec5a:	8b 45 08             	mov    0x8(%ebp),%eax
 804ec5d:	8b 00                	mov    (%eax),%eax
 804ec5f:	83 f8 01             	cmp    $0x1,%eax
 804ec62:	75 6a                	jne    804ecce <CheckTypeEq+0xf3>
 804ec64:	c7 45 f0 00 00 00 00 	movl   $0x0,-0x10(%ebp)
 804ec6b:	c7 45 f4 00 00 00 00 	movl   $0x0,-0xc(%ebp)
 804ec72:	8b 45 08             	mov    0x8(%ebp),%eax
 804ec75:	8b 40 04             	mov    0x4(%eax),%eax
 804ec78:	89 45 e0             	mov    %eax,-0x20(%ebp)
 804ec7b:	8b 45 0c             	mov    0xc(%ebp),%eax
 804ec7e:	8b 40 04             	mov    0x4(%eax),%eax
 804ec81:	89 45 e4             	mov    %eax,-0x1c(%ebp)
 804ec84:	eb 12                	jmp    804ec98 <CheckTypeEq+0xbd>
 804ec86:	8b 45 e0             	mov    -0x20(%ebp),%eax
 804ec89:	8b 40 04             	mov    0x4(%eax),%eax
 804ec8c:	89 45 e0             	mov    %eax,-0x20(%ebp)
 804ec8f:	8b 45 e4             	mov    -0x1c(%ebp),%eax
 804ec92:	8b 40 04             	mov    0x4(%eax),%eax
 804ec95:	89 45 e4             	mov    %eax,-0x1c(%ebp)
 804ec98:	8b 45 e0             	mov    -0x20(%ebp),%eax
 804ec9b:	8b 00                	mov    (%eax),%eax
 804ec9d:	83 f8 01             	cmp    $0x1,%eax
 804eca0:	75 0a                	jne    804ecac <CheckTypeEq+0xd1>
 804eca2:	8b 45 e4             	mov    -0x1c(%ebp),%eax
 804eca5:	8b 00                	mov    (%eax),%eax
 804eca7:	83 f8 01             	cmp    $0x1,%eax
 804ecaa:	74 da                	je     804ec86 <CheckTypeEq+0xab>
 804ecac:	8b 45 e0             	mov    -0x20(%ebp),%eax
 804ecaf:	8b 10                	mov    (%eax),%edx
 804ecb1:	8b 45 e4             	mov    -0x1c(%ebp),%eax
 804ecb4:	8b 00                	mov    (%eax),%eax
 804ecb6:	39 c2                	cmp    %eax,%edx
 804ecb8:	75 0a                	jne    804ecc4 <CheckTypeEq+0xe9>
 804ecba:	b8 01 00 00 00       	mov    $0x1,%eax
 804ecbf:	e9 cc 00 00 00       	jmp    804ed90 <CheckTypeEq+0x1b5>
 804ecc4:	b8 00 00 00 00       	mov    $0x0,%eax
 804ecc9:	e9 c2 00 00 00       	jmp    804ed90 <CheckTypeEq+0x1b5>
 804ecce:	8b 45 08             	mov    0x8(%ebp),%eax
 804ecd1:	8b 00                	mov    (%eax),%eax
 804ecd3:	83 f8 02             	cmp    $0x2,%eax
 804ecd6:	0f 85 99 00 00 00    	jne    804ed75 <CheckTypeEq+0x19a>
 804ecdc:	8b 45 08             	mov    0x8(%ebp),%eax
 804ecdf:	8b 40 04             	mov    0x4(%eax),%eax
 804ece2:	8b 40 08             	mov    0x8(%eax),%eax
 804ece5:	89 45 e8             	mov    %eax,-0x18(%ebp)
 804ece8:	8b 45 0c             	mov    0xc(%ebp),%eax
 804eceb:	8b 40 04             	mov    0x4(%eax),%eax
 804ecee:	8b 40 08             	mov    0x8(%eax),%eax
 804ecf1:	89 45 ec             	mov    %eax,-0x14(%ebp)
 804ecf4:	eb 5a                	jmp    804ed50 <CheckTypeEq+0x175>
 804ecf6:	8b 45 ec             	mov    -0x14(%ebp),%eax
 804ecf9:	8b 10                	mov    (%eax),%edx
 804ecfb:	8b 45 e8             	mov    -0x18(%ebp),%eax
 804ecfe:	8b 00                	mov    (%eax),%eax
 804ed00:	83 ec 08             	sub    $0x8,%esp
 804ed03:	52                   	push   %edx
 804ed04:	50                   	push   %eax
 804ed05:	e8 a6 99 ff ff       	call   80486b0 <strcmp@plt>
 804ed0a:	83 c4 10             	add    $0x10,%esp
 804ed0d:	85 c0                	test   %eax,%eax
 804ed0f:	74 07                	je     804ed18 <CheckTypeEq+0x13d>
 804ed11:	b8 00 00 00 00       	mov    $0x0,%eax
 804ed16:	eb 78                	jmp    804ed90 <CheckTypeEq+0x1b5>
 804ed18:	8b 45 e8             	mov    -0x18(%ebp),%eax
 804ed1b:	8b 40 08             	mov    0x8(%eax),%eax
 804ed1e:	89 45 e8             	mov    %eax,-0x18(%ebp)
 804ed21:	8b 45 ec             	mov    -0x14(%ebp),%eax
 804ed24:	8b 40 08             	mov    0x8(%eax),%eax
 804ed27:	89 45 ec             	mov    %eax,-0x14(%ebp)
 804ed2a:	83 7d e8 00          	cmpl   $0x0,-0x18(%ebp)
 804ed2e:	75 0d                	jne    804ed3d <CheckTypeEq+0x162>
 804ed30:	83 7d ec 00          	cmpl   $0x0,-0x14(%ebp)
 804ed34:	75 07                	jne    804ed3d <CheckTypeEq+0x162>
 804ed36:	b8 01 00 00 00       	mov    $0x1,%eax
 804ed3b:	eb 53                	jmp    804ed90 <CheckTypeEq+0x1b5>
 804ed3d:	83 7d e8 00          	cmpl   $0x0,-0x18(%ebp)
 804ed41:	74 06                	je     804ed49 <CheckTypeEq+0x16e>
 804ed43:	83 7d ec 00          	cmpl   $0x0,-0x14(%ebp)
 804ed47:	75 07                	jne    804ed50 <CheckTypeEq+0x175>
 804ed49:	b8 00 00 00 00       	mov    $0x0,%eax
 804ed4e:	eb 40                	jmp    804ed90 <CheckTypeEq+0x1b5>
 804ed50:	8b 45 ec             	mov    -0x14(%ebp),%eax
 804ed53:	8b 50 04             	mov    0x4(%eax),%edx
 804ed56:	8b 45 e8             	mov    -0x18(%ebp),%eax
 804ed59:	8b 40 04             	mov    0x4(%eax),%eax
 804ed5c:	83 ec 08             	sub    $0x8,%esp
 804ed5f:	52                   	push   %edx
 804ed60:	50                   	push   %eax
 804ed61:	e8 75 fe ff ff       	call   804ebdb <CheckTypeEq>
 804ed66:	83 c4 10             	add    $0x10,%esp
 804ed69:	83 f8 01             	cmp    $0x1,%eax
 804ed6c:	74 88                	je     804ecf6 <CheckTypeEq+0x11b>
 804ed6e:	b8 01 00 00 00       	mov    $0x1,%eax
 804ed73:	eb 1b                	jmp    804ed90 <CheckTypeEq+0x1b5>
 804ed75:	8b 45 08             	mov    0x8(%ebp),%eax
 804ed78:	8b 00                	mov    (%eax),%eax
 804ed7a:	83 ec 08             	sub    $0x8,%esp
 804ed7d:	50                   	push   %eax
 804ed7e:	68 ff 1f 05 08       	push   $0x8051fff
 804ed83:	e8 38 99 ff ff       	call   80486c0 <printf@plt>
 804ed88:	83 c4 10             	add    $0x10,%esp
 804ed8b:	b8 00 00 00 00       	mov    $0x0,%eax
 804ed90:	c9                   	leave  
 804ed91:	c3                   	ret    

0804ed92 <CheckFunDec>:
 804ed92:	55                   	push   %ebp
 804ed93:	89 e5                	mov    %esp,%ebp
 804ed95:	83 ec 08             	sub    $0x8,%esp
 804ed98:	83 7d 08 00          	cmpl   $0x0,0x8(%ebp)
 804ed9c:	75 0d                	jne    804edab <CheckFunDec+0x19>
 804ed9e:	83 7d 0c 00          	cmpl   $0x0,0xc(%ebp)
 804eda2:	75 07                	jne    804edab <CheckFunDec+0x19>
 804eda4:	b8 01 00 00 00       	mov    $0x1,%eax
 804eda9:	eb 71                	jmp    804ee1c <CheckFunDec+0x8a>
 804edab:	83 7d 08 00          	cmpl   $0x0,0x8(%ebp)
 804edaf:	74 06                	je     804edb7 <CheckFunDec+0x25>
 804edb1:	83 7d 0c 00          	cmpl   $0x0,0xc(%ebp)
 804edb5:	75 07                	jne    804edbe <CheckFunDec+0x2c>
 804edb7:	b8 00 00 00 00       	mov    $0x0,%eax
 804edbc:	eb 5e                	jmp    804ee1c <CheckFunDec+0x8a>
 804edbe:	8b 45 08             	mov    0x8(%ebp),%eax
 804edc1:	8b 50 28             	mov    0x28(%eax),%edx
 804edc4:	8b 45 0c             	mov    0xc(%ebp),%eax
 804edc7:	8b 40 28             	mov    0x28(%eax),%eax
 804edca:	39 c2                	cmp    %eax,%edx
 804edcc:	74 3d                	je     804ee0b <CheckFunDec+0x79>
 804edce:	b8 03 00 00 00       	mov    $0x3,%eax
 804edd3:	eb 47                	jmp    804ee1c <CheckFunDec+0x8a>
 804edd5:	8b 45 0c             	mov    0xc(%ebp),%eax
 804edd8:	8b 50 20             	mov    0x20(%eax),%edx
 804eddb:	8b 45 08             	mov    0x8(%ebp),%eax
 804edde:	8b 40 20             	mov    0x20(%eax),%eax
 804ede1:	83 ec 08             	sub    $0x8,%esp
 804ede4:	52                   	push   %edx
 804ede5:	50                   	push   %eax
 804ede6:	e8 f0 fd ff ff       	call   804ebdb <CheckTypeEq>
 804edeb:	83 c4 10             	add    $0x10,%esp
 804edee:	85 c0                	test   %eax,%eax
 804edf0:	75 07                	jne    804edf9 <CheckFunDec+0x67>
 804edf2:	b8 02 00 00 00       	mov    $0x2,%eax
 804edf7:	eb 23                	jmp    804ee1c <CheckFunDec+0x8a>
 804edf9:	8b 45 08             	mov    0x8(%ebp),%eax
 804edfc:	8b 40 38             	mov    0x38(%eax),%eax
 804edff:	89 45 08             	mov    %eax,0x8(%ebp)
 804ee02:	8b 45 0c             	mov    0xc(%ebp),%eax
 804ee05:	8b 40 38             	mov    0x38(%eax),%eax
 804ee08:	89 45 0c             	mov    %eax,0xc(%ebp)
 804ee0b:	83 7d 08 00          	cmpl   $0x0,0x8(%ebp)
 804ee0f:	74 06                	je     804ee17 <CheckFunDec+0x85>
 804ee11:	83 7d 0c 00          	cmpl   $0x0,0xc(%ebp)
 804ee15:	75 be                	jne    804edd5 <CheckFunDec+0x43>
 804ee17:	b8 01 00 00 00       	mov    $0x1,%eax
 804ee1c:	c9                   	leave  
 804ee1d:	c3                   	ret    

0804ee1e <HandleExp>:
 804ee1e:	55                   	push   %ebp
 804ee1f:	89 e5                	mov    %esp,%ebp
 804ee21:	53                   	push   %ebx
 804ee22:	83 ec 54             	sub    $0x54,%esp
 804ee25:	8b 45 08             	mov    0x8(%ebp),%eax
 804ee28:	8b 40 10             	mov    0x10(%eax),%eax
 804ee2b:	8b 40 08             	mov    0x8(%eax),%eax
 804ee2e:	83 f8 02             	cmp    $0x2,%eax
 804ee31:	0f 85 d6 01 00 00    	jne    804f00d <HandleExp+0x1ef>
 804ee37:	8b 45 08             	mov    0x8(%ebp),%eax
 804ee3a:	8b 40 10             	mov    0x10(%eax),%eax
 804ee3d:	89 45 b8             	mov    %eax,-0x48(%ebp)
 804ee40:	8b 45 08             	mov    0x8(%ebp),%eax
 804ee43:	8b 40 14             	mov    0x14(%eax),%eax
 804ee46:	85 c0                	test   %eax,%eax
 804ee48:	75 56                	jne    804eea0 <HandleExp+0x82>
 804ee4a:	8b 45 b8             	mov    -0x48(%ebp),%eax
 804ee4d:	83 c0 30             	add    $0x30,%eax
 804ee50:	83 ec 08             	sub    $0x8,%esp
 804ee53:	50                   	push   %eax
 804ee54:	68 60 51 05 08       	push   $0x8055160
 804ee59:	e8 e5 f8 ff ff       	call   804e743 <SymbolTable_Find>
 804ee5e:	83 c4 10             	add    $0x10,%esp
 804ee61:	89 45 bc             	mov    %eax,-0x44(%ebp)
 804ee64:	83 7d bc 00          	cmpl   $0x0,-0x44(%ebp)
 804ee68:	75 28                	jne    804ee92 <HandleExp+0x74>
 804ee6a:	8b 45 b8             	mov    -0x48(%ebp),%eax
 804ee6d:	8d 50 30             	lea    0x30(%eax),%edx
 804ee70:	8b 45 b8             	mov    -0x48(%ebp),%eax
 804ee73:	8b 40 04             	mov    0x4(%eax),%eax
 804ee76:	83 ec 04             	sub    $0x4,%esp
 804ee79:	52                   	push   %edx
 804ee7a:	50                   	push   %eax
 804ee7b:	68 14 20 05 08       	push   $0x8052014
 804ee80:	e8 3b 98 ff ff       	call   80486c0 <printf@plt>
 804ee85:	83 c4 10             	add    $0x10,%esp
 804ee88:	a1 a4 50 05 08       	mov    0x80550a4,%eax
 804ee8d:	e9 00 07 00 00       	jmp    804f592 <HandleExp+0x774>
 804ee92:	8b 45 bc             	mov    -0x44(%ebp),%eax
 804ee95:	8b 40 04             	mov    0x4(%eax),%eax
 804ee98:	8b 40 20             	mov    0x20(%eax),%eax
 804ee9b:	e9 f2 06 00 00       	jmp    804f592 <HandleExp+0x774>
 804eea0:	8b 45 08             	mov    0x8(%ebp),%eax
 804eea3:	8b 40 14             	mov    0x14(%eax),%eax
 804eea6:	8b 00                	mov    (%eax),%eax
 804eea8:	83 ec 08             	sub    $0x8,%esp
 804eeab:	68 47 20 05 08       	push   $0x8052047
 804eeb0:	50                   	push   %eax
 804eeb1:	e8 fa 97 ff ff       	call   80486b0 <strcmp@plt>
 804eeb6:	83 c4 10             	add    $0x10,%esp
 804eeb9:	85 c0                	test   %eax,%eax
 804eebb:	0f 85 32 01 00 00    	jne    804eff3 <HandleExp+0x1d5>
 804eec1:	8b 45 b8             	mov    -0x48(%ebp),%eax
 804eec4:	83 c0 30             	add    $0x30,%eax
 804eec7:	83 ec 08             	sub    $0x8,%esp
 804eeca:	50                   	push   %eax
 804eecb:	68 60 51 05 08       	push   $0x8055160
 804eed0:	e8 6e f8 ff ff       	call   804e743 <SymbolTable_Find>
 804eed5:	83 c4 10             	add    $0x10,%esp
 804eed8:	89 45 c0             	mov    %eax,-0x40(%ebp)
 804eedb:	83 7d c0 00          	cmpl   $0x0,-0x40(%ebp)
 804eedf:	75 28                	jne    804ef09 <HandleExp+0xeb>
 804eee1:	8b 45 b8             	mov    -0x48(%ebp),%eax
 804eee4:	8d 50 30             	lea    0x30(%eax),%edx
 804eee7:	8b 45 08             	mov    0x8(%ebp),%eax
 804eeea:	8b 40 04             	mov    0x4(%eax),%eax
 804eeed:	83 ec 04             	sub    $0x4,%esp
 804eef0:	52                   	push   %edx
 804eef1:	50                   	push   %eax
 804eef2:	68 4c 20 05 08       	push   $0x805204c
 804eef7:	e8 c4 97 ff ff       	call   80486c0 <printf@plt>
 804eefc:	83 c4 10             	add    $0x10,%esp
 804eeff:	a1 a4 50 05 08       	mov    0x80550a4,%eax
 804ef04:	e9 89 06 00 00       	jmp    804f592 <HandleExp+0x774>
 804ef09:	8b 45 c0             	mov    -0x40(%ebp),%eax
 804ef0c:	8b 40 04             	mov    0x4(%eax),%eax
 804ef0f:	89 45 c4             	mov    %eax,-0x3c(%ebp)
 804ef12:	8b 45 c0             	mov    -0x40(%ebp),%eax
 804ef15:	8b 40 04             	mov    0x4(%eax),%eax
 804ef18:	8b 40 28             	mov    0x28(%eax),%eax
 804ef1b:	83 f8 03             	cmp    $0x3,%eax
 804ef1e:	74 28                	je     804ef48 <HandleExp+0x12a>
 804ef20:	8b 45 b8             	mov    -0x48(%ebp),%eax
 804ef23:	8d 50 30             	lea    0x30(%eax),%edx
 804ef26:	8b 45 b8             	mov    -0x48(%ebp),%eax
 804ef29:	8b 40 04             	mov    0x4(%eax),%eax
 804ef2c:	83 ec 04             	sub    $0x4,%esp
 804ef2f:	52                   	push   %edx
 804ef30:	50                   	push   %eax
 804ef31:	68 80 20 05 08       	push   $0x8052080
 804ef36:	e8 85 97 ff ff       	call   80486c0 <printf@plt>
 804ef3b:	83 c4 10             	add    $0x10,%esp
 804ef3e:	a1 a4 50 05 08       	mov    0x80550a4,%eax
 804ef43:	e9 4a 06 00 00       	jmp    804f592 <HandleExp+0x774>
 804ef48:	8b 45 08             	mov    0x8(%ebp),%eax
 804ef4b:	8b 40 18             	mov    0x18(%eax),%eax
 804ef4e:	8b 00                	mov    (%eax),%eax
 804ef50:	83 ec 08             	sub    $0x8,%esp
 804ef53:	68 ba 20 05 08       	push   $0x80520ba
 804ef58:	50                   	push   %eax
 804ef59:	e8 52 97 ff ff       	call   80486b0 <strcmp@plt>
 804ef5e:	83 c4 10             	add    $0x10,%esp
 804ef61:	85 c0                	test   %eax,%eax
 804ef63:	75 51                	jne    804efb6 <HandleExp+0x198>
 804ef65:	8b 45 c4             	mov    -0x3c(%ebp),%eax
 804ef68:	8b 50 38             	mov    0x38(%eax),%edx
 804ef6b:	8b 45 08             	mov    0x8(%ebp),%eax
 804ef6e:	8b 40 18             	mov    0x18(%eax),%eax
 804ef71:	83 ec 08             	sub    $0x8,%esp
 804ef74:	52                   	push   %edx
 804ef75:	50                   	push   %eax
 804ef76:	e8 53 06 00 00       	call   804f5ce <CheckArgs>
 804ef7b:	83 c4 10             	add    $0x10,%esp
 804ef7e:	83 f8 01             	cmp    $0x1,%eax
 804ef81:	74 28                	je     804efab <HandleExp+0x18d>
 804ef83:	8b 45 b8             	mov    -0x48(%ebp),%eax
 804ef86:	8d 50 30             	lea    0x30(%eax),%edx
 804ef89:	8b 45 b8             	mov    -0x48(%ebp),%eax
 804ef8c:	8b 40 04             	mov    0x4(%eax),%eax
 804ef8f:	83 ec 04             	sub    $0x4,%esp
 804ef92:	52                   	push   %edx
 804ef93:	50                   	push   %eax
 804ef94:	68 c0 20 05 08       	push   $0x80520c0
 804ef99:	e8 22 97 ff ff       	call   80486c0 <printf@plt>
 804ef9e:	83 c4 10             	add    $0x10,%esp
 804efa1:	a1 a4 50 05 08       	mov    0x80550a4,%eax
 804efa6:	e9 e7 05 00 00       	jmp    804f592 <HandleExp+0x774>
 804efab:	8b 45 c4             	mov    -0x3c(%ebp),%eax
 804efae:	8b 40 20             	mov    0x20(%eax),%eax
 804efb1:	e9 dc 05 00 00       	jmp    804f592 <HandleExp+0x774>
 804efb6:	8b 45 c4             	mov    -0x3c(%ebp),%eax
 804efb9:	8b 40 38             	mov    0x38(%eax),%eax
 804efbc:	85 c0                	test   %eax,%eax
 804efbe:	74 28                	je     804efe8 <HandleExp+0x1ca>
 804efc0:	8b 45 b8             	mov    -0x48(%ebp),%eax
 804efc3:	8d 50 30             	lea    0x30(%eax),%edx
 804efc6:	8b 45 b8             	mov    -0x48(%ebp),%eax
 804efc9:	8b 40 04             	mov    0x4(%eax),%eax
 804efcc:	83 ec 04             	sub    $0x4,%esp
 804efcf:	52                   	push   %edx
 804efd0:	50                   	push   %eax
 804efd1:	68 10 21 05 08       	push   $0x8052110
 804efd6:	e8 e5 96 ff ff       	call   80486c0 <printf@plt>
 804efdb:	83 c4 10             	add    $0x10,%esp
 804efde:	a1 a4 50 05 08       	mov    0x80550a4,%eax
 804efe3:	e9 aa 05 00 00       	jmp    804f592 <HandleExp+0x774>
 804efe8:	8b 45 c4             	mov    -0x3c(%ebp),%eax
 804efeb:	8b 40 20             	mov    0x20(%eax),%eax
 804efee:	e9 9f 05 00 00       	jmp    804f592 <HandleExp+0x774>
 804eff3:	83 ec 0c             	sub    $0xc,%esp
 804eff6:	68 5c 21 05 08       	push   $0x805215c
 804effb:	e8 80 97 ff ff       	call   8048780 <puts@plt>
 804f000:	83 c4 10             	add    $0x10,%esp
 804f003:	a1 a4 50 05 08       	mov    0x80550a4,%eax
 804f008:	e9 85 05 00 00       	jmp    804f592 <HandleExp+0x774>
 804f00d:	8b 45 08             	mov    0x8(%ebp),%eax
 804f010:	8b 40 10             	mov    0x10(%eax),%eax
 804f013:	8b 40 08             	mov    0x8(%eax),%eax
 804f016:	83 f8 04             	cmp    $0x4,%eax
 804f019:	75 0a                	jne    804f025 <HandleExp+0x207>
 804f01b:	a1 a0 50 05 08       	mov    0x80550a0,%eax
 804f020:	e9 6d 05 00 00       	jmp    804f592 <HandleExp+0x774>
 804f025:	8b 45 08             	mov    0x8(%ebp),%eax
 804f028:	8b 40 10             	mov    0x10(%eax),%eax
 804f02b:	8b 40 08             	mov    0x8(%eax),%eax
 804f02e:	83 f8 05             	cmp    $0x5,%eax
 804f031:	75 0a                	jne    804f03d <HandleExp+0x21f>
 804f033:	a1 a8 50 05 08       	mov    0x80550a8,%eax
 804f038:	e9 55 05 00 00       	jmp    804f592 <HandleExp+0x774>
 804f03d:	8b 45 08             	mov    0x8(%ebp),%eax
 804f040:	8b 40 10             	mov    0x10(%eax),%eax
 804f043:	8b 40 08             	mov    0x8(%eax),%eax
 804f046:	83 f8 01             	cmp    $0x1,%eax
 804f049:	75 17                	jne    804f062 <HandleExp+0x244>
 804f04b:	8b 45 08             	mov    0x8(%ebp),%eax
 804f04e:	8b 40 14             	mov    0x14(%eax),%eax
 804f051:	83 ec 0c             	sub    $0xc,%esp
 804f054:	50                   	push   %eax
 804f055:	e8 c4 fd ff ff       	call   804ee1e <HandleExp>
 804f05a:	83 c4 10             	add    $0x10,%esp
 804f05d:	e9 30 05 00 00       	jmp    804f592 <HandleExp+0x774>
 804f062:	8b 45 08             	mov    0x8(%ebp),%eax
 804f065:	8b 40 10             	mov    0x10(%eax),%eax
 804f068:	8b 40 08             	mov    0x8(%eax),%eax
 804f06b:	85 c0                	test   %eax,%eax
 804f06d:	0f 85 f2 04 00 00    	jne    804f565 <HandleExp+0x747>
 804f073:	8b 45 08             	mov    0x8(%ebp),%eax
 804f076:	8b 40 10             	mov    0x10(%eax),%eax
 804f079:	89 45 c8             	mov    %eax,-0x38(%ebp)
 804f07c:	8b 45 08             	mov    0x8(%ebp),%eax
 804f07f:	8b 40 18             	mov    0x18(%eax),%eax
 804f082:	89 45 cc             	mov    %eax,-0x34(%ebp)
 804f085:	8b 45 08             	mov    0x8(%ebp),%eax
 804f088:	8b 40 14             	mov    0x14(%eax),%eax
 804f08b:	8b 00                	mov    (%eax),%eax
 804f08d:	83 ec 08             	sub    $0x8,%esp
 804f090:	68 6c 21 05 08       	push   $0x805216c
 804f095:	50                   	push   %eax
 804f096:	e8 15 96 ff ff       	call   80486b0 <strcmp@plt>
 804f09b:	83 c4 10             	add    $0x10,%esp
 804f09e:	85 c0                	test   %eax,%eax
 804f0a0:	0f 85 ae 00 00 00    	jne    804f154 <HandleExp+0x336>
 804f0a6:	83 ec 0c             	sub    $0xc,%esp
 804f0a9:	ff 75 c8             	pushl  -0x38(%ebp)
 804f0ac:	e8 6d fd ff ff       	call   804ee1e <HandleExp>
 804f0b1:	83 c4 10             	add    $0x10,%esp
 804f0b4:	89 45 d0             	mov    %eax,-0x30(%ebp)
 804f0b7:	8b 45 d0             	mov    -0x30(%ebp),%eax
 804f0ba:	8b 00                	mov    (%eax),%eax
 804f0bc:	83 f8 01             	cmp    $0x1,%eax
 804f0bf:	74 32                	je     804f0f3 <HandleExp+0x2d5>
 804f0c1:	83 ec 0c             	sub    $0xc,%esp
 804f0c4:	ff 75 c8             	pushl  -0x38(%ebp)
 804f0c7:	e8 cb 04 00 00       	call   804f597 <ExpGetName>
 804f0cc:	83 c4 10             	add    $0x10,%esp
 804f0cf:	89 c2                	mov    %eax,%edx
 804f0d1:	8b 45 c8             	mov    -0x38(%ebp),%eax
 804f0d4:	8b 40 04             	mov    0x4(%eax),%eax
 804f0d7:	83 ec 04             	sub    $0x4,%esp
 804f0da:	52                   	push   %edx
 804f0db:	50                   	push   %eax
 804f0dc:	68 70 21 05 08       	push   $0x8052170
 804f0e1:	e8 da 95 ff ff       	call   80486c0 <printf@plt>
 804f0e6:	83 c4 10             	add    $0x10,%esp
 804f0e9:	a1 a4 50 05 08       	mov    0x80550a4,%eax
 804f0ee:	e9 9f 04 00 00       	jmp    804f592 <HandleExp+0x774>
 804f0f3:	83 ec 0c             	sub    $0xc,%esp
 804f0f6:	ff 75 cc             	pushl  -0x34(%ebp)
 804f0f9:	e8 20 fd ff ff       	call   804ee1e <HandleExp>
 804f0fe:	83 c4 10             	add    $0x10,%esp
 804f101:	89 45 d4             	mov    %eax,-0x2c(%ebp)
 804f104:	8b 45 d4             	mov    -0x2c(%ebp),%eax
 804f107:	8b 00                	mov    (%eax),%eax
 804f109:	85 c0                	test   %eax,%eax
 804f10b:	75 0a                	jne    804f117 <HandleExp+0x2f9>
 804f10d:	8b 45 d4             	mov    -0x2c(%ebp),%eax
 804f110:	8b 40 04             	mov    0x4(%eax),%eax
 804f113:	85 c0                	test   %eax,%eax
 804f115:	74 32                	je     804f149 <HandleExp+0x32b>
 804f117:	83 ec 0c             	sub    $0xc,%esp
 804f11a:	ff 75 cc             	pushl  -0x34(%ebp)
 804f11d:	e8 75 04 00 00       	call   804f597 <ExpGetName>
 804f122:	83 c4 10             	add    $0x10,%esp
 804f125:	89 c2                	mov    %eax,%edx
 804f127:	8b 45 cc             	mov    -0x34(%ebp),%eax
 804f12a:	8b 40 04             	mov    0x4(%eax),%eax
 804f12d:	83 ec 04             	sub    $0x4,%esp
 804f130:	52                   	push   %edx
 804f131:	50                   	push   %eax
 804f132:	68 a4 21 05 08       	push   $0x80521a4
 804f137:	e8 84 95 ff ff       	call   80486c0 <printf@plt>
 804f13c:	83 c4 10             	add    $0x10,%esp
 804f13f:	a1 a4 50 05 08       	mov    0x80550a4,%eax
 804f144:	e9 49 04 00 00       	jmp    804f592 <HandleExp+0x774>
 804f149:	8b 45 d0             	mov    -0x30(%ebp),%eax
 804f14c:	8b 40 04             	mov    0x4(%eax),%eax
 804f14f:	e9 3e 04 00 00       	jmp    804f592 <HandleExp+0x774>
 804f154:	8b 45 08             	mov    0x8(%ebp),%eax
 804f157:	8b 40 14             	mov    0x14(%eax),%eax
 804f15a:	8b 00                	mov    (%eax),%eax
 804f15c:	83 ec 08             	sub    $0x8,%esp
 804f15f:	68 d7 21 05 08       	push   $0x80521d7
 804f164:	50                   	push   %eax
 804f165:	e8 46 95 ff ff       	call   80486b0 <strcmp@plt>
 804f16a:	83 c4 10             	add    $0x10,%esp
 804f16d:	85 c0                	test   %eax,%eax
 804f16f:	0f 85 24 01 00 00    	jne    804f299 <HandleExp+0x47b>
 804f175:	83 ec 0c             	sub    $0xc,%esp
 804f178:	ff 75 c8             	pushl  -0x38(%ebp)
 804f17b:	e8 9e fc ff ff       	call   804ee1e <HandleExp>
 804f180:	83 c4 10             	add    $0x10,%esp
 804f183:	89 45 d8             	mov    %eax,-0x28(%ebp)
 804f186:	8b 45 d8             	mov    -0x28(%ebp),%eax
 804f189:	8b 00                	mov    (%eax),%eax
 804f18b:	83 f8 02             	cmp    $0x2,%eax
 804f18e:	74 39                	je     804f1c9 <HandleExp+0x3ab>
 804f190:	8b 45 d8             	mov    -0x28(%ebp),%eax
 804f193:	8b 00                	mov    (%eax),%eax
 804f195:	83 ec 08             	sub    $0x8,%esp
 804f198:	50                   	push   %eax
 804f199:	68 db 21 05 08       	push   $0x80521db
 804f19e:	e8 1d 95 ff ff       	call   80486c0 <printf@plt>
 804f1a3:	83 c4 10             	add    $0x10,%esp
 804f1a6:	8b 45 c8             	mov    -0x38(%ebp),%eax
 804f1a9:	8b 40 04             	mov    0x4(%eax),%eax
 804f1ac:	83 ec 04             	sub    $0x4,%esp
 804f1af:	6a 2e                	push   $0x2e
 804f1b1:	50                   	push   %eax
 804f1b2:	68 f0 21 05 08       	push   $0x80521f0
 804f1b7:	e8 04 95 ff ff       	call   80486c0 <printf@plt>
 804f1bc:	83 c4 10             	add    $0x10,%esp
 804f1bf:	a1 a4 50 05 08       	mov    0x80550a4,%eax
 804f1c4:	e9 c9 03 00 00       	jmp    804f592 <HandleExp+0x774>
 804f1c9:	8b 45 08             	mov    0x8(%ebp),%eax
 804f1cc:	8b 40 18             	mov    0x18(%eax),%eax
 804f1cf:	83 c0 30             	add    $0x30,%eax
 804f1d2:	83 ec 08             	sub    $0x8,%esp
 804f1d5:	50                   	push   %eax
 804f1d6:	68 60 51 05 08       	push   $0x8055160
 804f1db:	e8 63 f5 ff ff       	call   804e743 <SymbolTable_Find>
 804f1e0:	83 c4 10             	add    $0x10,%esp
 804f1e3:	89 45 dc             	mov    %eax,-0x24(%ebp)
 804f1e6:	83 7d dc 00          	cmpl   $0x0,-0x24(%ebp)
 804f1ea:	74 0e                	je     804f1fa <HandleExp+0x3dc>
 804f1ec:	8b 45 dc             	mov    -0x24(%ebp),%eax
 804f1ef:	8b 40 04             	mov    0x4(%eax),%eax
 804f1f2:	8b 40 28             	mov    0x28(%eax),%eax
 804f1f5:	83 f8 02             	cmp    $0x2,%eax
 804f1f8:	74 2e                	je     804f228 <HandleExp+0x40a>
 804f1fa:	8b 45 08             	mov    0x8(%ebp),%eax
 804f1fd:	8b 40 18             	mov    0x18(%eax),%eax
 804f200:	8d 50 30             	lea    0x30(%eax),%edx
 804f203:	8b 45 08             	mov    0x8(%ebp),%eax
 804f206:	8b 40 18             	mov    0x18(%eax),%eax
 804f209:	8b 40 04             	mov    0x4(%eax),%eax
 804f20c:	83 ec 04             	sub    $0x4,%esp
 804f20f:	52                   	push   %edx
 804f210:	50                   	push   %eax
 804f211:	68 20 22 05 08       	push   $0x8052220
 804f216:	e8 a5 94 ff ff       	call   80486c0 <printf@plt>
 804f21b:	83 c4 10             	add    $0x10,%esp
 804f21e:	a1 a4 50 05 08       	mov    0x80550a4,%eax
 804f223:	e9 6a 03 00 00       	jmp    804f592 <HandleExp+0x774>
 804f228:	8b 45 d8             	mov    -0x28(%ebp),%eax
 804f22b:	8b 40 04             	mov    0x4(%eax),%eax
 804f22e:	8b 10                	mov    (%eax),%edx
 804f230:	8b 45 dc             	mov    -0x24(%ebp),%eax
 804f233:	8b 40 04             	mov    0x4(%eax),%eax
 804f236:	8b 40 34             	mov    0x34(%eax),%eax
 804f239:	83 ec 08             	sub    $0x8,%esp
 804f23c:	52                   	push   %edx
 804f23d:	50                   	push   %eax
 804f23e:	e8 6d 94 ff ff       	call   80486b0 <strcmp@plt>
 804f243:	83 c4 10             	add    $0x10,%esp
 804f246:	85 c0                	test   %eax,%eax
 804f248:	74 41                	je     804f28b <HandleExp+0x46d>
 804f24a:	8b 45 08             	mov    0x8(%ebp),%eax
 804f24d:	8b 40 18             	mov    0x18(%eax),%eax
 804f250:	8d 58 30             	lea    0x30(%eax),%ebx
 804f253:	8b 45 dc             	mov    -0x24(%ebp),%eax
 804f256:	8b 40 04             	mov    0x4(%eax),%eax
 804f259:	8b 48 34             	mov    0x34(%eax),%ecx
 804f25c:	8b 45 d8             	mov    -0x28(%ebp),%eax
 804f25f:	8b 40 04             	mov    0x4(%eax),%eax
 804f262:	8b 10                	mov    (%eax),%edx
 804f264:	8b 45 08             	mov    0x8(%ebp),%eax
 804f267:	8b 40 18             	mov    0x18(%eax),%eax
 804f26a:	8b 40 04             	mov    0x4(%eax),%eax
 804f26d:	83 ec 0c             	sub    $0xc,%esp
 804f270:	53                   	push   %ebx
 804f271:	51                   	push   %ecx
 804f272:	52                   	push   %edx
 804f273:	50                   	push   %eax
 804f274:	68 54 22 05 08       	push   $0x8052254
 804f279:	e8 42 94 ff ff       	call   80486c0 <printf@plt>
 804f27e:	83 c4 20             	add    $0x20,%esp
 804f281:	a1 a4 50 05 08       	mov    0x80550a4,%eax
 804f286:	e9 07 03 00 00       	jmp    804f592 <HandleExp+0x774>
 804f28b:	8b 45 dc             	mov    -0x24(%ebp),%eax
 804f28e:	8b 40 04             	mov    0x4(%eax),%eax
 804f291:	8b 40 20             	mov    0x20(%eax),%eax
 804f294:	e9 f9 02 00 00       	jmp    804f592 <HandleExp+0x774>
 804f299:	8b 45 08             	mov    0x8(%ebp),%eax
 804f29c:	8b 40 14             	mov    0x14(%eax),%eax
 804f29f:	8b 40 08             	mov    0x8(%eax),%eax
 804f2a2:	83 f8 07             	cmp    $0x7,%eax
 804f2a5:	0f 85 87 01 00 00    	jne    804f432 <HandleExp+0x614>
 804f2ab:	c7 45 b4 00 00 00 00 	movl   $0x0,-0x4c(%ebp)
 804f2b2:	8b 45 c8             	mov    -0x38(%ebp),%eax
 804f2b5:	8b 40 10             	mov    0x10(%eax),%eax
 804f2b8:	8b 40 08             	mov    0x8(%eax),%eax
 804f2bb:	83 f8 02             	cmp    $0x2,%eax
 804f2be:	75 0c                	jne    804f2cc <HandleExp+0x4ae>
 804f2c0:	c7 45 b4 01 00 00 00 	movl   $0x1,-0x4c(%ebp)
 804f2c7:	e9 db 00 00 00       	jmp    804f3a7 <HandleExp+0x589>
 804f2cc:	8b 45 c8             	mov    -0x38(%ebp),%eax
 804f2cf:	8b 40 10             	mov    0x10(%eax),%eax
 804f2d2:	8b 00                	mov    (%eax),%eax
 804f2d4:	83 ec 08             	sub    $0x8,%esp
 804f2d7:	68 9c 22 05 08       	push   $0x805229c
 804f2dc:	50                   	push   %eax
 804f2dd:	e8 ce 93 ff ff       	call   80486b0 <strcmp@plt>
 804f2e2:	83 c4 10             	add    $0x10,%esp
 804f2e5:	85 c0                	test   %eax,%eax
 804f2e7:	75 60                	jne    804f349 <HandleExp+0x52b>
 804f2e9:	8b 45 c8             	mov    -0x38(%ebp),%eax
 804f2ec:	8b 40 14             	mov    0x14(%eax),%eax
 804f2ef:	8b 00                	mov    (%eax),%eax
 804f2f1:	83 ec 08             	sub    $0x8,%esp
 804f2f4:	68 6c 21 05 08       	push   $0x805216c
 804f2f9:	50                   	push   %eax
 804f2fa:	e8 b1 93 ff ff       	call   80486b0 <strcmp@plt>
 804f2ff:	83 c4 10             	add    $0x10,%esp
 804f302:	85 c0                	test   %eax,%eax
 804f304:	75 43                	jne    804f349 <HandleExp+0x52b>
 804f306:	8b 45 c8             	mov    -0x38(%ebp),%eax
 804f309:	8b 40 18             	mov    0x18(%eax),%eax
 804f30c:	8b 00                	mov    (%eax),%eax
 804f30e:	83 ec 08             	sub    $0x8,%esp
 804f311:	68 9c 22 05 08       	push   $0x805229c
 804f316:	50                   	push   %eax
 804f317:	e8 94 93 ff ff       	call   80486b0 <strcmp@plt>
 804f31c:	83 c4 10             	add    $0x10,%esp
 804f31f:	85 c0                	test   %eax,%eax
 804f321:	75 26                	jne    804f349 <HandleExp+0x52b>
 804f323:	8b 45 c8             	mov    -0x38(%ebp),%eax
 804f326:	8b 40 1c             	mov    0x1c(%eax),%eax
 804f329:	8b 00                	mov    (%eax),%eax
 804f32b:	83 ec 08             	sub    $0x8,%esp
 804f32e:	68 a0 22 05 08       	push   $0x80522a0
 804f333:	50                   	push   %eax
 804f334:	e8 77 93 ff ff       	call   80486b0 <strcmp@plt>
 804f339:	83 c4 10             	add    $0x10,%esp
 804f33c:	85 c0                	test   %eax,%eax
 804f33e:	75 09                	jne    804f349 <HandleExp+0x52b>
 804f340:	c7 45 b4 01 00 00 00 	movl   $0x1,-0x4c(%ebp)
 804f347:	eb 5e                	jmp    804f3a7 <HandleExp+0x589>
 804f349:	8b 45 c8             	mov    -0x38(%ebp),%eax
 804f34c:	8b 40 10             	mov    0x10(%eax),%eax
 804f34f:	8b 00                	mov    (%eax),%eax
 804f351:	83 ec 08             	sub    $0x8,%esp
 804f354:	68 9c 22 05 08       	push   $0x805229c
 804f359:	50                   	push   %eax
 804f35a:	e8 51 93 ff ff       	call   80486b0 <strcmp@plt>
 804f35f:	83 c4 10             	add    $0x10,%esp
 804f362:	85 c0                	test   %eax,%eax
 804f364:	75 41                	jne    804f3a7 <HandleExp+0x589>
 804f366:	8b 45 c8             	mov    -0x38(%ebp),%eax
 804f369:	8b 40 14             	mov    0x14(%eax),%eax
 804f36c:	8b 00                	mov    (%eax),%eax
 804f36e:	83 ec 08             	sub    $0x8,%esp
 804f371:	68 d7 21 05 08       	push   $0x80521d7
 804f376:	50                   	push   %eax
 804f377:	e8 34 93 ff ff       	call   80486b0 <strcmp@plt>
 804f37c:	83 c4 10             	add    $0x10,%esp
 804f37f:	85 c0                	test   %eax,%eax
 804f381:	75 24                	jne    804f3a7 <HandleExp+0x589>
 804f383:	8b 45 c8             	mov    -0x38(%ebp),%eax
 804f386:	8b 40 18             	mov    0x18(%eax),%eax
 804f389:	8b 00                	mov    (%eax),%eax
 804f38b:	83 ec 08             	sub    $0x8,%esp
 804f38e:	68 a3 22 05 08       	push   $0x80522a3
 804f393:	50                   	push   %eax
 804f394:	e8 17 93 ff ff       	call   80486b0 <strcmp@plt>
 804f399:	83 c4 10             	add    $0x10,%esp
 804f39c:	85 c0                	test   %eax,%eax
 804f39e:	75 07                	jne    804f3a7 <HandleExp+0x589>
 804f3a0:	c7 45 b4 01 00 00 00 	movl   $0x1,-0x4c(%ebp)
 804f3a7:	83 7d b4 01          	cmpl   $0x1,-0x4c(%ebp)
 804f3ab:	74 24                	je     804f3d1 <HandleExp+0x5b3>
 804f3ad:	8b 45 c8             	mov    -0x38(%ebp),%eax
 804f3b0:	8b 40 10             	mov    0x10(%eax),%eax
 804f3b3:	8b 40 04             	mov    0x4(%eax),%eax
 804f3b6:	83 ec 08             	sub    $0x8,%esp
 804f3b9:	50                   	push   %eax
 804f3ba:	68 a8 22 05 08       	push   $0x80522a8
 804f3bf:	e8 fc 92 ff ff       	call   80486c0 <printf@plt>
 804f3c4:	83 c4 10             	add    $0x10,%esp
 804f3c7:	a1 a4 50 05 08       	mov    0x80550a4,%eax
 804f3cc:	e9 c1 01 00 00       	jmp    804f592 <HandleExp+0x774>
 804f3d1:	83 ec 0c             	sub    $0xc,%esp
 804f3d4:	ff 75 c8             	pushl  -0x38(%ebp)
 804f3d7:	e8 42 fa ff ff       	call   804ee1e <HandleExp>
 804f3dc:	83 c4 10             	add    $0x10,%esp
 804f3df:	89 45 e0             	mov    %eax,-0x20(%ebp)
 804f3e2:	83 ec 0c             	sub    $0xc,%esp
 804f3e5:	ff 75 cc             	pushl  -0x34(%ebp)
 804f3e8:	e8 31 fa ff ff       	call   804ee1e <HandleExp>
 804f3ed:	83 c4 10             	add    $0x10,%esp
 804f3f0:	89 45 e4             	mov    %eax,-0x1c(%ebp)
 804f3f3:	83 ec 08             	sub    $0x8,%esp
 804f3f6:	ff 75 e4             	pushl  -0x1c(%ebp)
 804f3f9:	ff 75 e0             	pushl  -0x20(%ebp)
 804f3fc:	e8 da f7 ff ff       	call   804ebdb <CheckTypeEq>
 804f401:	83 c4 10             	add    $0x10,%esp
 804f404:	83 f8 01             	cmp    $0x1,%eax
 804f407:	74 21                	je     804f42a <HandleExp+0x60c>
 804f409:	8b 45 c8             	mov    -0x38(%ebp),%eax
 804f40c:	8b 40 04             	mov    0x4(%eax),%eax
 804f40f:	83 ec 08             	sub    $0x8,%esp
 804f412:	50                   	push   %eax
 804f413:	68 fc 22 05 08       	push   $0x80522fc
 804f418:	e8 a3 92 ff ff       	call   80486c0 <printf@plt>
 804f41d:	83 c4 10             	add    $0x10,%esp
 804f420:	a1 a4 50 05 08       	mov    0x80550a4,%eax
 804f425:	e9 68 01 00 00       	jmp    804f592 <HandleExp+0x774>
 804f42a:	8b 45 e0             	mov    -0x20(%ebp),%eax
 804f42d:	e9 60 01 00 00       	jmp    804f592 <HandleExp+0x774>
 804f432:	8b 45 08             	mov    0x8(%ebp),%eax
 804f435:	8b 40 14             	mov    0x14(%eax),%eax
 804f438:	8b 40 08             	mov    0x8(%eax),%eax
 804f43b:	83 f8 06             	cmp    $0x6,%eax
 804f43e:	75 7c                	jne    804f4bc <HandleExp+0x69e>
 804f440:	83 ec 0c             	sub    $0xc,%esp
 804f443:	ff 75 c8             	pushl  -0x38(%ebp)
 804f446:	e8 d3 f9 ff ff       	call   804ee1e <HandleExp>
 804f44b:	83 c4 10             	add    $0x10,%esp
 804f44e:	89 45 e8             	mov    %eax,-0x18(%ebp)
 804f451:	83 ec 0c             	sub    $0xc,%esp
 804f454:	ff 75 cc             	pushl  -0x34(%ebp)
 804f457:	e8 c2 f9 ff ff       	call   804ee1e <HandleExp>
 804f45c:	83 c4 10             	add    $0x10,%esp
 804f45f:	89 45 ec             	mov    %eax,-0x14(%ebp)
 804f462:	8b 45 e8             	mov    -0x18(%ebp),%eax
 804f465:	8b 00                	mov    (%eax),%eax
 804f467:	85 c0                	test   %eax,%eax
 804f469:	75 28                	jne    804f493 <HandleExp+0x675>
 804f46b:	8b 45 e8             	mov    -0x18(%ebp),%eax
 804f46e:	8b 10                	mov    (%eax),%edx
 804f470:	8b 45 ec             	mov    -0x14(%ebp),%eax
 804f473:	8b 00                	mov    (%eax),%eax
 804f475:	39 c2                	cmp    %eax,%edx
 804f477:	75 1a                	jne    804f493 <HandleExp+0x675>
 804f479:	8b 45 e8             	mov    -0x18(%ebp),%eax
 804f47c:	8b 50 04             	mov    0x4(%eax),%edx
 804f47f:	8b 45 ec             	mov    -0x14(%ebp),%eax
 804f482:	8b 40 04             	mov    0x4(%eax),%eax
 804f485:	39 c2                	cmp    %eax,%edx
 804f487:	75 0a                	jne    804f493 <HandleExp+0x675>
 804f489:	8b 45 e8             	mov    -0x18(%ebp),%eax
 804f48c:	8b 40 04             	mov    0x4(%eax),%eax
 804f48f:	85 c0                	test   %eax,%eax
 804f491:	74 21                	je     804f4b4 <HandleExp+0x696>
 804f493:	8b 45 c8             	mov    -0x38(%ebp),%eax
 804f496:	8b 40 04             	mov    0x4(%eax),%eax
 804f499:	83 ec 08             	sub    $0x8,%esp
 804f49c:	50                   	push   %eax
 804f49d:	68 38 23 05 08       	push   $0x8052338
 804f4a2:	e8 19 92 ff ff       	call   80486c0 <printf@plt>
 804f4a7:	83 c4 10             	add    $0x10,%esp
 804f4aa:	a1 a4 50 05 08       	mov    0x80550a4,%eax
 804f4af:	e9 de 00 00 00       	jmp    804f592 <HandleExp+0x774>
 804f4b4:	8b 45 e8             	mov    -0x18(%ebp),%eax
 804f4b7:	e9 d6 00 00 00       	jmp    804f592 <HandleExp+0x774>
 804f4bc:	8b 45 08             	mov    0x8(%ebp),%eax
 804f4bf:	8b 40 14             	mov    0x14(%eax),%eax
 804f4c2:	8b 40 08             	mov    0x8(%eax),%eax
 804f4c5:	83 f8 08             	cmp    $0x8,%eax
 804f4c8:	75 6c                	jne    804f536 <HandleExp+0x718>
 804f4ca:	83 ec 0c             	sub    $0xc,%esp
 804f4cd:	ff 75 c8             	pushl  -0x38(%ebp)
 804f4d0:	e8 49 f9 ff ff       	call   804ee1e <HandleExp>
 804f4d5:	83 c4 10             	add    $0x10,%esp
 804f4d8:	89 45 f0             	mov    %eax,-0x10(%ebp)
 804f4db:	83 ec 0c             	sub    $0xc,%esp
 804f4de:	ff 75 cc             	pushl  -0x34(%ebp)
 804f4e1:	e8 38 f9 ff ff       	call   804ee1e <HandleExp>
 804f4e6:	83 c4 10             	add    $0x10,%esp
 804f4e9:	89 45 f4             	mov    %eax,-0xc(%ebp)
 804f4ec:	8b 45 f0             	mov    -0x10(%ebp),%eax
 804f4ef:	8b 00                	mov    (%eax),%eax
 804f4f1:	85 c0                	test   %eax,%eax
 804f4f3:	75 1e                	jne    804f513 <HandleExp+0x6f5>
 804f4f5:	8b 45 f0             	mov    -0x10(%ebp),%eax
 804f4f8:	8b 10                	mov    (%eax),%edx
 804f4fa:	8b 45 f4             	mov    -0xc(%ebp),%eax
 804f4fd:	8b 00                	mov    (%eax),%eax
 804f4ff:	39 c2                	cmp    %eax,%edx
 804f501:	75 10                	jne    804f513 <HandleExp+0x6f5>
 804f503:	8b 45 f0             	mov    -0x10(%ebp),%eax
 804f506:	8b 50 04             	mov    0x4(%eax),%edx
 804f509:	8b 45 f4             	mov    -0xc(%ebp),%eax
 804f50c:	8b 40 04             	mov    0x4(%eax),%eax
 804f50f:	39 c2                	cmp    %eax,%edx
 804f511:	74 1e                	je     804f531 <HandleExp+0x713>
 804f513:	8b 45 c8             	mov    -0x38(%ebp),%eax
 804f516:	8b 40 04             	mov    0x4(%eax),%eax
 804f519:	83 ec 08             	sub    $0x8,%esp
 804f51c:	50                   	push   %eax
 804f51d:	68 38 23 05 08       	push   $0x8052338
 804f522:	e8 99 91 ff ff       	call   80486c0 <printf@plt>
 804f527:	83 c4 10             	add    $0x10,%esp
 804f52a:	a1 a4 50 05 08       	mov    0x80550a4,%eax
 804f52f:	eb 61                	jmp    804f592 <HandleExp+0x774>
 804f531:	8b 45 f0             	mov    -0x10(%ebp),%eax
 804f534:	eb 5c                	jmp    804f592 <HandleExp+0x774>
 804f536:	8b 45 08             	mov    0x8(%ebp),%eax
 804f539:	8b 40 18             	mov    0x18(%eax),%eax
 804f53c:	8b 08                	mov    (%eax),%ecx
 804f53e:	8b 45 08             	mov    0x8(%ebp),%eax
 804f541:	8b 40 14             	mov    0x14(%eax),%eax
 804f544:	8b 10                	mov    (%eax),%edx
 804f546:	8b 45 08             	mov    0x8(%ebp),%eax
 804f549:	8b 40 10             	mov    0x10(%eax),%eax
 804f54c:	8b 00                	mov    (%eax),%eax
 804f54e:	51                   	push   %ecx
 804f54f:	52                   	push   %edx
 804f550:	50                   	push   %eax
 804f551:	68 70 23 05 08       	push   $0x8052370
 804f556:	e8 65 91 ff ff       	call   80486c0 <printf@plt>
 804f55b:	83 c4 10             	add    $0x10,%esp
 804f55e:	a1 a4 50 05 08       	mov    0x80550a4,%eax
 804f563:	eb 2d                	jmp    804f592 <HandleExp+0x774>
 804f565:	8b 45 08             	mov    0x8(%ebp),%eax
 804f568:	8b 40 18             	mov    0x18(%eax),%eax
 804f56b:	8b 08                	mov    (%eax),%ecx
 804f56d:	8b 45 08             	mov    0x8(%ebp),%eax
 804f570:	8b 40 14             	mov    0x14(%eax),%eax
 804f573:	8b 10                	mov    (%eax),%edx
 804f575:	8b 45 08             	mov    0x8(%ebp),%eax
 804f578:	8b 40 10             	mov    0x10(%eax),%eax
 804f57b:	8b 00                	mov    (%eax),%eax
 804f57d:	51                   	push   %ecx
 804f57e:	52                   	push   %edx
 804f57f:	50                   	push   %eax
 804f580:	68 70 23 05 08       	push   $0x8052370
 804f585:	e8 36 91 ff ff       	call   80486c0 <printf@plt>
 804f58a:	83 c4 10             	add    $0x10,%esp
 804f58d:	a1 a4 50 05 08       	mov    0x80550a4,%eax
 804f592:	8b 5d fc             	mov    -0x4(%ebp),%ebx
 804f595:	c9                   	leave  
 804f596:	c3                   	ret    

0804f597 <ExpGetName>:
 804f597:	55                   	push   %ebp
 804f598:	89 e5                	mov    %esp,%ebp
 804f59a:	eb 09                	jmp    804f5a5 <ExpGetName+0xe>
 804f59c:	8b 45 08             	mov    0x8(%ebp),%eax
 804f59f:	8b 40 10             	mov    0x10(%eax),%eax
 804f5a2:	89 45 08             	mov    %eax,0x8(%ebp)
 804f5a5:	8b 45 08             	mov    0x8(%ebp),%eax
 804f5a8:	8b 40 08             	mov    0x8(%eax),%eax
 804f5ab:	83 f8 02             	cmp    $0x2,%eax
 804f5ae:	74 16                	je     804f5c6 <ExpGetName+0x2f>
 804f5b0:	8b 45 08             	mov    0x8(%ebp),%eax
 804f5b3:	8b 40 08             	mov    0x8(%eax),%eax
 804f5b6:	83 f8 04             	cmp    $0x4,%eax
 804f5b9:	74 0b                	je     804f5c6 <ExpGetName+0x2f>
 804f5bb:	8b 45 08             	mov    0x8(%ebp),%eax
 804f5be:	8b 40 08             	mov    0x8(%eax),%eax
 804f5c1:	83 f8 05             	cmp    $0x5,%eax
 804f5c4:	75 d6                	jne    804f59c <ExpGetName+0x5>
 804f5c6:	8b 45 08             	mov    0x8(%ebp),%eax
 804f5c9:	83 c0 30             	add    $0x30,%eax
 804f5cc:	5d                   	pop    %ebp
 804f5cd:	c3                   	ret    

0804f5ce <CheckArgs>:
 804f5ce:	55                   	push   %ebp
 804f5cf:	89 e5                	mov    %esp,%ebp
 804f5d1:	83 ec 18             	sub    $0x18,%esp
 804f5d4:	8b 45 08             	mov    0x8(%ebp),%eax
 804f5d7:	89 45 ec             	mov    %eax,-0x14(%ebp)
 804f5da:	8b 45 08             	mov    0x8(%ebp),%eax
 804f5dd:	8b 40 10             	mov    0x10(%eax),%eax
 804f5e0:	89 45 f0             	mov    %eax,-0x10(%ebp)
 804f5e3:	8b 45 ec             	mov    -0x14(%ebp),%eax
 804f5e6:	8b 40 10             	mov    0x10(%eax),%eax
 804f5e9:	89 45 f0             	mov    %eax,-0x10(%ebp)
 804f5ec:	83 7d 0c 00          	cmpl   $0x0,0xc(%ebp)
 804f5f0:	75 0a                	jne    804f5fc <CheckArgs+0x2e>
 804f5f2:	b8 00 00 00 00       	mov    $0x0,%eax
 804f5f7:	e9 97 00 00 00       	jmp    804f693 <CheckArgs+0xc5>
 804f5fc:	8b 45 ec             	mov    -0x14(%ebp),%eax
 804f5ff:	8b 40 10             	mov    0x10(%eax),%eax
 804f602:	83 ec 0c             	sub    $0xc,%esp
 804f605:	50                   	push   %eax
 804f606:	e8 13 f8 ff ff       	call   804ee1e <HandleExp>
 804f60b:	83 c4 10             	add    $0x10,%esp
 804f60e:	89 45 f4             	mov    %eax,-0xc(%ebp)
 804f611:	8b 45 0c             	mov    0xc(%ebp),%eax
 804f614:	8b 40 20             	mov    0x20(%eax),%eax
 804f617:	8b 10                	mov    (%eax),%edx
 804f619:	8b 45 f4             	mov    -0xc(%ebp),%eax
 804f61c:	8b 00                	mov    (%eax),%eax
 804f61e:	83 ec 04             	sub    $0x4,%esp
 804f621:	52                   	push   %edx
 804f622:	50                   	push   %eax
 804f623:	68 98 23 05 08       	push   $0x8052398
 804f628:	e8 93 90 ff ff       	call   80486c0 <printf@plt>
 804f62d:	83 c4 10             	add    $0x10,%esp
 804f630:	8b 45 0c             	mov    0xc(%ebp),%eax
 804f633:	8b 40 20             	mov    0x20(%eax),%eax
 804f636:	83 ec 08             	sub    $0x8,%esp
 804f639:	50                   	push   %eax
 804f63a:	ff 75 f4             	pushl  -0xc(%ebp)
 804f63d:	e8 99 f5 ff ff       	call   804ebdb <CheckTypeEq>
 804f642:	83 c4 10             	add    $0x10,%esp
 804f645:	83 f8 01             	cmp    $0x1,%eax
 804f648:	74 07                	je     804f651 <CheckArgs+0x83>
 804f64a:	b8 00 00 00 00       	mov    $0x0,%eax
 804f64f:	eb 42                	jmp    804f693 <CheckArgs+0xc5>
 804f651:	8b 45 ec             	mov    -0x14(%ebp),%eax
 804f654:	8b 40 18             	mov    0x18(%eax),%eax
 804f657:	89 45 ec             	mov    %eax,-0x14(%ebp)
 804f65a:	8b 45 0c             	mov    0xc(%ebp),%eax
 804f65d:	8b 40 38             	mov    0x38(%eax),%eax
 804f660:	89 45 0c             	mov    %eax,0xc(%ebp)
 804f663:	83 7d ec 00          	cmpl   $0x0,-0x14(%ebp)
 804f667:	0f 85 76 ff ff ff    	jne    804f5e3 <CheckArgs+0x15>
 804f66d:	83 7d 0c 00          	cmpl   $0x0,0xc(%ebp)
 804f671:	75 07                	jne    804f67a <CheckArgs+0xac>
 804f673:	b8 01 00 00 00       	mov    $0x1,%eax
 804f678:	eb 19                	jmp    804f693 <CheckArgs+0xc5>
 804f67a:	8b 45 0c             	mov    0xc(%ebp),%eax
 804f67d:	83 ec 08             	sub    $0x8,%esp
 804f680:	50                   	push   %eax
 804f681:	68 c2 23 05 08       	push   $0x80523c2
 804f686:	e8 35 90 ff ff       	call   80486c0 <printf@plt>
 804f68b:	83 c4 10             	add    $0x10,%esp
 804f68e:	b8 00 00 00 00       	mov    $0x0,%eax
 804f693:	c9                   	leave  
 804f694:	c3                   	ret    

0804f695 <HandleExtDecList>:
 804f695:	55                   	push   %ebp
 804f696:	89 e5                	mov    %esp,%ebp
 804f698:	83 ec 18             	sub    $0x18,%esp
 804f69b:	8b 45 08             	mov    0x8(%ebp),%eax
 804f69e:	89 45 f0             	mov    %eax,-0x10(%ebp)
 804f6a1:	8b 45 08             	mov    0x8(%ebp),%eax
 804f6a4:	8b 40 10             	mov    0x10(%eax),%eax
 804f6a7:	89 45 f4             	mov    %eax,-0xc(%ebp)
 804f6aa:	8b 45 f0             	mov    -0x10(%ebp),%eax
 804f6ad:	8b 40 10             	mov    0x10(%eax),%eax
 804f6b0:	89 45 f4             	mov    %eax,-0xc(%ebp)
 804f6b3:	83 ec 04             	sub    $0x4,%esp
 804f6b6:	6a 00                	push   $0x0
 804f6b8:	ff 75 0c             	pushl  0xc(%ebp)
 804f6bb:	ff 75 f4             	pushl  -0xc(%ebp)
 804f6be:	e8 e6 0b 00 00       	call   80502a9 <HandleVarDec>
 804f6c3:	83 c4 10             	add    $0x10,%esp
 804f6c6:	8b 45 f0             	mov    -0x10(%ebp),%eax
 804f6c9:	8b 40 18             	mov    0x18(%eax),%eax
 804f6cc:	89 45 f0             	mov    %eax,-0x10(%ebp)
 804f6cf:	83 7d f0 00          	cmpl   $0x0,-0x10(%ebp)
 804f6d3:	75 d5                	jne    804f6aa <HandleExtDecList+0x15>
 804f6d5:	90                   	nop
 804f6d6:	c9                   	leave  
 804f6d7:	c3                   	ret    

0804f6d8 <HandleExtDef>:
 804f6d8:	55                   	push   %ebp
 804f6d9:	89 e5                	mov    %esp,%ebp
 804f6db:	83 ec 28             	sub    $0x28,%esp
 804f6de:	8b 45 08             	mov    0x8(%ebp),%eax
 804f6e1:	8b 40 10             	mov    0x10(%eax),%eax
 804f6e4:	83 ec 0c             	sub    $0xc,%esp
 804f6e7:	50                   	push   %eax
 804f6e8:	e8 b7 06 00 00       	call   804fda4 <HandleSpecifier>
 804f6ed:	83 c4 10             	add    $0x10,%esp
 804f6f0:	89 45 e4             	mov    %eax,-0x1c(%ebp)
 804f6f3:	8b 45 08             	mov    0x8(%ebp),%eax
 804f6f6:	8b 40 14             	mov    0x14(%eax),%eax
 804f6f9:	8b 00                	mov    (%eax),%eax
 804f6fb:	83 ec 08             	sub    $0x8,%esp
 804f6fe:	68 e0 23 05 08       	push   $0x80523e0
 804f703:	50                   	push   %eax
 804f704:	e8 a7 8f ff ff       	call   80486b0 <strcmp@plt>
 804f709:	83 c4 10             	add    $0x10,%esp
 804f70c:	85 c0                	test   %eax,%eax
 804f70e:	75 1a                	jne    804f72a <HandleExtDef+0x52>
 804f710:	8b 45 08             	mov    0x8(%ebp),%eax
 804f713:	8b 40 14             	mov    0x14(%eax),%eax
 804f716:	83 ec 08             	sub    $0x8,%esp
 804f719:	ff 75 e4             	pushl  -0x1c(%ebp)
 804f71c:	50                   	push   %eax
 804f71d:	e8 73 ff ff ff       	call   804f695 <HandleExtDecList>
 804f722:	83 c4 10             	add    $0x10,%esp
 804f725:	e9 ad 01 00 00       	jmp    804f8d7 <HandleExtDef+0x1ff>
 804f72a:	8b 45 08             	mov    0x8(%ebp),%eax
 804f72d:	8b 40 14             	mov    0x14(%eax),%eax
 804f730:	8b 00                	mov    (%eax),%eax
 804f732:	83 ec 08             	sub    $0x8,%esp
 804f735:	68 eb 23 05 08       	push   $0x80523eb
 804f73a:	50                   	push   %eax
 804f73b:	e8 70 8f ff ff       	call   80486b0 <strcmp@plt>
 804f740:	83 c4 10             	add    $0x10,%esp
 804f743:	85 c0                	test   %eax,%eax
 804f745:	0f 84 8c 01 00 00    	je     804f8d7 <HandleExtDef+0x1ff>
 804f74b:	8b 45 08             	mov    0x8(%ebp),%eax
 804f74e:	8b 40 14             	mov    0x14(%eax),%eax
 804f751:	8b 00                	mov    (%eax),%eax
 804f753:	83 ec 08             	sub    $0x8,%esp
 804f756:	68 f0 23 05 08       	push   $0x80523f0
 804f75b:	50                   	push   %eax
 804f75c:	e8 4f 8f ff ff       	call   80486b0 <strcmp@plt>
 804f761:	83 c4 10             	add    $0x10,%esp
 804f764:	85 c0                	test   %eax,%eax
 804f766:	75 3d                	jne    804f7a5 <HandleExtDef+0xcd>
 804f768:	8b 45 08             	mov    0x8(%ebp),%eax
 804f76b:	8b 40 18             	mov    0x18(%eax),%eax
 804f76e:	8b 00                	mov    (%eax),%eax
 804f770:	83 ec 08             	sub    $0x8,%esp
 804f773:	68 eb 23 05 08       	push   $0x80523eb
 804f778:	50                   	push   %eax
 804f779:	e8 32 8f ff ff       	call   80486b0 <strcmp@plt>
 804f77e:	83 c4 10             	add    $0x10,%esp
 804f781:	85 c0                	test   %eax,%eax
 804f783:	75 20                	jne    804f7a5 <HandleExtDef+0xcd>
 804f785:	8b 45 08             	mov    0x8(%ebp),%eax
 804f788:	8b 40 14             	mov    0x14(%eax),%eax
 804f78b:	83 ec 04             	sub    $0x4,%esp
 804f78e:	6a 04                	push   $0x4
 804f790:	ff 75 e4             	pushl  -0x1c(%ebp)
 804f793:	50                   	push   %eax
 804f794:	e8 a4 02 00 00       	call   804fa3d <HandleFunDec>
 804f799:	83 c4 10             	add    $0x10,%esp
 804f79c:	89 45 e8             	mov    %eax,-0x18(%ebp)
 804f79f:	90                   	nop
 804f7a0:	e9 32 01 00 00       	jmp    804f8d7 <HandleExtDef+0x1ff>
 804f7a5:	8b 45 08             	mov    0x8(%ebp),%eax
 804f7a8:	8b 40 14             	mov    0x14(%eax),%eax
 804f7ab:	8b 00                	mov    (%eax),%eax
 804f7ad:	83 ec 08             	sub    $0x8,%esp
 804f7b0:	68 f0 23 05 08       	push   $0x80523f0
 804f7b5:	50                   	push   %eax
 804f7b6:	e8 f5 8e ff ff       	call   80486b0 <strcmp@plt>
 804f7bb:	83 c4 10             	add    $0x10,%esp
 804f7be:	85 c0                	test   %eax,%eax
 804f7c0:	0f 85 11 01 00 00    	jne    804f8d7 <HandleExtDef+0x1ff>
 804f7c6:	8b 45 08             	mov    0x8(%ebp),%eax
 804f7c9:	8b 40 18             	mov    0x18(%eax),%eax
 804f7cc:	8b 00                	mov    (%eax),%eax
 804f7ce:	83 ec 08             	sub    $0x8,%esp
 804f7d1:	68 f7 23 05 08       	push   $0x80523f7
 804f7d6:	50                   	push   %eax
 804f7d7:	e8 d4 8e ff ff       	call   80486b0 <strcmp@plt>
 804f7dc:	83 c4 10             	add    $0x10,%esp
 804f7df:	85 c0                	test   %eax,%eax
 804f7e1:	0f 85 f0 00 00 00    	jne    804f8d7 <HandleExtDef+0x1ff>
 804f7e7:	a1 0c 5d 05 08       	mov    0x8055d0c,%eax
 804f7ec:	85 c0                	test   %eax,%eax
 804f7ee:	74 73                	je     804f863 <HandleExtDef+0x18b>
 804f7f0:	83 ec 08             	sub    $0x8,%esp
 804f7f3:	68 fe 23 05 08       	push   $0x80523fe
 804f7f8:	68 60 51 05 08       	push   $0x8055160
 804f7fd:	e8 41 ef ff ff       	call   804e743 <SymbolTable_Find>
 804f802:	83 c4 10             	add    $0x10,%esp
 804f805:	89 45 ec             	mov    %eax,-0x14(%ebp)
 804f808:	83 7d ec 00          	cmpl   $0x0,-0x14(%ebp)
 804f80c:	75 12                	jne    804f820 <HandleExtDef+0x148>
 804f80e:	83 ec 0c             	sub    $0xc,%esp
 804f811:	68 03 24 05 08       	push   $0x8052403
 804f816:	e8 65 8f ff ff       	call   8048780 <puts@plt>
 804f81b:	83 c4 10             	add    $0x10,%esp
 804f81e:	eb 17                	jmp    804f837 <HandleExtDef+0x15f>
 804f820:	8b 45 ec             	mov    -0x14(%ebp),%eax
 804f823:	8b 40 04             	mov    0x4(%eax),%eax
 804f826:	83 ec 08             	sub    $0x8,%esp
 804f829:	50                   	push   %eax
 804f82a:	68 14 24 05 08       	push   $0x8052414
 804f82f:	e8 8c 8e ff ff       	call   80486c0 <printf@plt>
 804f834:	83 c4 10             	add    $0x10,%esp
 804f837:	8b 45 08             	mov    0x8(%ebp),%eax
 804f83a:	8b 40 10             	mov    0x10(%eax),%eax
 804f83d:	8b 10                	mov    (%eax),%edx
 804f83f:	a1 0c 5d 05 08       	mov    0x8055d0c,%eax
 804f844:	8b 40 04             	mov    0x4(%eax),%eax
 804f847:	8b 40 28             	mov    0x28(%eax),%eax
 804f84a:	8b 0d 0c 5d 05 08    	mov    0x8055d0c,%ecx
 804f850:	8b 49 04             	mov    0x4(%ecx),%ecx
 804f853:	52                   	push   %edx
 804f854:	50                   	push   %eax
 804f855:	51                   	push   %ecx
 804f856:	68 24 24 05 08       	push   $0x8052424
 804f85b:	e8 60 8e ff ff       	call   80486c0 <printf@plt>
 804f860:	83 c4 10             	add    $0x10,%esp
 804f863:	8b 45 08             	mov    0x8(%ebp),%eax
 804f866:	8b 40 14             	mov    0x14(%eax),%eax
 804f869:	83 ec 04             	sub    $0x4,%esp
 804f86c:	6a 05                	push   $0x5
 804f86e:	ff 75 e4             	pushl  -0x1c(%ebp)
 804f871:	50                   	push   %eax
 804f872:	e8 c6 01 00 00       	call   804fa3d <HandleFunDec>
 804f877:	83 c4 10             	add    $0x10,%esp
 804f87a:	89 45 f0             	mov    %eax,-0x10(%ebp)
 804f87d:	8b 45 f0             	mov    -0x10(%ebp),%eax
 804f880:	c7 40 24 01 00 00 00 	movl   $0x1,0x24(%eax)
 804f887:	8b 45 f0             	mov    -0x10(%ebp),%eax
 804f88a:	8b 50 20             	mov    0x20(%eax),%edx
 804f88d:	8b 45 08             	mov    0x8(%ebp),%eax
 804f890:	8b 40 18             	mov    0x18(%eax),%eax
 804f893:	83 ec 08             	sub    $0x8,%esp
 804f896:	52                   	push   %edx
 804f897:	50                   	push   %eax
 804f898:	e8 3d 00 00 00       	call   804f8da <HandleCompSt>
 804f89d:	83 c4 10             	add    $0x10,%esp
 804f8a0:	89 45 f4             	mov    %eax,-0xc(%ebp)
 804f8a3:	8b 45 f0             	mov    -0x10(%ebp),%eax
 804f8a6:	8b 40 20             	mov    0x20(%eax),%eax
 804f8a9:	83 ec 08             	sub    $0x8,%esp
 804f8ac:	ff 75 f4             	pushl  -0xc(%ebp)
 804f8af:	50                   	push   %eax
 804f8b0:	e8 26 f3 ff ff       	call   804ebdb <CheckTypeEq>
 804f8b5:	83 c4 10             	add    $0x10,%esp
 804f8b8:	83 f8 01             	cmp    $0x1,%eax
 804f8bb:	74 1a                	je     804f8d7 <HandleExtDef+0x1ff>
 804f8bd:	8b 45 08             	mov    0x8(%ebp),%eax
 804f8c0:	8b 40 14             	mov    0x14(%eax),%eax
 804f8c3:	8b 40 04             	mov    0x4(%eax),%eax
 804f8c6:	83 ec 08             	sub    $0x8,%esp
 804f8c9:	50                   	push   %eax
 804f8ca:	68 48 24 05 08       	push   $0x8052448
 804f8cf:	e8 ec 8d ff ff       	call   80486c0 <printf@plt>
 804f8d4:	83 c4 10             	add    $0x10,%esp
 804f8d7:	90                   	nop
 804f8d8:	c9                   	leave  
 804f8d9:	c3                   	ret    

0804f8da <HandleCompSt>:
 804f8da:	55                   	push   %ebp
 804f8db:	89 e5                	mov    %esp,%ebp
 804f8dd:	83 ec 08             	sub    $0x8,%esp
 804f8e0:	8b 45 08             	mov    0x8(%ebp),%eax
 804f8e3:	8b 40 14             	mov    0x14(%eax),%eax
 804f8e6:	83 ec 04             	sub    $0x4,%esp
 804f8e9:	6a 00                	push   $0x0
 804f8eb:	6a 00                	push   $0x0
 804f8ed:	50                   	push   %eax
 804f8ee:	e8 48 08 00 00       	call   805013b <HandleDefList>
 804f8f3:	83 c4 10             	add    $0x10,%esp
 804f8f6:	8b 45 08             	mov    0x8(%ebp),%eax
 804f8f9:	8b 40 18             	mov    0x18(%eax),%eax
 804f8fc:	83 ec 08             	sub    $0x8,%esp
 804f8ff:	ff 75 0c             	pushl  0xc(%ebp)
 804f902:	50                   	push   %eax
 804f903:	e8 05 00 00 00       	call   804f90d <HandleStmtList>
 804f908:	83 c4 10             	add    $0x10,%esp
 804f90b:	c9                   	leave  
 804f90c:	c3                   	ret    

0804f90d <HandleStmtList>:
 804f90d:	55                   	push   %ebp
 804f90e:	89 e5                	mov    %esp,%ebp
 804f910:	83 ec 18             	sub    $0x18,%esp
 804f913:	8b 45 08             	mov    0x8(%ebp),%eax
 804f916:	89 45 e8             	mov    %eax,-0x18(%ebp)
 804f919:	e9 10 01 00 00       	jmp    804fa2e <HandleStmtList+0x121>
 804f91e:	8b 45 e8             	mov    -0x18(%ebp),%eax
 804f921:	8b 40 10             	mov    0x10(%eax),%eax
 804f924:	89 45 f0             	mov    %eax,-0x10(%ebp)
 804f927:	c7 45 ec 00 00 00 00 	movl   $0x0,-0x14(%ebp)
 804f92e:	8b 45 f0             	mov    -0x10(%ebp),%eax
 804f931:	8b 40 10             	mov    0x10(%eax),%eax
 804f934:	8b 00                	mov    (%eax),%eax
 804f936:	83 ec 08             	sub    $0x8,%esp
 804f939:	68 f7 23 05 08       	push   $0x80523f7
 804f93e:	50                   	push   %eax
 804f93f:	e8 6c 8d ff ff       	call   80486b0 <strcmp@plt>
 804f944:	83 c4 10             	add    $0x10,%esp
 804f947:	85 c0                	test   %eax,%eax
 804f949:	75 15                	jne    804f960 <HandleStmtList+0x53>
 804f94b:	8b 45 f0             	mov    -0x10(%ebp),%eax
 804f94e:	8b 40 10             	mov    0x10(%eax),%eax
 804f951:	83 ec 08             	sub    $0x8,%esp
 804f954:	ff 75 0c             	pushl  0xc(%ebp)
 804f957:	50                   	push   %eax
 804f958:	e8 7d ff ff ff       	call   804f8da <HandleCompSt>
 804f95d:	83 c4 10             	add    $0x10,%esp
 804f960:	8b 45 f0             	mov    -0x10(%ebp),%eax
 804f963:	8b 40 10             	mov    0x10(%eax),%eax
 804f966:	8b 00                	mov    (%eax),%eax
 804f968:	83 ec 08             	sub    $0x8,%esp
 804f96b:	68 7e 24 05 08       	push   $0x805247e
 804f970:	50                   	push   %eax
 804f971:	e8 3a 8d ff ff       	call   80486b0 <strcmp@plt>
 804f976:	83 c4 10             	add    $0x10,%esp
 804f979:	85 c0                	test   %eax,%eax
 804f97b:	0f 85 99 00 00 00    	jne    804fa1a <HandleStmtList+0x10d>
 804f981:	8b 45 f0             	mov    -0x10(%ebp),%eax
 804f984:	8b 40 14             	mov    0x14(%eax),%eax
 804f987:	83 ec 0c             	sub    $0xc,%esp
 804f98a:	50                   	push   %eax
 804f98b:	e8 8e f4 ff ff       	call   804ee1e <HandleExp>
 804f990:	83 c4 10             	add    $0x10,%esp
 804f993:	89 45 f4             	mov    %eax,-0xc(%ebp)
 804f996:	83 ec 08             	sub    $0x8,%esp
 804f999:	ff 75 f4             	pushl  -0xc(%ebp)
 804f99c:	ff 75 0c             	pushl  0xc(%ebp)
 804f99f:	e8 37 f2 ff ff       	call   804ebdb <CheckTypeEq>
 804f9a4:	83 c4 10             	add    $0x10,%esp
 804f9a7:	83 f8 01             	cmp    $0x1,%eax
 804f9aa:	74 79                	je     804fa25 <HandleStmtList+0x118>
 804f9ac:	8b 45 f0             	mov    -0x10(%ebp),%eax
 804f9af:	8b 40 04             	mov    0x4(%eax),%eax
 804f9b2:	83 ec 08             	sub    $0x8,%esp
 804f9b5:	50                   	push   %eax
 804f9b6:	68 48 24 05 08       	push   $0x8052448
 804f9bb:	e8 00 8d ff ff       	call   80486c0 <printf@plt>
 804f9c0:	83 c4 10             	add    $0x10,%esp
 804f9c3:	eb 60                	jmp    804fa25 <HandleStmtList+0x118>
 804f9c5:	8b 45 f0             	mov    -0x10(%ebp),%eax
 804f9c8:	8b 55 ec             	mov    -0x14(%ebp),%edx
 804f9cb:	83 c2 04             	add    $0x4,%edx
 804f9ce:	8b 04 90             	mov    (%eax,%edx,4),%eax
 804f9d1:	85 c0                	test   %eax,%eax
 804f9d3:	75 06                	jne    804f9db <HandleStmtList+0xce>
 804f9d5:	83 45 ec 01          	addl   $0x1,-0x14(%ebp)
 804f9d9:	eb 3f                	jmp    804fa1a <HandleStmtList+0x10d>
 804f9db:	8b 45 f0             	mov    -0x10(%ebp),%eax
 804f9de:	8b 55 ec             	mov    -0x14(%ebp),%edx
 804f9e1:	83 c2 04             	add    $0x4,%edx
 804f9e4:	8b 04 90             	mov    (%eax,%edx,4),%eax
 804f9e7:	8b 00                	mov    (%eax),%eax
 804f9e9:	83 ec 08             	sub    $0x8,%esp
 804f9ec:	68 9c 22 05 08       	push   $0x805229c
 804f9f1:	50                   	push   %eax
 804f9f2:	e8 b9 8c ff ff       	call   80486b0 <strcmp@plt>
 804f9f7:	83 c4 10             	add    $0x10,%esp
 804f9fa:	85 c0                	test   %eax,%eax
 804f9fc:	75 18                	jne    804fa16 <HandleStmtList+0x109>
 804f9fe:	8b 45 f0             	mov    -0x10(%ebp),%eax
 804fa01:	8b 55 ec             	mov    -0x14(%ebp),%edx
 804fa04:	83 c2 04             	add    $0x4,%edx
 804fa07:	8b 04 90             	mov    (%eax,%edx,4),%eax
 804fa0a:	83 ec 0c             	sub    $0xc,%esp
 804fa0d:	50                   	push   %eax
 804fa0e:	e8 0b f4 ff ff       	call   804ee1e <HandleExp>
 804fa13:	83 c4 10             	add    $0x10,%esp
 804fa16:	83 45 ec 01          	addl   $0x1,-0x14(%ebp)
 804fa1a:	8b 45 f0             	mov    -0x10(%ebp),%eax
 804fa1d:	8b 40 0c             	mov    0xc(%eax),%eax
 804fa20:	3b 45 ec             	cmp    -0x14(%ebp),%eax
 804fa23:	7f a0                	jg     804f9c5 <HandleStmtList+0xb8>
 804fa25:	8b 45 e8             	mov    -0x18(%ebp),%eax
 804fa28:	8b 40 14             	mov    0x14(%eax),%eax
 804fa2b:	89 45 e8             	mov    %eax,-0x18(%ebp)
 804fa2e:	83 7d e8 00          	cmpl   $0x0,-0x18(%ebp)
 804fa32:	0f 85 e6 fe ff ff    	jne    804f91e <HandleStmtList+0x11>
 804fa38:	8b 45 0c             	mov    0xc(%ebp),%eax
 804fa3b:	c9                   	leave  
 804fa3c:	c3                   	ret    

0804fa3d <HandleFunDec>:
 804fa3d:	55                   	push   %ebp
 804fa3e:	89 e5                	mov    %esp,%ebp
 804fa40:	83 ec 18             	sub    $0x18,%esp
 804fa43:	8b 45 08             	mov    0x8(%ebp),%eax
 804fa46:	8b 40 10             	mov    0x10(%eax),%eax
 804fa49:	89 45 ec             	mov    %eax,-0x14(%ebp)
 804fa4c:	83 ec 0c             	sub    $0xc,%esp
 804fa4f:	6a 3c                	push   $0x3c
 804fa51:	e8 1a 8d ff ff       	call   8048770 <malloc@plt>
 804fa56:	83 c4 10             	add    $0x10,%esp
 804fa59:	89 45 e8             	mov    %eax,-0x18(%ebp)
 804fa5c:	83 ec 04             	sub    $0x4,%esp
 804fa5f:	6a 3c                	push   $0x3c
 804fa61:	6a 00                	push   $0x0
 804fa63:	ff 75 e8             	pushl  -0x18(%ebp)
 804fa66:	e8 75 8d ff ff       	call   80487e0 <memset@plt>
 804fa6b:	83 c4 10             	add    $0x10,%esp
 804fa6e:	8b 45 e8             	mov    -0x18(%ebp),%eax
 804fa71:	c7 40 28 03 00 00 00 	movl   $0x3,0x28(%eax)
 804fa78:	8b 45 ec             	mov    -0x14(%ebp),%eax
 804fa7b:	8d 50 30             	lea    0x30(%eax),%edx
 804fa7e:	8b 45 e8             	mov    -0x18(%ebp),%eax
 804fa81:	83 ec 08             	sub    $0x8,%esp
 804fa84:	52                   	push   %edx
 804fa85:	50                   	push   %eax
 804fa86:	e8 c5 8c ff ff       	call   8048750 <strcpy@plt>
 804fa8b:	83 c4 10             	add    $0x10,%esp
 804fa8e:	8b 45 ec             	mov    -0x14(%ebp),%eax
 804fa91:	8b 50 04             	mov    0x4(%eax),%edx
 804fa94:	8b 45 e8             	mov    -0x18(%ebp),%eax
 804fa97:	89 50 2c             	mov    %edx,0x2c(%eax)
 804fa9a:	8b 45 e8             	mov    -0x18(%ebp),%eax
 804fa9d:	8b 55 0c             	mov    0xc(%ebp),%edx
 804faa0:	89 50 20             	mov    %edx,0x20(%eax)
 804faa3:	8b 45 08             	mov    0x8(%ebp),%eax
 804faa6:	8b 40 18             	mov    0x18(%eax),%eax
 804faa9:	8b 40 08             	mov    0x8(%eax),%eax
 804faac:	85 c0                	test   %eax,%eax
 804faae:	75 1f                	jne    804facf <HandleFunDec+0x92>
 804fab0:	8b 45 08             	mov    0x8(%ebp),%eax
 804fab3:	8b 40 18             	mov    0x18(%eax),%eax
 804fab6:	83 ec 08             	sub    $0x8,%esp
 804fab9:	ff 75 10             	pushl  0x10(%ebp)
 804fabc:	50                   	push   %eax
 804fabd:	e8 f9 01 00 00       	call   804fcbb <HandleVarList>
 804fac2:	83 c4 10             	add    $0x10,%esp
 804fac5:	89 c2                	mov    %eax,%edx
 804fac7:	8b 45 e8             	mov    -0x18(%ebp),%eax
 804faca:	89 50 38             	mov    %edx,0x38(%eax)
 804facd:	eb 18                	jmp    804fae7 <HandleFunDec+0xaa>
 804facf:	8b 45 08             	mov    0x8(%ebp),%eax
 804fad2:	8b 40 18             	mov    0x18(%eax),%eax
 804fad5:	8b 40 08             	mov    0x8(%eax),%eax
 804fad8:	83 f8 01             	cmp    $0x1,%eax
 804fadb:	75 0a                	jne    804fae7 <HandleFunDec+0xaa>
 804fadd:	8b 45 e8             	mov    -0x18(%ebp),%eax
 804fae0:	c7 40 38 00 00 00 00 	movl   $0x0,0x38(%eax)
 804fae7:	a1 0c 5d 05 08       	mov    0x8055d0c,%eax
 804faec:	85 c0                	test   %eax,%eax
 804faee:	74 73                	je     804fb63 <HandleFunDec+0x126>
 804faf0:	83 ec 08             	sub    $0x8,%esp
 804faf3:	68 fe 23 05 08       	push   $0x80523fe
 804faf8:	68 60 51 05 08       	push   $0x8055160
 804fafd:	e8 41 ec ff ff       	call   804e743 <SymbolTable_Find>
 804fb02:	83 c4 10             	add    $0x10,%esp
 804fb05:	89 45 f0             	mov    %eax,-0x10(%ebp)
 804fb08:	83 7d f0 00          	cmpl   $0x0,-0x10(%ebp)
 804fb0c:	75 12                	jne    804fb20 <HandleFunDec+0xe3>
 804fb0e:	83 ec 0c             	sub    $0xc,%esp
 804fb11:	68 85 24 05 08       	push   $0x8052485
 804fb16:	e8 65 8c ff ff       	call   8048780 <puts@plt>
 804fb1b:	83 c4 10             	add    $0x10,%esp
 804fb1e:	eb 17                	jmp    804fb37 <HandleFunDec+0xfa>
 804fb20:	8b 45 f0             	mov    -0x10(%ebp),%eax
 804fb23:	8b 40 04             	mov    0x4(%eax),%eax
 804fb26:	83 ec 08             	sub    $0x8,%esp
 804fb29:	50                   	push   %eax
 804fb2a:	68 14 24 05 08       	push   $0x8052414
 804fb2f:	e8 8c 8b ff ff       	call   80486c0 <printf@plt>
 804fb34:	83 c4 10             	add    $0x10,%esp
 804fb37:	8b 45 08             	mov    0x8(%ebp),%eax
 804fb3a:	8b 40 10             	mov    0x10(%eax),%eax
 804fb3d:	8b 10                	mov    (%eax),%edx
 804fb3f:	a1 0c 5d 05 08       	mov    0x8055d0c,%eax
 804fb44:	8b 40 04             	mov    0x4(%eax),%eax
 804fb47:	8b 40 28             	mov    0x28(%eax),%eax
 804fb4a:	8b 0d 0c 5d 05 08    	mov    0x8055d0c,%ecx
 804fb50:	8b 49 04             	mov    0x4(%ecx),%ecx
 804fb53:	52                   	push   %edx
 804fb54:	50                   	push   %eax
 804fb55:	51                   	push   %ecx
 804fb56:	68 98 24 05 08       	push   $0x8052498
 804fb5b:	e8 60 8b ff ff       	call   80486c0 <printf@plt>
 804fb60:	83 c4 10             	add    $0x10,%esp
 804fb63:	8b 45 e8             	mov    -0x18(%ebp),%eax
 804fb66:	83 ec 08             	sub    $0x8,%esp
 804fb69:	50                   	push   %eax
 804fb6a:	68 60 51 05 08       	push   $0x8055160
 804fb6f:	e8 cf eb ff ff       	call   804e743 <SymbolTable_Find>
 804fb74:	83 c4 10             	add    $0x10,%esp
 804fb77:	89 45 f4             	mov    %eax,-0xc(%ebp)
 804fb7a:	83 7d f4 00          	cmpl   $0x0,-0xc(%ebp)
 804fb7e:	0f 84 1f 01 00 00    	je     804fca3 <HandleFunDec+0x266>
 804fb84:	8b 45 f4             	mov    -0xc(%ebp),%eax
 804fb87:	8b 40 04             	mov    0x4(%eax),%eax
 804fb8a:	8b 40 28             	mov    0x28(%eax),%eax
 804fb8d:	83 f8 03             	cmp    $0x3,%eax
 804fb90:	0f 85 f0 00 00 00    	jne    804fc86 <HandleFunDec+0x249>
 804fb96:	83 7d 10 05          	cmpl   $0x5,0x10(%ebp)
 804fb9a:	75 7a                	jne    804fc16 <HandleFunDec+0x1d9>
 804fb9c:	8b 45 f4             	mov    -0xc(%ebp),%eax
 804fb9f:	8b 40 04             	mov    0x4(%eax),%eax
 804fba2:	8b 40 24             	mov    0x24(%eax),%eax
 804fba5:	83 f8 01             	cmp    $0x1,%eax
 804fba8:	75 2c                	jne    804fbd6 <HandleFunDec+0x199>
 804fbaa:	8b 55 e8             	mov    -0x18(%ebp),%edx
 804fbad:	8b 45 08             	mov    0x8(%ebp),%eax
 804fbb0:	8b 40 04             	mov    0x4(%eax),%eax
 804fbb3:	83 ec 04             	sub    $0x4,%esp
 804fbb6:	52                   	push   %edx
 804fbb7:	50                   	push   %eax
 804fbb8:	68 c0 24 05 08       	push   $0x80524c0
 804fbbd:	e8 fe 8a ff ff       	call   80486c0 <printf@plt>
 804fbc2:	83 c4 10             	add    $0x10,%esp
 804fbc5:	8b 45 f4             	mov    -0xc(%ebp),%eax
 804fbc8:	8b 40 04             	mov    0x4(%eax),%eax
 804fbcb:	89 45 e8             	mov    %eax,-0x18(%ebp)
 804fbce:	8b 45 e8             	mov    -0x18(%ebp),%eax
 804fbd1:	e9 e3 00 00 00       	jmp    804fcb9 <HandleFunDec+0x27c>
 804fbd6:	8b 45 f4             	mov    -0xc(%ebp),%eax
 804fbd9:	8b 40 04             	mov    0x4(%eax),%eax
 804fbdc:	83 ec 08             	sub    $0x8,%esp
 804fbdf:	ff 75 e8             	pushl  -0x18(%ebp)
 804fbe2:	50                   	push   %eax
 804fbe3:	e8 aa f1 ff ff       	call   804ed92 <CheckFunDec>
 804fbe8:	83 c4 10             	add    $0x10,%esp
 804fbeb:	83 f8 01             	cmp    $0x1,%eax
 804fbee:	74 1d                	je     804fc0d <HandleFunDec+0x1d0>
 804fbf0:	8b 55 e8             	mov    -0x18(%ebp),%edx
 804fbf3:	8b 45 08             	mov    0x8(%ebp),%eax
 804fbf6:	8b 40 04             	mov    0x4(%eax),%eax
 804fbf9:	83 ec 04             	sub    $0x4,%esp
 804fbfc:	52                   	push   %edx
 804fbfd:	50                   	push   %eax
 804fbfe:	68 f4 24 05 08       	push   $0x80524f4
 804fc03:	e8 b8 8a ff ff       	call   80486c0 <printf@plt>
 804fc08:	83 c4 10             	add    $0x10,%esp
 804fc0b:	eb 09                	jmp    804fc16 <HandleFunDec+0x1d9>
 804fc0d:	8b 45 f4             	mov    -0xc(%ebp),%eax
 804fc10:	8b 40 04             	mov    0x4(%eax),%eax
 804fc13:	89 45 e8             	mov    %eax,-0x18(%ebp)
 804fc16:	8b 45 f4             	mov    -0xc(%ebp),%eax
 804fc19:	8b 40 04             	mov    0x4(%eax),%eax
 804fc1c:	83 ec 08             	sub    $0x8,%esp
 804fc1f:	ff 75 e8             	pushl  -0x18(%ebp)
 804fc22:	50                   	push   %eax
 804fc23:	e8 6a f1 ff ff       	call   804ed92 <CheckFunDec>
 804fc28:	83 c4 10             	add    $0x10,%esp
 804fc2b:	83 f8 01             	cmp    $0x1,%eax
 804fc2e:	74 1d                	je     804fc4d <HandleFunDec+0x210>
 804fc30:	8b 55 e8             	mov    -0x18(%ebp),%edx
 804fc33:	8b 45 08             	mov    0x8(%ebp),%eax
 804fc36:	8b 40 04             	mov    0x4(%eax),%eax
 804fc39:	83 ec 04             	sub    $0x4,%esp
 804fc3c:	52                   	push   %edx
 804fc3d:	50                   	push   %eax
 804fc3e:	68 f4 24 05 08       	push   $0x80524f4
 804fc43:	e8 78 8a ff ff       	call   80486c0 <printf@plt>
 804fc48:	83 c4 10             	add    $0x10,%esp
 804fc4b:	eb 69                	jmp    804fcb6 <HandleFunDec+0x279>
 804fc4d:	8b 45 f4             	mov    -0xc(%ebp),%eax
 804fc50:	8b 40 04             	mov    0x4(%eax),%eax
 804fc53:	83 ec 08             	sub    $0x8,%esp
 804fc56:	50                   	push   %eax
 804fc57:	68 3b 25 05 08       	push   $0x805253b
 804fc5c:	e8 5f 8a ff ff       	call   80486c0 <printf@plt>
 804fc61:	83 c4 10             	add    $0x10,%esp
 804fc64:	8b 45 f4             	mov    -0xc(%ebp),%eax
 804fc67:	8b 40 04             	mov    0x4(%eax),%eax
 804fc6a:	83 ec 08             	sub    $0x8,%esp
 804fc6d:	50                   	push   %eax
 804fc6e:	68 3b 25 05 08       	push   $0x805253b
 804fc73:	e8 48 8a ff ff       	call   80486c0 <printf@plt>
 804fc78:	83 c4 10             	add    $0x10,%esp
 804fc7b:	8b 45 f4             	mov    -0xc(%ebp),%eax
 804fc7e:	8b 40 04             	mov    0x4(%eax),%eax
 804fc81:	89 45 e8             	mov    %eax,-0x18(%ebp)
 804fc84:	eb 30                	jmp    804fcb6 <HandleFunDec+0x279>
 804fc86:	8b 55 e8             	mov    -0x18(%ebp),%edx
 804fc89:	8b 45 08             	mov    0x8(%ebp),%eax
 804fc8c:	8b 40 04             	mov    0x4(%eax),%eax
 804fc8f:	83 ec 04             	sub    $0x4,%esp
 804fc92:	52                   	push   %edx
 804fc93:	50                   	push   %eax
 804fc94:	68 58 25 05 08       	push   $0x8052558
 804fc99:	e8 22 8a ff ff       	call   80486c0 <printf@plt>
 804fc9e:	83 c4 10             	add    $0x10,%esp
 804fca1:	eb 13                	jmp    804fcb6 <HandleFunDec+0x279>
 804fca3:	83 ec 08             	sub    $0x8,%esp
 804fca6:	ff 75 e8             	pushl  -0x18(%ebp)
 804fca9:	68 60 51 05 08       	push   $0x8055160
 804fcae:	e8 f5 ea ff ff       	call   804e7a8 <SymbolTable_Add>
 804fcb3:	83 c4 10             	add    $0x10,%esp
 804fcb6:	8b 45 e8             	mov    -0x18(%ebp),%eax
 804fcb9:	c9                   	leave  
 804fcba:	c3                   	ret    

0804fcbb <HandleVarList>:
 804fcbb:	55                   	push   %ebp
 804fcbc:	89 e5                	mov    %esp,%ebp
 804fcbe:	83 ec 28             	sub    $0x28,%esp
 804fcc1:	8b 45 08             	mov    0x8(%ebp),%eax
 804fcc4:	89 45 e4             	mov    %eax,-0x1c(%ebp)
 804fcc7:	8b 45 08             	mov    0x8(%ebp),%eax
 804fcca:	8b 40 10             	mov    0x10(%eax),%eax
 804fccd:	89 45 f0             	mov    %eax,-0x10(%ebp)
 804fcd0:	c7 45 e8 00 00 00 00 	movl   $0x0,-0x18(%ebp)
 804fcd7:	c7 45 ec 00 00 00 00 	movl   $0x0,-0x14(%ebp)
 804fcde:	8b 45 e4             	mov    -0x1c(%ebp),%eax
 804fce1:	8b 40 10             	mov    0x10(%eax),%eax
 804fce4:	89 45 f0             	mov    %eax,-0x10(%ebp)
 804fce7:	83 ec 08             	sub    $0x8,%esp
 804fcea:	ff 75 0c             	pushl  0xc(%ebp)
 804fced:	ff 75 f0             	pushl  -0x10(%ebp)
 804fcf0:	e8 3d 00 00 00       	call   804fd32 <HandleParamDec>
 804fcf5:	83 c4 10             	add    $0x10,%esp
 804fcf8:	89 45 f4             	mov    %eax,-0xc(%ebp)
 804fcfb:	83 7d e8 00          	cmpl   $0x0,-0x18(%ebp)
 804fcff:	75 0e                	jne    804fd0f <HandleVarList+0x54>
 804fd01:	8b 45 f4             	mov    -0xc(%ebp),%eax
 804fd04:	89 45 e8             	mov    %eax,-0x18(%ebp)
 804fd07:	8b 45 f4             	mov    -0xc(%ebp),%eax
 804fd0a:	89 45 ec             	mov    %eax,-0x14(%ebp)
 804fd0d:	eb 0f                	jmp    804fd1e <HandleVarList+0x63>
 804fd0f:	8b 45 ec             	mov    -0x14(%ebp),%eax
 804fd12:	8b 55 f4             	mov    -0xc(%ebp),%edx
 804fd15:	89 50 38             	mov    %edx,0x38(%eax)
 804fd18:	8b 45 f4             	mov    -0xc(%ebp),%eax
 804fd1b:	89 45 ec             	mov    %eax,-0x14(%ebp)
 804fd1e:	8b 45 e4             	mov    -0x1c(%ebp),%eax
 804fd21:	8b 40 18             	mov    0x18(%eax),%eax
 804fd24:	89 45 e4             	mov    %eax,-0x1c(%ebp)
 804fd27:	83 7d e4 00          	cmpl   $0x0,-0x1c(%ebp)
 804fd2b:	75 b1                	jne    804fcde <HandleVarList+0x23>
 804fd2d:	8b 45 e8             	mov    -0x18(%ebp),%eax
 804fd30:	c9                   	leave  
 804fd31:	c3                   	ret    

0804fd32 <HandleParamDec>:
 804fd32:	55                   	push   %ebp
 804fd33:	89 e5                	mov    %esp,%ebp
 804fd35:	83 ec 18             	sub    $0x18,%esp
 804fd38:	8b 45 08             	mov    0x8(%ebp),%eax
 804fd3b:	8b 40 10             	mov    0x10(%eax),%eax
 804fd3e:	83 ec 0c             	sub    $0xc,%esp
 804fd41:	50                   	push   %eax
 804fd42:	e8 5d 00 00 00       	call   804fda4 <HandleSpecifier>
 804fd47:	83 c4 10             	add    $0x10,%esp
 804fd4a:	89 45 f0             	mov    %eax,-0x10(%ebp)
 804fd4d:	8b 45 08             	mov    0x8(%ebp),%eax
 804fd50:	8b 40 14             	mov    0x14(%eax),%eax
 804fd53:	83 ec 04             	sub    $0x4,%esp
 804fd56:	ff 75 0c             	pushl  0xc(%ebp)
 804fd59:	ff 75 f0             	pushl  -0x10(%ebp)
 804fd5c:	50                   	push   %eax
 804fd5d:	e8 47 05 00 00       	call   80502a9 <HandleVarDec>
 804fd62:	83 c4 10             	add    $0x10,%esp
 804fd65:	89 45 f4             	mov    %eax,-0xc(%ebp)
 804fd68:	83 7d 0c 04          	cmpl   $0x4,0xc(%ebp)
 804fd6c:	75 0c                	jne    804fd7a <HandleParamDec+0x48>
 804fd6e:	8b 45 f4             	mov    -0xc(%ebp),%eax
 804fd71:	c7 40 28 04 00 00 00 	movl   $0x4,0x28(%eax)
 804fd78:	eb 25                	jmp    804fd9f <HandleParamDec+0x6d>
 804fd7a:	83 7d 0c 05          	cmpl   $0x5,0xc(%ebp)
 804fd7e:	75 0c                	jne    804fd8c <HandleParamDec+0x5a>
 804fd80:	8b 45 f4             	mov    -0xc(%ebp),%eax
 804fd83:	c7 40 28 05 00 00 00 	movl   $0x5,0x28(%eax)
 804fd8a:	eb 13                	jmp    804fd9f <HandleParamDec+0x6d>
 804fd8c:	83 ec 08             	sub    $0x8,%esp
 804fd8f:	ff 75 0c             	pushl  0xc(%ebp)
 804fd92:	68 91 25 05 08       	push   $0x8052591
 804fd97:	e8 24 89 ff ff       	call   80486c0 <printf@plt>
 804fd9c:	83 c4 10             	add    $0x10,%esp
 804fd9f:	8b 45 f4             	mov    -0xc(%ebp),%eax
 804fda2:	c9                   	leave  
 804fda3:	c3                   	ret    

0804fda4 <HandleSpecifier>:
 804fda4:	55                   	push   %ebp
 804fda5:	89 e5                	mov    %esp,%ebp
 804fda7:	53                   	push   %ebx
 804fda8:	83 ec 34             	sub    $0x34,%esp
 804fdab:	83 ec 0c             	sub    $0xc,%esp
 804fdae:	6a 0c                	push   $0xc
 804fdb0:	e8 bb 89 ff ff       	call   8048770 <malloc@plt>
 804fdb5:	83 c4 10             	add    $0x10,%esp
 804fdb8:	89 45 cc             	mov    %eax,-0x34(%ebp)
 804fdbb:	83 ec 04             	sub    $0x4,%esp
 804fdbe:	6a 0c                	push   $0xc
 804fdc0:	6a 00                	push   $0x0
 804fdc2:	ff 75 cc             	pushl  -0x34(%ebp)
 804fdc5:	e8 16 8a ff ff       	call   80487e0 <memset@plt>
 804fdca:	83 c4 10             	add    $0x10,%esp
 804fdcd:	8b 45 08             	mov    0x8(%ebp),%eax
 804fdd0:	8b 40 10             	mov    0x10(%eax),%eax
 804fdd3:	89 45 d0             	mov    %eax,-0x30(%ebp)
 804fdd6:	8b 45 08             	mov    0x8(%ebp),%eax
 804fdd9:	8b 40 10             	mov    0x10(%eax),%eax
 804fddc:	8b 40 08             	mov    0x8(%eax),%eax
 804fddf:	83 f8 03             	cmp    $0x3,%eax
 804fde2:	75 79                	jne    804fe5d <HandleSpecifier+0xb9>
 804fde4:	8b 45 cc             	mov    -0x34(%ebp),%eax
 804fde7:	c7 00 00 00 00 00    	movl   $0x0,(%eax)
 804fded:	8b 45 d0             	mov    -0x30(%ebp),%eax
 804fdf0:	83 c0 30             	add    $0x30,%eax
 804fdf3:	83 ec 08             	sub    $0x8,%esp
 804fdf6:	68 a8 25 05 08       	push   $0x80525a8
 804fdfb:	50                   	push   %eax
 804fdfc:	e8 af 88 ff ff       	call   80486b0 <strcmp@plt>
 804fe01:	83 c4 10             	add    $0x10,%esp
 804fe04:	85 c0                	test   %eax,%eax
 804fe06:	75 0f                	jne    804fe17 <HandleSpecifier+0x73>
 804fe08:	8b 45 cc             	mov    -0x34(%ebp),%eax
 804fe0b:	c7 40 04 00 00 00 00 	movl   $0x0,0x4(%eax)
 804fe12:	e9 c6 02 00 00       	jmp    80500dd <HandleSpecifier+0x339>
 804fe17:	8b 45 d0             	mov    -0x30(%ebp),%eax
 804fe1a:	83 c0 30             	add    $0x30,%eax
 804fe1d:	83 ec 08             	sub    $0x8,%esp
 804fe20:	68 ac 25 05 08       	push   $0x80525ac
 804fe25:	50                   	push   %eax
 804fe26:	e8 85 88 ff ff       	call   80486b0 <strcmp@plt>
 804fe2b:	83 c4 10             	add    $0x10,%esp
 804fe2e:	85 c0                	test   %eax,%eax
 804fe30:	75 0f                	jne    804fe41 <HandleSpecifier+0x9d>
 804fe32:	8b 45 cc             	mov    -0x34(%ebp),%eax
 804fe35:	c7 40 04 01 00 00 00 	movl   $0x1,0x4(%eax)
 804fe3c:	e9 9c 02 00 00       	jmp    80500dd <HandleSpecifier+0x339>
 804fe41:	8b 45 d0             	mov    -0x30(%ebp),%eax
 804fe44:	83 c0 30             	add    $0x30,%eax
 804fe47:	83 ec 08             	sub    $0x8,%esp
 804fe4a:	50                   	push   %eax
 804fe4b:	68 b2 25 05 08       	push   $0x80525b2
 804fe50:	e8 6b 88 ff ff       	call   80486c0 <printf@plt>
 804fe55:	83 c4 10             	add    $0x10,%esp
 804fe58:	e9 80 02 00 00       	jmp    80500dd <HandleSpecifier+0x339>
 804fe5d:	8b 45 d0             	mov    -0x30(%ebp),%eax
 804fe60:	8b 40 14             	mov    0x14(%eax),%eax
 804fe63:	8b 00                	mov    (%eax),%eax
 804fe65:	83 ec 08             	sub    $0x8,%esp
 804fe68:	68 c4 25 05 08       	push   $0x80525c4
 804fe6d:	50                   	push   %eax
 804fe6e:	e8 3d 88 ff ff       	call   80486b0 <strcmp@plt>
 804fe73:	83 c4 10             	add    $0x10,%esp
 804fe76:	85 c0                	test   %eax,%eax
 804fe78:	0f 85 6e 01 00 00    	jne    804ffec <HandleSpecifier+0x248>
 804fe7e:	8b 45 cc             	mov    -0x34(%ebp),%eax
 804fe81:	c7 00 02 00 00 00    	movl   $0x2,(%eax)
 804fe87:	8b 45 d0             	mov    -0x30(%ebp),%eax
 804fe8a:	8b 40 1c             	mov    0x1c(%eax),%eax
 804fe8d:	89 45 d4             	mov    %eax,-0x2c(%ebp)
 804fe90:	83 ec 0c             	sub    $0xc,%esp
 804fe93:	6a 0c                	push   $0xc
 804fe95:	e8 d6 88 ff ff       	call   8048770 <malloc@plt>
 804fe9a:	83 c4 10             	add    $0x10,%esp
 804fe9d:	89 45 d8             	mov    %eax,-0x28(%ebp)
 804fea0:	83 ec 04             	sub    $0x4,%esp
 804fea3:	6a 0c                	push   $0xc
 804fea5:	6a 00                	push   $0x0
 804fea7:	ff 75 d8             	pushl  -0x28(%ebp)
 804feaa:	e8 31 89 ff ff       	call   80487e0 <memset@plt>
 804feaf:	83 c4 10             	add    $0x10,%esp
 804feb2:	8b 45 cc             	mov    -0x34(%ebp),%eax
 804feb5:	8b 55 d8             	mov    -0x28(%ebp),%edx
 804feb8:	89 50 04             	mov    %edx,0x4(%eax)
 804febb:	8b 45 cc             	mov    -0x34(%ebp),%eax
 804febe:	8b 50 04             	mov    0x4(%eax),%edx
 804fec1:	8b 45 d0             	mov    -0x30(%ebp),%eax
 804fec4:	8b 40 1c             	mov    0x1c(%eax),%eax
 804fec7:	83 ec 04             	sub    $0x4,%esp
 804feca:	6a 02                	push   $0x2
 804fecc:	52                   	push   %edx
 804fecd:	50                   	push   %eax
 804fece:	e8 68 02 00 00       	call   805013b <HandleDefList>
 804fed3:	83 c4 10             	add    $0x10,%esp
 804fed6:	8b 45 cc             	mov    -0x34(%ebp),%eax
 804fed9:	8b 40 04             	mov    0x4(%eax),%eax
 804fedc:	8b 40 08             	mov    0x8(%eax),%eax
 804fedf:	89 45 dc             	mov    %eax,-0x24(%ebp)
 804fee2:	c7 45 e0 00 00 00 00 	movl   $0x0,-0x20(%ebp)
 804fee9:	8b 45 d0             	mov    -0x30(%ebp),%eax
 804feec:	8b 40 14             	mov    0x14(%eax),%eax
 804feef:	8b 40 10             	mov    0x10(%eax),%eax
 804fef2:	85 c0                	test   %eax,%eax
 804fef4:	75 15                	jne    804ff0b <HandleSpecifier+0x167>
 804fef6:	83 ec 0c             	sub    $0xc,%esp
 804fef9:	68 cb 25 05 08       	push   $0x80525cb
 804fefe:	e8 7d 88 ff ff       	call   8048780 <puts@plt>
 804ff03:	83 c4 10             	add    $0x10,%esp
 804ff06:	e9 d2 01 00 00       	jmp    80500dd <HandleSpecifier+0x339>
 804ff0b:	8b 45 d0             	mov    -0x30(%ebp),%eax
 804ff0e:	8b 40 14             	mov    0x14(%eax),%eax
 804ff11:	8b 40 10             	mov    0x10(%eax),%eax
 804ff14:	85 c0                	test   %eax,%eax
 804ff16:	0f 84 c1 01 00 00    	je     80500dd <HandleSpecifier+0x339>
 804ff1c:	8b 45 d0             	mov    -0x30(%ebp),%eax
 804ff1f:	8b 40 14             	mov    0x14(%eax),%eax
 804ff22:	8b 40 10             	mov    0x10(%eax),%eax
 804ff25:	83 c0 30             	add    $0x30,%eax
 804ff28:	89 45 e0             	mov    %eax,-0x20(%ebp)
 804ff2b:	83 ec 08             	sub    $0x8,%esp
 804ff2e:	ff 75 e0             	pushl  -0x20(%ebp)
 804ff31:	ff 75 dc             	pushl  -0x24(%ebp)
 804ff34:	e8 ac 01 00 00       	call   80500e5 <FieldListFillMaster>
 804ff39:	83 c4 10             	add    $0x10,%esp
 804ff3c:	8b 45 cc             	mov    -0x34(%ebp),%eax
 804ff3f:	8b 40 04             	mov    0x4(%eax),%eax
 804ff42:	8b 55 e0             	mov    -0x20(%ebp),%edx
 804ff45:	89 10                	mov    %edx,(%eax)
 804ff47:	8b 45 cc             	mov    -0x34(%ebp),%eax
 804ff4a:	8b 40 04             	mov    0x4(%eax),%eax
 804ff4d:	8b 55 cc             	mov    -0x34(%ebp),%edx
 804ff50:	89 50 04             	mov    %edx,0x4(%eax)
 804ff53:	83 ec 0c             	sub    $0xc,%esp
 804ff56:	6a 3c                	push   $0x3c
 804ff58:	e8 13 88 ff ff       	call   8048770 <malloc@plt>
 804ff5d:	83 c4 10             	add    $0x10,%esp
 804ff60:	89 45 e4             	mov    %eax,-0x1c(%ebp)
 804ff63:	83 ec 04             	sub    $0x4,%esp
 804ff66:	6a 3c                	push   $0x3c
 804ff68:	6a 00                	push   $0x0
 804ff6a:	ff 75 e4             	pushl  -0x1c(%ebp)
 804ff6d:	e8 6e 88 ff ff       	call   80487e0 <memset@plt>
 804ff72:	83 c4 10             	add    $0x10,%esp
 804ff75:	8b 45 e4             	mov    -0x1c(%ebp),%eax
 804ff78:	83 ec 08             	sub    $0x8,%esp
 804ff7b:	ff 75 e0             	pushl  -0x20(%ebp)
 804ff7e:	50                   	push   %eax
 804ff7f:	e8 cc 87 ff ff       	call   8048750 <strcpy@plt>
 804ff84:	83 c4 10             	add    $0x10,%esp
 804ff87:	8b 45 e4             	mov    -0x1c(%ebp),%eax
 804ff8a:	8b 55 cc             	mov    -0x34(%ebp),%edx
 804ff8d:	89 50 20             	mov    %edx,0x20(%eax)
 804ff90:	8b 45 e4             	mov    -0x1c(%ebp),%eax
 804ff93:	c7 40 28 01 00 00 00 	movl   $0x1,0x28(%eax)
 804ff9a:	8b 45 d0             	mov    -0x30(%ebp),%eax
 804ff9d:	8b 40 14             	mov    0x14(%eax),%eax
 804ffa0:	8b 40 10             	mov    0x10(%eax),%eax
 804ffa3:	8b 50 04             	mov    0x4(%eax),%edx
 804ffa6:	8b 45 e4             	mov    -0x1c(%ebp),%eax
 804ffa9:	89 50 2c             	mov    %edx,0x2c(%eax)
 804ffac:	83 ec 08             	sub    $0x8,%esp
 804ffaf:	ff 75 e4             	pushl  -0x1c(%ebp)
 804ffb2:	68 60 51 05 08       	push   $0x8055160
 804ffb7:	e8 ec e7 ff ff       	call   804e7a8 <SymbolTable_Add>
 804ffbc:	83 c4 10             	add    $0x10,%esp
 804ffbf:	89 45 e8             	mov    %eax,-0x18(%ebp)
 804ffc2:	83 7d e8 02          	cmpl   $0x2,-0x18(%ebp)
 804ffc6:	0f 85 11 01 00 00    	jne    80500dd <HandleSpecifier+0x339>
 804ffcc:	8b 55 e4             	mov    -0x1c(%ebp),%edx
 804ffcf:	8b 45 e4             	mov    -0x1c(%ebp),%eax
 804ffd2:	8b 40 2c             	mov    0x2c(%eax),%eax
 804ffd5:	83 ec 04             	sub    $0x4,%esp
 804ffd8:	52                   	push   %edx
 804ffd9:	50                   	push   %eax
 804ffda:	68 d8 25 05 08       	push   $0x80525d8
 804ffdf:	e8 dc 86 ff ff       	call   80486c0 <printf@plt>
 804ffe4:	83 c4 10             	add    $0x10,%esp
 804ffe7:	e9 f1 00 00 00       	jmp    80500dd <HandleSpecifier+0x339>
 804ffec:	8b 45 d0             	mov    -0x30(%ebp),%eax
 804ffef:	8b 40 14             	mov    0x14(%eax),%eax
 804fff2:	8b 00                	mov    (%eax),%eax
 804fff4:	83 ec 08             	sub    $0x8,%esp
 804fff7:	68 15 26 05 08       	push   $0x8052615
 804fffc:	50                   	push   %eax
 804fffd:	e8 ae 86 ff ff       	call   80486b0 <strcmp@plt>
 8050002:	83 c4 10             	add    $0x10,%esp
 8050005:	85 c0                	test   %eax,%eax
 8050007:	0f 85 8f 00 00 00    	jne    805009c <HandleSpecifier+0x2f8>
 805000d:	8b 45 d0             	mov    -0x30(%ebp),%eax
 8050010:	8b 40 14             	mov    0x14(%eax),%eax
 8050013:	89 45 ec             	mov    %eax,-0x14(%ebp)
 8050016:	8b 45 ec             	mov    -0x14(%ebp),%eax
 8050019:	8b 40 10             	mov    0x10(%eax),%eax
 805001c:	83 c0 30             	add    $0x30,%eax
 805001f:	83 ec 08             	sub    $0x8,%esp
 8050022:	50                   	push   %eax
 8050023:	68 60 51 05 08       	push   $0x8055160
 8050028:	e8 16 e7 ff ff       	call   804e743 <SymbolTable_Find>
 805002d:	83 c4 10             	add    $0x10,%esp
 8050030:	89 45 f0             	mov    %eax,-0x10(%ebp)
 8050033:	83 7d f0 00          	cmpl   $0x0,-0x10(%ebp)
 8050037:	75 36                	jne    805006f <HandleSpecifier+0x2cb>
 8050039:	8b 45 ec             	mov    -0x14(%ebp),%eax
 805003c:	8b 40 10             	mov    0x10(%eax),%eax
 805003f:	8d 50 30             	lea    0x30(%eax),%edx
 8050042:	8b 45 ec             	mov    -0x14(%ebp),%eax
 8050045:	8b 40 04             	mov    0x4(%eax),%eax
 8050048:	83 ec 04             	sub    $0x4,%esp
 805004b:	52                   	push   %edx
 805004c:	50                   	push   %eax
 805004d:	68 1c 26 05 08       	push   $0x805261c
 8050052:	e8 69 86 ff ff       	call   80486c0 <printf@plt>
 8050057:	83 c4 10             	add    $0x10,%esp
 805005a:	8b 45 cc             	mov    -0x34(%ebp),%eax
 805005d:	c7 00 00 00 00 00    	movl   $0x0,(%eax)
 8050063:	8b 45 cc             	mov    -0x34(%ebp),%eax
 8050066:	c7 40 04 02 00 00 00 	movl   $0x2,0x4(%eax)
 805006d:	eb 6e                	jmp    80500dd <HandleSpecifier+0x339>
 805006f:	8b 45 f0             	mov    -0x10(%ebp),%eax
 8050072:	8b 40 04             	mov    0x4(%eax),%eax
 8050075:	89 45 f4             	mov    %eax,-0xc(%ebp)
 8050078:	8b 45 f4             	mov    -0xc(%ebp),%eax
 805007b:	8b 40 20             	mov    0x20(%eax),%eax
 805007e:	8b 10                	mov    (%eax),%edx
 8050080:	8b 45 cc             	mov    -0x34(%ebp),%eax
 8050083:	89 10                	mov    %edx,(%eax)
 8050085:	8b 45 f4             	mov    -0xc(%ebp),%eax
 8050088:	8b 40 20             	mov    0x20(%eax),%eax
 805008b:	8b 4d cc             	mov    -0x34(%ebp),%ecx
 805008e:	8b 50 08             	mov    0x8(%eax),%edx
 8050091:	8b 40 04             	mov    0x4(%eax),%eax
 8050094:	89 41 04             	mov    %eax,0x4(%ecx)
 8050097:	89 51 08             	mov    %edx,0x8(%ecx)
 805009a:	eb 41                	jmp    80500dd <HandleSpecifier+0x339>
 805009c:	8b 45 d0             	mov    -0x30(%ebp),%eax
 805009f:	8b 40 10             	mov    0x10(%eax),%eax
 80500a2:	8b 58 08             	mov    0x8(%eax),%ebx
 80500a5:	8b 45 d0             	mov    -0x30(%ebp),%eax
 80500a8:	8b 40 14             	mov    0x14(%eax),%eax
 80500ab:	8b 00                	mov    (%eax),%eax
 80500ad:	83 ec 08             	sub    $0x8,%esp
 80500b0:	68 c4 25 05 08       	push   $0x80525c4
 80500b5:	50                   	push   %eax
 80500b6:	e8 f5 85 ff ff       	call   80486b0 <strcmp@plt>
 80500bb:	83 c4 10             	add    $0x10,%esp
 80500be:	89 c2                	mov    %eax,%edx
 80500c0:	8b 45 d0             	mov    -0x30(%ebp),%eax
 80500c3:	8b 40 14             	mov    0x14(%eax),%eax
 80500c6:	8b 00                	mov    (%eax),%eax
 80500c8:	83 ec 0c             	sub    $0xc,%esp
 80500cb:	6a 00                	push   $0x0
 80500cd:	53                   	push   %ebx
 80500ce:	52                   	push   %edx
 80500cf:	50                   	push   %eax
 80500d0:	68 54 26 05 08       	push   $0x8052654
 80500d5:	e8 e6 85 ff ff       	call   80486c0 <printf@plt>
 80500da:	83 c4 20             	add    $0x20,%esp
 80500dd:	8b 45 cc             	mov    -0x34(%ebp),%eax
 80500e0:	8b 5d fc             	mov    -0x4(%ebp),%ebx
 80500e3:	c9                   	leave  
 80500e4:	c3                   	ret    

080500e5 <FieldListFillMaster>:
 80500e5:	55                   	push   %ebp
 80500e6:	89 e5                	mov    %esp,%ebp
 80500e8:	83 ec 18             	sub    $0x18,%esp
 80500eb:	eb 46                	jmp    8050133 <FieldListFillMaster+0x4e>
 80500ed:	8b 45 08             	mov    0x8(%ebp),%eax
 80500f0:	8b 00                	mov    (%eax),%eax
 80500f2:	83 ec 08             	sub    $0x8,%esp
 80500f5:	50                   	push   %eax
 80500f6:	68 60 51 05 08       	push   $0x8055160
 80500fb:	e8 43 e6 ff ff       	call   804e743 <SymbolTable_Find>
 8050100:	83 c4 10             	add    $0x10,%esp
 8050103:	89 45 f4             	mov    %eax,-0xc(%ebp)
 8050106:	83 7d f4 00          	cmpl   $0x0,-0xc(%ebp)
 805010a:	75 12                	jne    805011e <FieldListFillMaster+0x39>
 805010c:	83 ec 0c             	sub    $0xc,%esp
 805010f:	68 9a 26 05 08       	push   $0x805269a
 8050114:	e8 67 86 ff ff       	call   8048780 <puts@plt>
 8050119:	83 c4 10             	add    $0x10,%esp
 805011c:	eb 1b                	jmp    8050139 <FieldListFillMaster+0x54>
 805011e:	8b 45 f4             	mov    -0xc(%ebp),%eax
 8050121:	8b 40 04             	mov    0x4(%eax),%eax
 8050124:	8b 55 0c             	mov    0xc(%ebp),%edx
 8050127:	89 50 34             	mov    %edx,0x34(%eax)
 805012a:	8b 45 08             	mov    0x8(%ebp),%eax
 805012d:	8b 40 08             	mov    0x8(%eax),%eax
 8050130:	89 45 08             	mov    %eax,0x8(%ebp)
 8050133:	83 7d 08 00          	cmpl   $0x0,0x8(%ebp)
 8050137:	75 b4                	jne    80500ed <FieldListFillMaster+0x8>
 8050139:	c9                   	leave  
 805013a:	c3                   	ret    

0805013b <HandleDefList>:
 805013b:	55                   	push   %ebp
 805013c:	89 e5                	mov    %esp,%ebp
 805013e:	83 ec 18             	sub    $0x18,%esp
 8050141:	8b 45 08             	mov    0x8(%ebp),%eax
 8050144:	89 45 ec             	mov    %eax,-0x14(%ebp)
 8050147:	eb 42                	jmp    805018b <HandleDefList+0x50>
 8050149:	8b 45 ec             	mov    -0x14(%ebp),%eax
 805014c:	8b 40 10             	mov    0x10(%eax),%eax
 805014f:	89 45 f0             	mov    %eax,-0x10(%ebp)
 8050152:	8b 45 f0             	mov    -0x10(%ebp),%eax
 8050155:	8b 40 10             	mov    0x10(%eax),%eax
 8050158:	83 ec 0c             	sub    $0xc,%esp
 805015b:	50                   	push   %eax
 805015c:	e8 43 fc ff ff       	call   804fda4 <HandleSpecifier>
 8050161:	83 c4 10             	add    $0x10,%esp
 8050164:	89 45 f4             	mov    %eax,-0xc(%ebp)
 8050167:	8b 45 f0             	mov    -0x10(%ebp),%eax
 805016a:	8b 40 14             	mov    0x14(%eax),%eax
 805016d:	ff 75 10             	pushl  0x10(%ebp)
 8050170:	ff 75 f4             	pushl  -0xc(%ebp)
 8050173:	ff 75 0c             	pushl  0xc(%ebp)
 8050176:	50                   	push   %eax
 8050177:	e8 1a 00 00 00       	call   8050196 <HandleDecList>
 805017c:	83 c4 10             	add    $0x10,%esp
 805017f:	89 45 0c             	mov    %eax,0xc(%ebp)
 8050182:	8b 45 ec             	mov    -0x14(%ebp),%eax
 8050185:	8b 40 14             	mov    0x14(%eax),%eax
 8050188:	89 45 ec             	mov    %eax,-0x14(%ebp)
 805018b:	83 7d ec 00          	cmpl   $0x0,-0x14(%ebp)
 805018f:	75 b8                	jne    8050149 <HandleDefList+0xe>
 8050191:	8b 45 0c             	mov    0xc(%ebp),%eax
 8050194:	c9                   	leave  
 8050195:	c3                   	ret    

08050196 <HandleDecList>:
 8050196:	55                   	push   %ebp
 8050197:	89 e5                	mov    %esp,%ebp
 8050199:	83 ec 18             	sub    $0x18,%esp
 805019c:	8b 45 08             	mov    0x8(%ebp),%eax
 805019f:	89 45 ec             	mov    %eax,-0x14(%ebp)
 80501a2:	8b 45 ec             	mov    -0x14(%ebp),%eax
 80501a5:	8b 40 10             	mov    0x10(%eax),%eax
 80501a8:	83 ec 04             	sub    $0x4,%esp
 80501ab:	ff 75 14             	pushl  0x14(%ebp)
 80501ae:	ff 75 10             	pushl  0x10(%ebp)
 80501b1:	50                   	push   %eax
 80501b2:	e8 85 00 00 00       	call   805023c <HandleDec>
 80501b7:	83 c4 10             	add    $0x10,%esp
 80501ba:	89 45 f0             	mov    %eax,-0x10(%ebp)
 80501bd:	83 7d 14 02          	cmpl   $0x2,0x14(%ebp)
 80501c1:	74 06                	je     80501c9 <HandleDecList+0x33>
 80501c3:	83 7d 0c 00          	cmpl   $0x0,0xc(%ebp)
 80501c7:	74 51                	je     805021a <HandleDecList+0x84>
 80501c9:	8b 45 f0             	mov    -0x10(%ebp),%eax
 80501cc:	c7 40 28 02 00 00 00 	movl   $0x2,0x28(%eax)
 80501d3:	83 ec 0c             	sub    $0xc,%esp
 80501d6:	6a 0c                	push   $0xc
 80501d8:	e8 93 85 ff ff       	call   8048770 <malloc@plt>
 80501dd:	83 c4 10             	add    $0x10,%esp
 80501e0:	89 45 f4             	mov    %eax,-0xc(%ebp)
 80501e3:	83 ec 04             	sub    $0x4,%esp
 80501e6:	6a 0c                	push   $0xc
 80501e8:	6a 00                	push   $0x0
 80501ea:	ff 75 f4             	pushl  -0xc(%ebp)
 80501ed:	e8 ee 85 ff ff       	call   80487e0 <memset@plt>
 80501f2:	83 c4 10             	add    $0x10,%esp
 80501f5:	8b 55 f0             	mov    -0x10(%ebp),%edx
 80501f8:	8b 45 f4             	mov    -0xc(%ebp),%eax
 80501fb:	89 10                	mov    %edx,(%eax)
 80501fd:	8b 45 f0             	mov    -0x10(%ebp),%eax
 8050200:	8b 50 20             	mov    0x20(%eax),%edx
 8050203:	8b 45 f4             	mov    -0xc(%ebp),%eax
 8050206:	89 50 04             	mov    %edx,0x4(%eax)
 8050209:	8b 45 0c             	mov    0xc(%ebp),%eax
 805020c:	8b 55 f4             	mov    -0xc(%ebp),%edx
 805020f:	89 50 08             	mov    %edx,0x8(%eax)
 8050212:	8b 45 f4             	mov    -0xc(%ebp),%eax
 8050215:	89 45 0c             	mov    %eax,0xc(%ebp)
 8050218:	eb 0a                	jmp    8050224 <HandleDecList+0x8e>
 805021a:	8b 45 f0             	mov    -0x10(%ebp),%eax
 805021d:	c7 40 28 00 00 00 00 	movl   $0x0,0x28(%eax)
 8050224:	8b 45 ec             	mov    -0x14(%ebp),%eax
 8050227:	8b 40 18             	mov    0x18(%eax),%eax
 805022a:	89 45 ec             	mov    %eax,-0x14(%ebp)
 805022d:	83 7d ec 00          	cmpl   $0x0,-0x14(%ebp)
 8050231:	0f 85 6b ff ff ff    	jne    80501a2 <HandleDecList+0xc>
 8050237:	8b 45 0c             	mov    0xc(%ebp),%eax
 805023a:	c9                   	leave  
 805023b:	c3                   	ret    

0805023c <HandleDec>:
 805023c:	55                   	push   %ebp
 805023d:	89 e5                	mov    %esp,%ebp
 805023f:	83 ec 18             	sub    $0x18,%esp
 8050242:	8b 45 08             	mov    0x8(%ebp),%eax
 8050245:	8b 40 10             	mov    0x10(%eax),%eax
 8050248:	89 45 f0             	mov    %eax,-0x10(%ebp)
 805024b:	83 ec 04             	sub    $0x4,%esp
 805024e:	ff 75 10             	pushl  0x10(%ebp)
 8050251:	ff 75 0c             	pushl  0xc(%ebp)
 8050254:	ff 75 f0             	pushl  -0x10(%ebp)
 8050257:	e8 4d 00 00 00       	call   80502a9 <HandleVarDec>
 805025c:	83 c4 10             	add    $0x10,%esp
 805025f:	89 45 f4             	mov    %eax,-0xc(%ebp)
 8050262:	8b 45 08             	mov    0x8(%ebp),%eax
 8050265:	8b 40 0c             	mov    0xc(%eax),%eax
 8050268:	83 f8 01             	cmp    $0x1,%eax
 805026b:	75 0c                	jne    8050279 <HandleDec+0x3d>
 805026d:	8b 45 f4             	mov    -0xc(%ebp),%eax
 8050270:	c7 40 24 00 00 00 00 	movl   $0x0,0x24(%eax)
 8050277:	eb 2b                	jmp    80502a4 <HandleDec+0x68>
 8050279:	8b 45 f4             	mov    -0xc(%ebp),%eax
 805027c:	c7 40 24 01 00 00 00 	movl   $0x1,0x24(%eax)
 8050283:	83 7d 10 02          	cmpl   $0x2,0x10(%ebp)
 8050287:	75 1b                	jne    80502a4 <HandleDec+0x68>
 8050289:	8b 55 f4             	mov    -0xc(%ebp),%edx
 805028c:	8b 45 f4             	mov    -0xc(%ebp),%eax
 805028f:	8b 40 2c             	mov    0x2c(%eax),%eax
 8050292:	83 ec 04             	sub    $0x4,%esp
 8050295:	52                   	push   %edx
 8050296:	50                   	push   %eax
 8050297:	68 b8 26 05 08       	push   $0x80526b8
 805029c:	e8 1f 84 ff ff       	call   80486c0 <printf@plt>
 80502a1:	83 c4 10             	add    $0x10,%esp
 80502a4:	8b 45 f4             	mov    -0xc(%ebp),%eax
 80502a7:	c9                   	leave  
 80502a8:	c3                   	ret    

080502a9 <HandleVarDec>:
 80502a9:	55                   	push   %ebp
 80502aa:	89 e5                	mov    %esp,%ebp
 80502ac:	83 ec 28             	sub    $0x28,%esp
 80502af:	8b 45 08             	mov    0x8(%ebp),%eax
 80502b2:	8b 40 04             	mov    0x4(%eax),%eax
 80502b5:	83 ec 08             	sub    $0x8,%esp
 80502b8:	50                   	push   %eax
 80502b9:	68 03 27 05 08       	push   $0x8052703
 80502be:	e8 fd 83 ff ff       	call   80486c0 <printf@plt>
 80502c3:	83 c4 10             	add    $0x10,%esp
 80502c6:	8b 45 08             	mov    0x8(%ebp),%eax
 80502c9:	89 45 d8             	mov    %eax,-0x28(%ebp)
 80502cc:	8b 45 0c             	mov    0xc(%ebp),%eax
 80502cf:	89 45 dc             	mov    %eax,-0x24(%ebp)
 80502d2:	e9 a6 00 00 00       	jmp    805037d <HandleVarDec+0xd4>
 80502d7:	83 ec 0c             	sub    $0xc,%esp
 80502da:	6a 0c                	push   $0xc
 80502dc:	e8 8f 84 ff ff       	call   8048770 <malloc@plt>
 80502e1:	83 c4 10             	add    $0x10,%esp
 80502e4:	89 45 e4             	mov    %eax,-0x1c(%ebp)
 80502e7:	83 ec 04             	sub    $0x4,%esp
 80502ea:	6a 0c                	push   $0xc
 80502ec:	6a 00                	push   $0x0
 80502ee:	ff 75 e4             	pushl  -0x1c(%ebp)
 80502f1:	e8 ea 84 ff ff       	call   80487e0 <memset@plt>
 80502f6:	83 c4 10             	add    $0x10,%esp
 80502f9:	8b 45 e4             	mov    -0x1c(%ebp),%eax
 80502fc:	c7 00 01 00 00 00    	movl   $0x1,(%eax)
 8050302:	8b 45 e4             	mov    -0x1c(%ebp),%eax
 8050305:	8b 55 dc             	mov    -0x24(%ebp),%edx
 8050308:	89 50 04             	mov    %edx,0x4(%eax)
 805030b:	c7 45 e0 00 00 00 00 	movl   $0x0,-0x20(%ebp)
 8050312:	8b 45 d8             	mov    -0x28(%ebp),%eax
 8050315:	8b 40 18             	mov    0x18(%eax),%eax
 8050318:	8b 40 08             	mov    0x8(%eax),%eax
 805031b:	83 f8 04             	cmp    $0x4,%eax
 805031e:	75 1a                	jne    805033a <HandleVarDec+0x91>
 8050320:	8b 45 d8             	mov    -0x28(%ebp),%eax
 8050323:	8b 40 18             	mov    0x18(%eax),%eax
 8050326:	83 c0 30             	add    $0x30,%eax
 8050329:	83 ec 0c             	sub    $0xc,%esp
 805032c:	50                   	push   %eax
 805032d:	e8 fe 84 ff ff       	call   8048830 <atoi@plt>
 8050332:	83 c4 10             	add    $0x10,%esp
 8050335:	89 45 e0             	mov    %eax,-0x20(%ebp)
 8050338:	eb 2b                	jmp    8050365 <HandleVarDec+0xbc>
 805033a:	8b 45 d8             	mov    -0x28(%ebp),%eax
 805033d:	8b 40 18             	mov    0x18(%eax),%eax
 8050340:	8d 50 30             	lea    0x30(%eax),%edx
 8050343:	8b 45 d8             	mov    -0x28(%ebp),%eax
 8050346:	8b 40 18             	mov    0x18(%eax),%eax
 8050349:	8b 40 04             	mov    0x4(%eax),%eax
 805034c:	83 ec 04             	sub    $0x4,%esp
 805034f:	52                   	push   %edx
 8050350:	50                   	push   %eax
 8050351:	68 20 27 05 08       	push   $0x8052720
 8050356:	e8 65 83 ff ff       	call   80486c0 <printf@plt>
 805035b:	83 c4 10             	add    $0x10,%esp
 805035e:	c7 45 e0 01 00 00 00 	movl   $0x1,-0x20(%ebp)
 8050365:	8b 45 e4             	mov    -0x1c(%ebp),%eax
 8050368:	8b 55 e0             	mov    -0x20(%ebp),%edx
 805036b:	89 50 08             	mov    %edx,0x8(%eax)
 805036e:	8b 45 d8             	mov    -0x28(%ebp),%eax
 8050371:	8b 40 10             	mov    0x10(%eax),%eax
 8050374:	89 45 d8             	mov    %eax,-0x28(%ebp)
 8050377:	8b 45 e4             	mov    -0x1c(%ebp),%eax
 805037a:	89 45 dc             	mov    %eax,-0x24(%ebp)
 805037d:	8b 45 d8             	mov    -0x28(%ebp),%eax
 8050380:	8b 40 10             	mov    0x10(%eax),%eax
 8050383:	8b 40 08             	mov    0x8(%eax),%eax
 8050386:	85 c0                	test   %eax,%eax
 8050388:	0f 84 49 ff ff ff    	je     80502d7 <HandleVarDec+0x2e>
 805038e:	83 ec 0c             	sub    $0xc,%esp
 8050391:	6a 3c                	push   $0x3c
 8050393:	e8 d8 83 ff ff       	call   8048770 <malloc@plt>
 8050398:	83 c4 10             	add    $0x10,%esp
 805039b:	89 45 e8             	mov    %eax,-0x18(%ebp)
 805039e:	83 ec 04             	sub    $0x4,%esp
 80503a1:	6a 3c                	push   $0x3c
 80503a3:	6a 00                	push   $0x0
 80503a5:	ff 75 e8             	pushl  -0x18(%ebp)
 80503a8:	e8 33 84 ff ff       	call   80487e0 <memset@plt>
 80503ad:	83 c4 10             	add    $0x10,%esp
 80503b0:	8b 45 d8             	mov    -0x28(%ebp),%eax
 80503b3:	8b 40 10             	mov    0x10(%eax),%eax
 80503b6:	8b 40 08             	mov    0x8(%eax),%eax
 80503b9:	83 f8 02             	cmp    $0x2,%eax
 80503bc:	0f 85 7f 01 00 00    	jne    8050541 <HandleVarDec+0x298>
 80503c2:	a1 0c 5d 05 08       	mov    0x8055d0c,%eax
 80503c7:	85 c0                	test   %eax,%eax
 80503c9:	74 23                	je     80503ee <HandleVarDec+0x145>
 80503cb:	8b 45 d8             	mov    -0x28(%ebp),%eax
 80503ce:	8b 40 10             	mov    0x10(%eax),%eax
 80503d1:	8d 50 30             	lea    0x30(%eax),%edx
 80503d4:	a1 0c 5d 05 08       	mov    0x8055d0c,%eax
 80503d9:	8b 40 04             	mov    0x4(%eax),%eax
 80503dc:	83 ec 04             	sub    $0x4,%esp
 80503df:	52                   	push   %edx
 80503e0:	50                   	push   %eax
 80503e1:	68 55 27 05 08       	push   $0x8052755
 80503e6:	e8 d5 82 ff ff       	call   80486c0 <printf@plt>
 80503eb:	83 c4 10             	add    $0x10,%esp
 80503ee:	8b 45 d8             	mov    -0x28(%ebp),%eax
 80503f1:	8b 40 10             	mov    0x10(%eax),%eax
 80503f4:	8d 50 30             	lea    0x30(%eax),%edx
 80503f7:	8b 45 e8             	mov    -0x18(%ebp),%eax
 80503fa:	83 ec 08             	sub    $0x8,%esp
 80503fd:	52                   	push   %edx
 80503fe:	50                   	push   %eax
 80503ff:	e8 4c 83 ff ff       	call   8048750 <strcpy@plt>
 8050404:	83 c4 10             	add    $0x10,%esp
 8050407:	8b 45 e8             	mov    -0x18(%ebp),%eax
 805040a:	8b 55 dc             	mov    -0x24(%ebp),%edx
 805040d:	89 50 20             	mov    %edx,0x20(%eax)
 8050410:	8b 45 d8             	mov    -0x28(%ebp),%eax
 8050413:	8b 40 10             	mov    0x10(%eax),%eax
 8050416:	8b 50 04             	mov    0x4(%eax),%edx
 8050419:	8b 45 e8             	mov    -0x18(%ebp),%eax
 805041c:	89 50 2c             	mov    %edx,0x2c(%eax)
 805041f:	83 7d 10 04          	cmpl   $0x4,0x10(%ebp)
 8050423:	75 12                	jne    8050437 <HandleVarDec+0x18e>
 8050425:	8b 45 e8             	mov    -0x18(%ebp),%eax
 8050428:	c7 40 28 04 00 00 00 	movl   $0x4,0x28(%eax)
 805042f:	8b 45 e8             	mov    -0x18(%ebp),%eax
 8050432:	e9 27 01 00 00       	jmp    805055e <HandleVarDec+0x2b5>
 8050437:	a1 0c 5d 05 08       	mov    0x8055d0c,%eax
 805043c:	85 c0                	test   %eax,%eax
 805043e:	74 23                	je     8050463 <HandleVarDec+0x1ba>
 8050440:	8b 45 d8             	mov    -0x28(%ebp),%eax
 8050443:	8b 40 10             	mov    0x10(%eax),%eax
 8050446:	8d 50 30             	lea    0x30(%eax),%edx
 8050449:	a1 0c 5d 05 08       	mov    0x8055d0c,%eax
 805044e:	8b 40 04             	mov    0x4(%eax),%eax
 8050451:	83 ec 04             	sub    $0x4,%esp
 8050454:	52                   	push   %edx
 8050455:	50                   	push   %eax
 8050456:	68 55 27 05 08       	push   $0x8052755
 805045b:	e8 60 82 ff ff       	call   80486c0 <printf@plt>
 8050460:	83 c4 10             	add    $0x10,%esp
 8050463:	83 ec 08             	sub    $0x8,%esp
 8050466:	ff 75 e8             	pushl  -0x18(%ebp)
 8050469:	68 60 51 05 08       	push   $0x8055160
 805046e:	e8 35 e3 ff ff       	call   804e7a8 <SymbolTable_Add>
 8050473:	83 c4 10             	add    $0x10,%esp
 8050476:	89 45 ec             	mov    %eax,-0x14(%ebp)
 8050479:	83 7d ec 02          	cmpl   $0x2,-0x14(%ebp)
 805047d:	0f 85 d8 00 00 00    	jne    805055b <HandleVarDec+0x2b2>
 8050483:	8b 45 e8             	mov    -0x18(%ebp),%eax
 8050486:	83 ec 08             	sub    $0x8,%esp
 8050489:	50                   	push   %eax
 805048a:	68 60 51 05 08       	push   $0x8055160
 805048f:	e8 af e2 ff ff       	call   804e743 <SymbolTable_Find>
 8050494:	83 c4 10             	add    $0x10,%esp
 8050497:	89 45 f0             	mov    %eax,-0x10(%ebp)
 805049a:	8b 45 f0             	mov    -0x10(%ebp),%eax
 805049d:	8b 40 04             	mov    0x4(%eax),%eax
 80504a0:	89 45 f4             	mov    %eax,-0xc(%ebp)
 80504a3:	83 7d 10 02          	cmpl   $0x2,0x10(%ebp)
 80504a7:	75 78                	jne    8050521 <HandleVarDec+0x278>
 80504a9:	8b 45 f4             	mov    -0xc(%ebp),%eax
 80504ac:	8b 40 28             	mov    0x28(%eax),%eax
 80504af:	85 c0                	test   %eax,%eax
 80504b1:	75 23                	jne    80504d6 <HandleVarDec+0x22d>
 80504b3:	8b 55 e8             	mov    -0x18(%ebp),%edx
 80504b6:	8b 45 d8             	mov    -0x28(%ebp),%eax
 80504b9:	8b 40 10             	mov    0x10(%eax),%eax
 80504bc:	8b 40 04             	mov    0x4(%eax),%eax
 80504bf:	83 ec 04             	sub    $0x4,%esp
 80504c2:	52                   	push   %edx
 80504c3:	50                   	push   %eax
 80504c4:	68 70 27 05 08       	push   $0x8052770
 80504c9:	e8 f2 81 ff ff       	call   80486c0 <printf@plt>
 80504ce:	83 c4 10             	add    $0x10,%esp
 80504d1:	e9 85 00 00 00       	jmp    805055b <HandleVarDec+0x2b2>
 80504d6:	8b 45 f4             	mov    -0xc(%ebp),%eax
 80504d9:	8b 40 28             	mov    0x28(%eax),%eax
 80504dc:	83 f8 01             	cmp    $0x1,%eax
 80504df:	75 20                	jne    8050501 <HandleVarDec+0x258>
 80504e1:	8b 55 e8             	mov    -0x18(%ebp),%edx
 80504e4:	8b 45 d8             	mov    -0x28(%ebp),%eax
 80504e7:	8b 40 10             	mov    0x10(%eax),%eax
 80504ea:	8b 40 04             	mov    0x4(%eax),%eax
 80504ed:	83 ec 04             	sub    $0x4,%esp
 80504f0:	52                   	push   %edx
 80504f1:	50                   	push   %eax
 80504f2:	68 c0 27 05 08       	push   $0x80527c0
 80504f7:	e8 c4 81 ff ff       	call   80486c0 <printf@plt>
 80504fc:	83 c4 10             	add    $0x10,%esp
 80504ff:	eb 5a                	jmp    805055b <HandleVarDec+0x2b2>
 8050501:	8b 55 e8             	mov    -0x18(%ebp),%edx
 8050504:	8b 45 d8             	mov    -0x28(%ebp),%eax
 8050507:	8b 40 10             	mov    0x10(%eax),%eax
 805050a:	8b 40 04             	mov    0x4(%eax),%eax
 805050d:	83 ec 04             	sub    $0x4,%esp
 8050510:	52                   	push   %edx
 8050511:	50                   	push   %eax
 8050512:	68 14 28 05 08       	push   $0x8052814
 8050517:	e8 a4 81 ff ff       	call   80486c0 <printf@plt>
 805051c:	83 c4 10             	add    $0x10,%esp
 805051f:	eb 3a                	jmp    805055b <HandleVarDec+0x2b2>
 8050521:	8b 55 e8             	mov    -0x18(%ebp),%edx
 8050524:	8b 45 d8             	mov    -0x28(%ebp),%eax
 8050527:	8b 40 10             	mov    0x10(%eax),%eax
 805052a:	8b 40 04             	mov    0x4(%eax),%eax
 805052d:	83 ec 04             	sub    $0x4,%esp
 8050530:	52                   	push   %edx
 8050531:	50                   	push   %eax
 8050532:	68 60 28 05 08       	push   $0x8052860
 8050537:	e8 84 81 ff ff       	call   80486c0 <printf@plt>
 805053c:	83 c4 10             	add    $0x10,%esp
 805053f:	eb 1a                	jmp    805055b <HandleVarDec+0x2b2>
 8050541:	8b 45 d8             	mov    -0x28(%ebp),%eax
 8050544:	8b 40 10             	mov    0x10(%eax),%eax
 8050547:	8b 40 08             	mov    0x8(%eax),%eax
 805054a:	83 ec 08             	sub    $0x8,%esp
 805054d:	50                   	push   %eax
 805054e:	68 94 28 05 08       	push   $0x8052894
 8050553:	e8 68 81 ff ff       	call   80486c0 <printf@plt>
 8050558:	83 c4 10             	add    $0x10,%esp
 805055b:	8b 45 e8             	mov    -0x18(%ebp),%eax
 805055e:	c9                   	leave  
 805055f:	c3                   	ret    

08050560 <yywrap>:
 8050560:	b8 01 00 00 00       	mov    $0x1,%eax
 8050565:	c3                   	ret    
 8050566:	66 90                	xchg   %ax,%ax
 8050568:	66 90                	xchg   %ax,%ax
 805056a:	66 90                	xchg   %ax,%ax
 805056c:	66 90                	xchg   %ax,%ax
 805056e:	66 90                	xchg   %ax,%ax

08050570 <__libc_csu_init>:
 8050570:	55                   	push   %ebp
 8050571:	57                   	push   %edi
 8050572:	56                   	push   %esi
 8050573:	53                   	push   %ebx
 8050574:	e8 17 83 ff ff       	call   8048890 <__x86.get_pc_thunk.bx>
 8050579:	81 c3 87 4a 00 00    	add    $0x4a87,%ebx
 805057f:	83 ec 0c             	sub    $0xc,%esp
 8050582:	8b 6c 24 20          	mov    0x20(%esp),%ebp
 8050586:	8d b3 0c ff ff ff    	lea    -0xf4(%ebx),%esi
 805058c:	e8 e3 80 ff ff       	call   8048674 <_init>
 8050591:	8d 83 08 ff ff ff    	lea    -0xf8(%ebx),%eax
 8050597:	29 c6                	sub    %eax,%esi
 8050599:	c1 fe 02             	sar    $0x2,%esi
 805059c:	85 f6                	test   %esi,%esi
 805059e:	74 25                	je     80505c5 <__libc_csu_init+0x55>
 80505a0:	31 ff                	xor    %edi,%edi
 80505a2:	8d b6 00 00 00 00    	lea    0x0(%esi),%esi
 80505a8:	83 ec 04             	sub    $0x4,%esp
 80505ab:	ff 74 24 2c          	pushl  0x2c(%esp)
 80505af:	ff 74 24 2c          	pushl  0x2c(%esp)
 80505b3:	55                   	push   %ebp
 80505b4:	ff 94 bb 08 ff ff ff 	call   *-0xf8(%ebx,%edi,4)
 80505bb:	83 c7 01             	add    $0x1,%edi
 80505be:	83 c4 10             	add    $0x10,%esp
 80505c1:	39 f7                	cmp    %esi,%edi
 80505c3:	75 e3                	jne    80505a8 <__libc_csu_init+0x38>
 80505c5:	83 c4 0c             	add    $0xc,%esp
 80505c8:	5b                   	pop    %ebx
 80505c9:	5e                   	pop    %esi
 80505ca:	5f                   	pop    %edi
 80505cb:	5d                   	pop    %ebp
 80505cc:	c3                   	ret    
 80505cd:	8d 76 00             	lea    0x0(%esi),%esi

080505d0 <__libc_csu_fini>:
 80505d0:	f3 c3                	repz ret 

Disassembly of section .fini:

080505d4 <_fini>:
 80505d4:	53                   	push   %ebx
 80505d5:	83 ec 08             	sub    $0x8,%esp
 80505d8:	e8 b3 82 ff ff       	call   8048890 <__x86.get_pc_thunk.bx>
 80505dd:	81 c3 23 4a 00 00    	add    $0x4a23,%ebx
 80505e3:	83 c4 08             	add    $0x8,%esp
 80505e6:	5b                   	pop    %ebx
 80505e7:	c3                   	ret    
